
stm32f4_hal_quadcopter.elf:     file format elf32-littlearm

Sections:
Idx Name          Size      VMA       LMA       File off  Algn
  0 .isr_vector   00000198  08000000  08000000  00010000  2**0
                  CONTENTS, ALLOC, LOAD, READONLY, DATA
  1 .text         0000772c  08000198  08000198  00010198  2**3
                  CONTENTS, ALLOC, LOAD, READONLY, CODE
  2 .rodata       000000b0  080078c8  080078c8  000178c8  2**3
                  CONTENTS, ALLOC, LOAD, READONLY, DATA
  3 .ARM.extab    00000000  08007978  08007978  00020074  2**0
                  CONTENTS
  4 .ARM          00000008  08007978  08007978  00017978  2**2
                  CONTENTS, ALLOC, LOAD, READONLY, DATA
  5 .preinit_array 00000000  08007980  08007980  00020074  2**0
                  CONTENTS, ALLOC, LOAD, DATA
  6 .init_array   00000004  08007980  08007980  00017980  2**2
                  CONTENTS, ALLOC, LOAD, DATA
  7 .fini_array   00000004  08007984  08007984  00017984  2**2
                  CONTENTS, ALLOC, LOAD, DATA
  8 .data         00000074  20000000  08007988  00020000  2**2
                  CONTENTS, ALLOC, LOAD, DATA
  9 .bss          00000534  20000078  080079fc  00020078  2**3
                  ALLOC
 10 ._user_heap_stack 00000604  200005ac  080079fc  000205ac  2**0
                  ALLOC
 11 .ARM.attributes 00000030  00000000  00000000  00020074  2**0
                  CONTENTS, READONLY
 12 .debug_info   00012593  00000000  00000000  000200a4  2**0
                  CONTENTS, READONLY, DEBUGGING
 13 .debug_abbrev 00002a1e  00000000  00000000  00032637  2**0
                  CONTENTS, READONLY, DEBUGGING
 14 .debug_aranges 00000f80  00000000  00000000  00035058  2**3
                  CONTENTS, READONLY, DEBUGGING
 15 .debug_ranges 00000e18  00000000  00000000  00035fd8  2**3
                  CONTENTS, READONLY, DEBUGGING
 16 .debug_macro  00017bfb  00000000  00000000  00036df0  2**0
                  CONTENTS, READONLY, DEBUGGING
 17 .debug_line   0000d828  00000000  00000000  0004e9eb  2**0
                  CONTENTS, READONLY, DEBUGGING
 18 .debug_str    0008f4de  00000000  00000000  0005c213  2**0
                  CONTENTS, READONLY, DEBUGGING
 19 .comment      0000007b  00000000  00000000  000eb6f1  2**0
                  CONTENTS, READONLY
 20 .debug_frame  0000434c  00000000  00000000  000eb76c  2**2
                  CONTENTS, READONLY, DEBUGGING

Disassembly of section .text:

08000198 <__do_global_dtors_aux>:
 8000198:	b510      	push	{r4, lr}
 800019a:	4c05      	ldr	r4, [pc, #20]	; (80001b0 <__do_global_dtors_aux+0x18>)
 800019c:	7823      	ldrb	r3, [r4, #0]
 800019e:	b933      	cbnz	r3, 80001ae <__do_global_dtors_aux+0x16>
 80001a0:	4b04      	ldr	r3, [pc, #16]	; (80001b4 <__do_global_dtors_aux+0x1c>)
 80001a2:	b113      	cbz	r3, 80001aa <__do_global_dtors_aux+0x12>
 80001a4:	4804      	ldr	r0, [pc, #16]	; (80001b8 <__do_global_dtors_aux+0x20>)
 80001a6:	f3af 8000 	nop.w
 80001aa:	2301      	movs	r3, #1
 80001ac:	7023      	strb	r3, [r4, #0]
 80001ae:	bd10      	pop	{r4, pc}
 80001b0:	20000078 	.word	0x20000078
 80001b4:	00000000 	.word	0x00000000
 80001b8:	080078ac 	.word	0x080078ac

080001bc <frame_dummy>:
 80001bc:	b508      	push	{r3, lr}
 80001be:	4b03      	ldr	r3, [pc, #12]	; (80001cc <frame_dummy+0x10>)
 80001c0:	b11b      	cbz	r3, 80001ca <frame_dummy+0xe>
 80001c2:	4903      	ldr	r1, [pc, #12]	; (80001d0 <frame_dummy+0x14>)
 80001c4:	4803      	ldr	r0, [pc, #12]	; (80001d4 <frame_dummy+0x18>)
 80001c6:	f3af 8000 	nop.w
 80001ca:	bd08      	pop	{r3, pc}
 80001cc:	00000000 	.word	0x00000000
 80001d0:	2000007c 	.word	0x2000007c
 80001d4:	080078ac 	.word	0x080078ac

080001d8 <__aeabi_drsub>:
 80001d8:	f081 4100 	eor.w	r1, r1, #2147483648	; 0x80000000
 80001dc:	e002      	b.n	80001e4 <__adddf3>
 80001de:	bf00      	nop

080001e0 <__aeabi_dsub>:
 80001e0:	f083 4300 	eor.w	r3, r3, #2147483648	; 0x80000000

080001e4 <__adddf3>:
 80001e4:	b530      	push	{r4, r5, lr}
 80001e6:	ea4f 0441 	mov.w	r4, r1, lsl #1
 80001ea:	ea4f 0543 	mov.w	r5, r3, lsl #1
 80001ee:	ea94 0f05 	teq	r4, r5
 80001f2:	bf08      	it	eq
 80001f4:	ea90 0f02 	teqeq	r0, r2
 80001f8:	bf1f      	itttt	ne
 80001fa:	ea54 0c00 	orrsne.w	ip, r4, r0
 80001fe:	ea55 0c02 	orrsne.w	ip, r5, r2
 8000202:	ea7f 5c64 	mvnsne.w	ip, r4, asr #21
 8000206:	ea7f 5c65 	mvnsne.w	ip, r5, asr #21
 800020a:	f000 80e2 	beq.w	80003d2 <__adddf3+0x1ee>
 800020e:	ea4f 5454 	mov.w	r4, r4, lsr #21
 8000212:	ebd4 5555 	rsbs	r5, r4, r5, lsr #21
 8000216:	bfb8      	it	lt
 8000218:	426d      	neglt	r5, r5
 800021a:	dd0c      	ble.n	8000236 <__adddf3+0x52>
 800021c:	442c      	add	r4, r5
 800021e:	ea80 0202 	eor.w	r2, r0, r2
 8000222:	ea81 0303 	eor.w	r3, r1, r3
 8000226:	ea82 0000 	eor.w	r0, r2, r0
 800022a:	ea83 0101 	eor.w	r1, r3, r1
 800022e:	ea80 0202 	eor.w	r2, r0, r2
 8000232:	ea81 0303 	eor.w	r3, r1, r3
 8000236:	2d36      	cmp	r5, #54	; 0x36
 8000238:	bf88      	it	hi
 800023a:	bd30      	pophi	{r4, r5, pc}
 800023c:	f011 4f00 	tst.w	r1, #2147483648	; 0x80000000
 8000240:	ea4f 3101 	mov.w	r1, r1, lsl #12
 8000244:	f44f 1c80 	mov.w	ip, #1048576	; 0x100000
 8000248:	ea4c 3111 	orr.w	r1, ip, r1, lsr #12
 800024c:	d002      	beq.n	8000254 <__adddf3+0x70>
 800024e:	4240      	negs	r0, r0
 8000250:	eb61 0141 	sbc.w	r1, r1, r1, lsl #1
 8000254:	f013 4f00 	tst.w	r3, #2147483648	; 0x80000000
 8000258:	ea4f 3303 	mov.w	r3, r3, lsl #12
 800025c:	ea4c 3313 	orr.w	r3, ip, r3, lsr #12
 8000260:	d002      	beq.n	8000268 <__adddf3+0x84>
 8000262:	4252      	negs	r2, r2
 8000264:	eb63 0343 	sbc.w	r3, r3, r3, lsl #1
 8000268:	ea94 0f05 	teq	r4, r5
 800026c:	f000 80a7 	beq.w	80003be <__adddf3+0x1da>
 8000270:	f1a4 0401 	sub.w	r4, r4, #1
 8000274:	f1d5 0e20 	rsbs	lr, r5, #32
 8000278:	db0d      	blt.n	8000296 <__adddf3+0xb2>
 800027a:	fa02 fc0e 	lsl.w	ip, r2, lr
 800027e:	fa22 f205 	lsr.w	r2, r2, r5
 8000282:	1880      	adds	r0, r0, r2
 8000284:	f141 0100 	adc.w	r1, r1, #0
 8000288:	fa03 f20e 	lsl.w	r2, r3, lr
 800028c:	1880      	adds	r0, r0, r2
 800028e:	fa43 f305 	asr.w	r3, r3, r5
 8000292:	4159      	adcs	r1, r3
 8000294:	e00e      	b.n	80002b4 <__adddf3+0xd0>
 8000296:	f1a5 0520 	sub.w	r5, r5, #32
 800029a:	f10e 0e20 	add.w	lr, lr, #32
 800029e:	2a01      	cmp	r2, #1
 80002a0:	fa03 fc0e 	lsl.w	ip, r3, lr
 80002a4:	bf28      	it	cs
 80002a6:	f04c 0c02 	orrcs.w	ip, ip, #2
 80002aa:	fa43 f305 	asr.w	r3, r3, r5
 80002ae:	18c0      	adds	r0, r0, r3
 80002b0:	eb51 71e3 	adcs.w	r1, r1, r3, asr #31
 80002b4:	f001 4500 	and.w	r5, r1, #2147483648	; 0x80000000
 80002b8:	d507      	bpl.n	80002ca <__adddf3+0xe6>
 80002ba:	f04f 0e00 	mov.w	lr, #0
 80002be:	f1dc 0c00 	rsbs	ip, ip, #0
 80002c2:	eb7e 0000 	sbcs.w	r0, lr, r0
 80002c6:	eb6e 0101 	sbc.w	r1, lr, r1
 80002ca:	f5b1 1f80 	cmp.w	r1, #1048576	; 0x100000
 80002ce:	d31b      	bcc.n	8000308 <__adddf3+0x124>
 80002d0:	f5b1 1f00 	cmp.w	r1, #2097152	; 0x200000
 80002d4:	d30c      	bcc.n	80002f0 <__adddf3+0x10c>
 80002d6:	0849      	lsrs	r1, r1, #1
 80002d8:	ea5f 0030 	movs.w	r0, r0, rrx
 80002dc:	ea4f 0c3c 	mov.w	ip, ip, rrx
 80002e0:	f104 0401 	add.w	r4, r4, #1
 80002e4:	ea4f 5244 	mov.w	r2, r4, lsl #21
 80002e8:	f512 0f80 	cmn.w	r2, #4194304	; 0x400000
 80002ec:	f080 809a 	bcs.w	8000424 <__adddf3+0x240>
 80002f0:	f1bc 4f00 	cmp.w	ip, #2147483648	; 0x80000000
 80002f4:	bf08      	it	eq
 80002f6:	ea5f 0c50 	movseq.w	ip, r0, lsr #1
 80002fa:	f150 0000 	adcs.w	r0, r0, #0
 80002fe:	eb41 5104 	adc.w	r1, r1, r4, lsl #20
 8000302:	ea41 0105 	orr.w	r1, r1, r5
 8000306:	bd30      	pop	{r4, r5, pc}
 8000308:	ea5f 0c4c 	movs.w	ip, ip, lsl #1
 800030c:	4140      	adcs	r0, r0
 800030e:	eb41 0101 	adc.w	r1, r1, r1
 8000312:	f411 1f80 	tst.w	r1, #1048576	; 0x100000
 8000316:	f1a4 0401 	sub.w	r4, r4, #1
 800031a:	d1e9      	bne.n	80002f0 <__adddf3+0x10c>
 800031c:	f091 0f00 	teq	r1, #0
 8000320:	bf04      	itt	eq
 8000322:	4601      	moveq	r1, r0
 8000324:	2000      	moveq	r0, #0
 8000326:	fab1 f381 	clz	r3, r1
 800032a:	bf08      	it	eq
 800032c:	3320      	addeq	r3, #32
 800032e:	f1a3 030b 	sub.w	r3, r3, #11
 8000332:	f1b3 0220 	subs.w	r2, r3, #32
 8000336:	da0c      	bge.n	8000352 <__adddf3+0x16e>
 8000338:	320c      	adds	r2, #12
 800033a:	dd08      	ble.n	800034e <__adddf3+0x16a>
 800033c:	f102 0c14 	add.w	ip, r2, #20
 8000340:	f1c2 020c 	rsb	r2, r2, #12
 8000344:	fa01 f00c 	lsl.w	r0, r1, ip
 8000348:	fa21 f102 	lsr.w	r1, r1, r2
 800034c:	e00c      	b.n	8000368 <__adddf3+0x184>
 800034e:	f102 0214 	add.w	r2, r2, #20
 8000352:	bfd8      	it	le
 8000354:	f1c2 0c20 	rsble	ip, r2, #32
 8000358:	fa01 f102 	lsl.w	r1, r1, r2
 800035c:	fa20 fc0c 	lsr.w	ip, r0, ip
 8000360:	bfdc      	itt	le
 8000362:	ea41 010c 	orrle.w	r1, r1, ip
 8000366:	4090      	lslle	r0, r2
 8000368:	1ae4      	subs	r4, r4, r3
 800036a:	bfa2      	ittt	ge
 800036c:	eb01 5104 	addge.w	r1, r1, r4, lsl #20
 8000370:	4329      	orrge	r1, r5
 8000372:	bd30      	popge	{r4, r5, pc}
 8000374:	ea6f 0404 	mvn.w	r4, r4
 8000378:	3c1f      	subs	r4, #31
 800037a:	da1c      	bge.n	80003b6 <__adddf3+0x1d2>
 800037c:	340c      	adds	r4, #12
 800037e:	dc0e      	bgt.n	800039e <__adddf3+0x1ba>
 8000380:	f104 0414 	add.w	r4, r4, #20
 8000384:	f1c4 0220 	rsb	r2, r4, #32
 8000388:	fa20 f004 	lsr.w	r0, r0, r4
 800038c:	fa01 f302 	lsl.w	r3, r1, r2
 8000390:	ea40 0003 	orr.w	r0, r0, r3
 8000394:	fa21 f304 	lsr.w	r3, r1, r4
 8000398:	ea45 0103 	orr.w	r1, r5, r3
 800039c:	bd30      	pop	{r4, r5, pc}
 800039e:	f1c4 040c 	rsb	r4, r4, #12
 80003a2:	f1c4 0220 	rsb	r2, r4, #32
 80003a6:	fa20 f002 	lsr.w	r0, r0, r2
 80003aa:	fa01 f304 	lsl.w	r3, r1, r4
 80003ae:	ea40 0003 	orr.w	r0, r0, r3
 80003b2:	4629      	mov	r1, r5
 80003b4:	bd30      	pop	{r4, r5, pc}
 80003b6:	fa21 f004 	lsr.w	r0, r1, r4
 80003ba:	4629      	mov	r1, r5
 80003bc:	bd30      	pop	{r4, r5, pc}
 80003be:	f094 0f00 	teq	r4, #0
 80003c2:	f483 1380 	eor.w	r3, r3, #1048576	; 0x100000
 80003c6:	bf06      	itte	eq
 80003c8:	f481 1180 	eoreq.w	r1, r1, #1048576	; 0x100000
 80003cc:	3401      	addeq	r4, #1
 80003ce:	3d01      	subne	r5, #1
 80003d0:	e74e      	b.n	8000270 <__adddf3+0x8c>
 80003d2:	ea7f 5c64 	mvns.w	ip, r4, asr #21
 80003d6:	bf18      	it	ne
 80003d8:	ea7f 5c65 	mvnsne.w	ip, r5, asr #21
 80003dc:	d029      	beq.n	8000432 <__adddf3+0x24e>
 80003de:	ea94 0f05 	teq	r4, r5
 80003e2:	bf08      	it	eq
 80003e4:	ea90 0f02 	teqeq	r0, r2
 80003e8:	d005      	beq.n	80003f6 <__adddf3+0x212>
 80003ea:	ea54 0c00 	orrs.w	ip, r4, r0
 80003ee:	bf04      	itt	eq
 80003f0:	4619      	moveq	r1, r3
 80003f2:	4610      	moveq	r0, r2
 80003f4:	bd30      	pop	{r4, r5, pc}
 80003f6:	ea91 0f03 	teq	r1, r3
 80003fa:	bf1e      	ittt	ne
 80003fc:	2100      	movne	r1, #0
 80003fe:	2000      	movne	r0, #0
 8000400:	bd30      	popne	{r4, r5, pc}
 8000402:	ea5f 5c54 	movs.w	ip, r4, lsr #21
 8000406:	d105      	bne.n	8000414 <__adddf3+0x230>
 8000408:	0040      	lsls	r0, r0, #1
 800040a:	4149      	adcs	r1, r1
 800040c:	bf28      	it	cs
 800040e:	f041 4100 	orrcs.w	r1, r1, #2147483648	; 0x80000000
 8000412:	bd30      	pop	{r4, r5, pc}
 8000414:	f514 0480 	adds.w	r4, r4, #4194304	; 0x400000
 8000418:	bf3c      	itt	cc
 800041a:	f501 1180 	addcc.w	r1, r1, #1048576	; 0x100000
 800041e:	bd30      	popcc	{r4, r5, pc}
 8000420:	f001 4500 	and.w	r5, r1, #2147483648	; 0x80000000
 8000424:	f045 41fe 	orr.w	r1, r5, #2130706432	; 0x7f000000
 8000428:	f441 0170 	orr.w	r1, r1, #15728640	; 0xf00000
 800042c:	f04f 0000 	mov.w	r0, #0
 8000430:	bd30      	pop	{r4, r5, pc}
 8000432:	ea7f 5c64 	mvns.w	ip, r4, asr #21
 8000436:	bf1a      	itte	ne
 8000438:	4619      	movne	r1, r3
 800043a:	4610      	movne	r0, r2
 800043c:	ea7f 5c65 	mvnseq.w	ip, r5, asr #21
 8000440:	bf1c      	itt	ne
 8000442:	460b      	movne	r3, r1
 8000444:	4602      	movne	r2, r0
 8000446:	ea50 3401 	orrs.w	r4, r0, r1, lsl #12
 800044a:	bf06      	itte	eq
 800044c:	ea52 3503 	orrseq.w	r5, r2, r3, lsl #12
 8000450:	ea91 0f03 	teqeq	r1, r3
 8000454:	f441 2100 	orrne.w	r1, r1, #524288	; 0x80000
 8000458:	bd30      	pop	{r4, r5, pc}
 800045a:	bf00      	nop

0800045c <__aeabi_ui2d>:
 800045c:	f090 0f00 	teq	r0, #0
 8000460:	bf04      	itt	eq
 8000462:	2100      	moveq	r1, #0
 8000464:	4770      	bxeq	lr
 8000466:	b530      	push	{r4, r5, lr}
 8000468:	f44f 6480 	mov.w	r4, #1024	; 0x400
 800046c:	f104 0432 	add.w	r4, r4, #50	; 0x32
 8000470:	f04f 0500 	mov.w	r5, #0
 8000474:	f04f 0100 	mov.w	r1, #0
 8000478:	e750      	b.n	800031c <__adddf3+0x138>
 800047a:	bf00      	nop

0800047c <__aeabi_i2d>:
 800047c:	f090 0f00 	teq	r0, #0
 8000480:	bf04      	itt	eq
 8000482:	2100      	moveq	r1, #0
 8000484:	4770      	bxeq	lr
 8000486:	b530      	push	{r4, r5, lr}
 8000488:	f44f 6480 	mov.w	r4, #1024	; 0x400
 800048c:	f104 0432 	add.w	r4, r4, #50	; 0x32
 8000490:	f010 4500 	ands.w	r5, r0, #2147483648	; 0x80000000
 8000494:	bf48      	it	mi
 8000496:	4240      	negmi	r0, r0
 8000498:	f04f 0100 	mov.w	r1, #0
 800049c:	e73e      	b.n	800031c <__adddf3+0x138>
 800049e:	bf00      	nop

080004a0 <__aeabi_f2d>:
 80004a0:	0042      	lsls	r2, r0, #1
 80004a2:	ea4f 01e2 	mov.w	r1, r2, asr #3
 80004a6:	ea4f 0131 	mov.w	r1, r1, rrx
 80004aa:	ea4f 7002 	mov.w	r0, r2, lsl #28
 80004ae:	bf1f      	itttt	ne
 80004b0:	f012 437f 	andsne.w	r3, r2, #4278190080	; 0xff000000
 80004b4:	f093 4f7f 	teqne	r3, #4278190080	; 0xff000000
 80004b8:	f081 5160 	eorne.w	r1, r1, #939524096	; 0x38000000
 80004bc:	4770      	bxne	lr
 80004be:	f032 427f 	bics.w	r2, r2, #4278190080	; 0xff000000
 80004c2:	bf08      	it	eq
 80004c4:	4770      	bxeq	lr
 80004c6:	f093 4f7f 	teq	r3, #4278190080	; 0xff000000
 80004ca:	bf04      	itt	eq
 80004cc:	f441 2100 	orreq.w	r1, r1, #524288	; 0x80000
 80004d0:	4770      	bxeq	lr
 80004d2:	b530      	push	{r4, r5, lr}
 80004d4:	f44f 7460 	mov.w	r4, #896	; 0x380
 80004d8:	f001 4500 	and.w	r5, r1, #2147483648	; 0x80000000
 80004dc:	f021 4100 	bic.w	r1, r1, #2147483648	; 0x80000000
 80004e0:	e71c      	b.n	800031c <__adddf3+0x138>
 80004e2:	bf00      	nop

080004e4 <__aeabi_ul2d>:
 80004e4:	ea50 0201 	orrs.w	r2, r0, r1
 80004e8:	bf08      	it	eq
 80004ea:	4770      	bxeq	lr
 80004ec:	b530      	push	{r4, r5, lr}
 80004ee:	f04f 0500 	mov.w	r5, #0
 80004f2:	e00a      	b.n	800050a <__aeabi_l2d+0x16>

080004f4 <__aeabi_l2d>:
 80004f4:	ea50 0201 	orrs.w	r2, r0, r1
 80004f8:	bf08      	it	eq
 80004fa:	4770      	bxeq	lr
 80004fc:	b530      	push	{r4, r5, lr}
 80004fe:	f011 4500 	ands.w	r5, r1, #2147483648	; 0x80000000
 8000502:	d502      	bpl.n	800050a <__aeabi_l2d+0x16>
 8000504:	4240      	negs	r0, r0
 8000506:	eb61 0141 	sbc.w	r1, r1, r1, lsl #1
 800050a:	f44f 6480 	mov.w	r4, #1024	; 0x400
 800050e:	f104 0432 	add.w	r4, r4, #50	; 0x32
 8000512:	ea5f 5c91 	movs.w	ip, r1, lsr #22
 8000516:	f43f aed8 	beq.w	80002ca <__adddf3+0xe6>
 800051a:	f04f 0203 	mov.w	r2, #3
 800051e:	ea5f 0cdc 	movs.w	ip, ip, lsr #3
 8000522:	bf18      	it	ne
 8000524:	3203      	addne	r2, #3
 8000526:	ea5f 0cdc 	movs.w	ip, ip, lsr #3
 800052a:	bf18      	it	ne
 800052c:	3203      	addne	r2, #3
 800052e:	eb02 02dc 	add.w	r2, r2, ip, lsr #3
 8000532:	f1c2 0320 	rsb	r3, r2, #32
 8000536:	fa00 fc03 	lsl.w	ip, r0, r3
 800053a:	fa20 f002 	lsr.w	r0, r0, r2
 800053e:	fa01 fe03 	lsl.w	lr, r1, r3
 8000542:	ea40 000e 	orr.w	r0, r0, lr
 8000546:	fa21 f102 	lsr.w	r1, r1, r2
 800054a:	4414      	add	r4, r2
 800054c:	e6bd      	b.n	80002ca <__adddf3+0xe6>
 800054e:	bf00      	nop

08000550 <__aeabi_dmul>:
 8000550:	b570      	push	{r4, r5, r6, lr}
 8000552:	f04f 0cff 	mov.w	ip, #255	; 0xff
 8000556:	f44c 6ce0 	orr.w	ip, ip, #1792	; 0x700
 800055a:	ea1c 5411 	ands.w	r4, ip, r1, lsr #20
 800055e:	bf1d      	ittte	ne
 8000560:	ea1c 5513 	andsne.w	r5, ip, r3, lsr #20
 8000564:	ea94 0f0c 	teqne	r4, ip
 8000568:	ea95 0f0c 	teqne	r5, ip
 800056c:	f000 f8de 	bleq	800072c <__aeabi_dmul+0x1dc>
 8000570:	442c      	add	r4, r5
 8000572:	ea81 0603 	eor.w	r6, r1, r3
 8000576:	ea21 514c 	bic.w	r1, r1, ip, lsl #21
 800057a:	ea23 534c 	bic.w	r3, r3, ip, lsl #21
 800057e:	ea50 3501 	orrs.w	r5, r0, r1, lsl #12
 8000582:	bf18      	it	ne
 8000584:	ea52 3503 	orrsne.w	r5, r2, r3, lsl #12
 8000588:	f441 1180 	orr.w	r1, r1, #1048576	; 0x100000
 800058c:	f443 1380 	orr.w	r3, r3, #1048576	; 0x100000
 8000590:	d038      	beq.n	8000604 <__aeabi_dmul+0xb4>
 8000592:	fba0 ce02 	umull	ip, lr, r0, r2
 8000596:	f04f 0500 	mov.w	r5, #0
 800059a:	fbe1 e502 	umlal	lr, r5, r1, r2
 800059e:	f006 4200 	and.w	r2, r6, #2147483648	; 0x80000000
 80005a2:	fbe0 e503 	umlal	lr, r5, r0, r3
 80005a6:	f04f 0600 	mov.w	r6, #0
 80005aa:	fbe1 5603 	umlal	r5, r6, r1, r3
 80005ae:	f09c 0f00 	teq	ip, #0
 80005b2:	bf18      	it	ne
 80005b4:	f04e 0e01 	orrne.w	lr, lr, #1
 80005b8:	f1a4 04ff 	sub.w	r4, r4, #255	; 0xff
 80005bc:	f5b6 7f00 	cmp.w	r6, #512	; 0x200
 80005c0:	f564 7440 	sbc.w	r4, r4, #768	; 0x300
 80005c4:	d204      	bcs.n	80005d0 <__aeabi_dmul+0x80>
 80005c6:	ea5f 0e4e 	movs.w	lr, lr, lsl #1
 80005ca:	416d      	adcs	r5, r5
 80005cc:	eb46 0606 	adc.w	r6, r6, r6
 80005d0:	ea42 21c6 	orr.w	r1, r2, r6, lsl #11
 80005d4:	ea41 5155 	orr.w	r1, r1, r5, lsr #21
 80005d8:	ea4f 20c5 	mov.w	r0, r5, lsl #11
 80005dc:	ea40 505e 	orr.w	r0, r0, lr, lsr #21
 80005e0:	ea4f 2ece 	mov.w	lr, lr, lsl #11
 80005e4:	f1b4 0cfd 	subs.w	ip, r4, #253	; 0xfd
 80005e8:	bf88      	it	hi
 80005ea:	f5bc 6fe0 	cmphi.w	ip, #1792	; 0x700
 80005ee:	d81e      	bhi.n	800062e <__aeabi_dmul+0xde>
 80005f0:	f1be 4f00 	cmp.w	lr, #2147483648	; 0x80000000
 80005f4:	bf08      	it	eq
 80005f6:	ea5f 0e50 	movseq.w	lr, r0, lsr #1
 80005fa:	f150 0000 	adcs.w	r0, r0, #0
 80005fe:	eb41 5104 	adc.w	r1, r1, r4, lsl #20
 8000602:	bd70      	pop	{r4, r5, r6, pc}
 8000604:	f006 4600 	and.w	r6, r6, #2147483648	; 0x80000000
 8000608:	ea46 0101 	orr.w	r1, r6, r1
 800060c:	ea40 0002 	orr.w	r0, r0, r2
 8000610:	ea81 0103 	eor.w	r1, r1, r3
 8000614:	ebb4 045c 	subs.w	r4, r4, ip, lsr #1
 8000618:	bfc2      	ittt	gt
 800061a:	ebd4 050c 	rsbsgt	r5, r4, ip
 800061e:	ea41 5104 	orrgt.w	r1, r1, r4, lsl #20
 8000622:	bd70      	popgt	{r4, r5, r6, pc}
 8000624:	f441 1180 	orr.w	r1, r1, #1048576	; 0x100000
 8000628:	f04f 0e00 	mov.w	lr, #0
 800062c:	3c01      	subs	r4, #1
 800062e:	f300 80ab 	bgt.w	8000788 <__aeabi_dmul+0x238>
 8000632:	f114 0f36 	cmn.w	r4, #54	; 0x36
 8000636:	bfde      	ittt	le
 8000638:	2000      	movle	r0, #0
 800063a:	f001 4100 	andle.w	r1, r1, #2147483648	; 0x80000000
 800063e:	bd70      	pople	{r4, r5, r6, pc}
 8000640:	f1c4 0400 	rsb	r4, r4, #0
 8000644:	3c20      	subs	r4, #32
 8000646:	da35      	bge.n	80006b4 <__aeabi_dmul+0x164>
 8000648:	340c      	adds	r4, #12
 800064a:	dc1b      	bgt.n	8000684 <__aeabi_dmul+0x134>
 800064c:	f104 0414 	add.w	r4, r4, #20
 8000650:	f1c4 0520 	rsb	r5, r4, #32
 8000654:	fa00 f305 	lsl.w	r3, r0, r5
 8000658:	fa20 f004 	lsr.w	r0, r0, r4
 800065c:	fa01 f205 	lsl.w	r2, r1, r5
 8000660:	ea40 0002 	orr.w	r0, r0, r2
 8000664:	f001 4200 	and.w	r2, r1, #2147483648	; 0x80000000
 8000668:	f021 4100 	bic.w	r1, r1, #2147483648	; 0x80000000
 800066c:	eb10 70d3 	adds.w	r0, r0, r3, lsr #31
 8000670:	fa21 f604 	lsr.w	r6, r1, r4
 8000674:	eb42 0106 	adc.w	r1, r2, r6
 8000678:	ea5e 0e43 	orrs.w	lr, lr, r3, lsl #1
 800067c:	bf08      	it	eq
 800067e:	ea20 70d3 	biceq.w	r0, r0, r3, lsr #31
 8000682:	bd70      	pop	{r4, r5, r6, pc}
 8000684:	f1c4 040c 	rsb	r4, r4, #12
 8000688:	f1c4 0520 	rsb	r5, r4, #32
 800068c:	fa00 f304 	lsl.w	r3, r0, r4
 8000690:	fa20 f005 	lsr.w	r0, r0, r5
 8000694:	fa01 f204 	lsl.w	r2, r1, r4
 8000698:	ea40 0002 	orr.w	r0, r0, r2
 800069c:	f001 4100 	and.w	r1, r1, #2147483648	; 0x80000000
 80006a0:	eb10 70d3 	adds.w	r0, r0, r3, lsr #31
 80006a4:	f141 0100 	adc.w	r1, r1, #0
 80006a8:	ea5e 0e43 	orrs.w	lr, lr, r3, lsl #1
 80006ac:	bf08      	it	eq
 80006ae:	ea20 70d3 	biceq.w	r0, r0, r3, lsr #31
 80006b2:	bd70      	pop	{r4, r5, r6, pc}
 80006b4:	f1c4 0520 	rsb	r5, r4, #32
 80006b8:	fa00 f205 	lsl.w	r2, r0, r5
 80006bc:	ea4e 0e02 	orr.w	lr, lr, r2
 80006c0:	fa20 f304 	lsr.w	r3, r0, r4
 80006c4:	fa01 f205 	lsl.w	r2, r1, r5
 80006c8:	ea43 0302 	orr.w	r3, r3, r2
 80006cc:	fa21 f004 	lsr.w	r0, r1, r4
 80006d0:	f001 4100 	and.w	r1, r1, #2147483648	; 0x80000000
 80006d4:	fa21 f204 	lsr.w	r2, r1, r4
 80006d8:	ea20 0002 	bic.w	r0, r0, r2
 80006dc:	eb00 70d3 	add.w	r0, r0, r3, lsr #31
 80006e0:	ea5e 0e43 	orrs.w	lr, lr, r3, lsl #1
 80006e4:	bf08      	it	eq
 80006e6:	ea20 70d3 	biceq.w	r0, r0, r3, lsr #31
 80006ea:	bd70      	pop	{r4, r5, r6, pc}
 80006ec:	f094 0f00 	teq	r4, #0
 80006f0:	d10f      	bne.n	8000712 <__aeabi_dmul+0x1c2>
 80006f2:	f001 4600 	and.w	r6, r1, #2147483648	; 0x80000000
 80006f6:	0040      	lsls	r0, r0, #1
 80006f8:	eb41 0101 	adc.w	r1, r1, r1
 80006fc:	f411 1f80 	tst.w	r1, #1048576	; 0x100000
 8000700:	bf08      	it	eq
 8000702:	3c01      	subeq	r4, #1
 8000704:	d0f7      	beq.n	80006f6 <__aeabi_dmul+0x1a6>
 8000706:	ea41 0106 	orr.w	r1, r1, r6
 800070a:	f095 0f00 	teq	r5, #0
 800070e:	bf18      	it	ne
 8000710:	4770      	bxne	lr
 8000712:	f003 4600 	and.w	r6, r3, #2147483648	; 0x80000000
 8000716:	0052      	lsls	r2, r2, #1
 8000718:	eb43 0303 	adc.w	r3, r3, r3
 800071c:	f413 1f80 	tst.w	r3, #1048576	; 0x100000
 8000720:	bf08      	it	eq
 8000722:	3d01      	subeq	r5, #1
 8000724:	d0f7      	beq.n	8000716 <__aeabi_dmul+0x1c6>
 8000726:	ea43 0306 	orr.w	r3, r3, r6
 800072a:	4770      	bx	lr
 800072c:	ea94 0f0c 	teq	r4, ip
 8000730:	ea0c 5513 	and.w	r5, ip, r3, lsr #20
 8000734:	bf18      	it	ne
 8000736:	ea95 0f0c 	teqne	r5, ip
 800073a:	d00c      	beq.n	8000756 <__aeabi_dmul+0x206>
 800073c:	ea50 0641 	orrs.w	r6, r0, r1, lsl #1
 8000740:	bf18      	it	ne
 8000742:	ea52 0643 	orrsne.w	r6, r2, r3, lsl #1
 8000746:	d1d1      	bne.n	80006ec <__aeabi_dmul+0x19c>
 8000748:	ea81 0103 	eor.w	r1, r1, r3
 800074c:	f001 4100 	and.w	r1, r1, #2147483648	; 0x80000000
 8000750:	f04f 0000 	mov.w	r0, #0
 8000754:	bd70      	pop	{r4, r5, r6, pc}
 8000756:	ea50 0641 	orrs.w	r6, r0, r1, lsl #1
 800075a:	bf06      	itte	eq
 800075c:	4610      	moveq	r0, r2
 800075e:	4619      	moveq	r1, r3
 8000760:	ea52 0643 	orrsne.w	r6, r2, r3, lsl #1
 8000764:	d019      	beq.n	800079a <__aeabi_dmul+0x24a>
 8000766:	ea94 0f0c 	teq	r4, ip
 800076a:	d102      	bne.n	8000772 <__aeabi_dmul+0x222>
 800076c:	ea50 3601 	orrs.w	r6, r0, r1, lsl #12
 8000770:	d113      	bne.n	800079a <__aeabi_dmul+0x24a>
 8000772:	ea95 0f0c 	teq	r5, ip
 8000776:	d105      	bne.n	8000784 <__aeabi_dmul+0x234>
 8000778:	ea52 3603 	orrs.w	r6, r2, r3, lsl #12
 800077c:	bf1c      	itt	ne
 800077e:	4610      	movne	r0, r2
 8000780:	4619      	movne	r1, r3
 8000782:	d10a      	bne.n	800079a <__aeabi_dmul+0x24a>
 8000784:	ea81 0103 	eor.w	r1, r1, r3
 8000788:	f001 4100 	and.w	r1, r1, #2147483648	; 0x80000000
 800078c:	f041 41fe 	orr.w	r1, r1, #2130706432	; 0x7f000000
 8000790:	f441 0170 	orr.w	r1, r1, #15728640	; 0xf00000
 8000794:	f04f 0000 	mov.w	r0, #0
 8000798:	bd70      	pop	{r4, r5, r6, pc}
 800079a:	f041 41fe 	orr.w	r1, r1, #2130706432	; 0x7f000000
 800079e:	f441 0178 	orr.w	r1, r1, #16252928	; 0xf80000
 80007a2:	bd70      	pop	{r4, r5, r6, pc}

080007a4 <__aeabi_ddiv>:
 80007a4:	b570      	push	{r4, r5, r6, lr}
 80007a6:	f04f 0cff 	mov.w	ip, #255	; 0xff
 80007aa:	f44c 6ce0 	orr.w	ip, ip, #1792	; 0x700
 80007ae:	ea1c 5411 	ands.w	r4, ip, r1, lsr #20
 80007b2:	bf1d      	ittte	ne
 80007b4:	ea1c 5513 	andsne.w	r5, ip, r3, lsr #20
 80007b8:	ea94 0f0c 	teqne	r4, ip
 80007bc:	ea95 0f0c 	teqne	r5, ip
 80007c0:	f000 f8a7 	bleq	8000912 <__aeabi_ddiv+0x16e>
 80007c4:	eba4 0405 	sub.w	r4, r4, r5
 80007c8:	ea81 0e03 	eor.w	lr, r1, r3
 80007cc:	ea52 3503 	orrs.w	r5, r2, r3, lsl #12
 80007d0:	ea4f 3101 	mov.w	r1, r1, lsl #12
 80007d4:	f000 8088 	beq.w	80008e8 <__aeabi_ddiv+0x144>
 80007d8:	ea4f 3303 	mov.w	r3, r3, lsl #12
 80007dc:	f04f 5580 	mov.w	r5, #268435456	; 0x10000000
 80007e0:	ea45 1313 	orr.w	r3, r5, r3, lsr #4
 80007e4:	ea43 6312 	orr.w	r3, r3, r2, lsr #24
 80007e8:	ea4f 2202 	mov.w	r2, r2, lsl #8
 80007ec:	ea45 1511 	orr.w	r5, r5, r1, lsr #4
 80007f0:	ea45 6510 	orr.w	r5, r5, r0, lsr #24
 80007f4:	ea4f 2600 	mov.w	r6, r0, lsl #8
 80007f8:	f00e 4100 	and.w	r1, lr, #2147483648	; 0x80000000
 80007fc:	429d      	cmp	r5, r3
 80007fe:	bf08      	it	eq
 8000800:	4296      	cmpeq	r6, r2
 8000802:	f144 04fd 	adc.w	r4, r4, #253	; 0xfd
 8000806:	f504 7440 	add.w	r4, r4, #768	; 0x300
 800080a:	d202      	bcs.n	8000812 <__aeabi_ddiv+0x6e>
 800080c:	085b      	lsrs	r3, r3, #1
 800080e:	ea4f 0232 	mov.w	r2, r2, rrx
 8000812:	1ab6      	subs	r6, r6, r2
 8000814:	eb65 0503 	sbc.w	r5, r5, r3
 8000818:	085b      	lsrs	r3, r3, #1
 800081a:	ea4f 0232 	mov.w	r2, r2, rrx
 800081e:	f44f 1080 	mov.w	r0, #1048576	; 0x100000
 8000822:	f44f 2c00 	mov.w	ip, #524288	; 0x80000
 8000826:	ebb6 0e02 	subs.w	lr, r6, r2
 800082a:	eb75 0e03 	sbcs.w	lr, r5, r3
 800082e:	bf22      	ittt	cs
 8000830:	1ab6      	subcs	r6, r6, r2
 8000832:	4675      	movcs	r5, lr
 8000834:	ea40 000c 	orrcs.w	r0, r0, ip
 8000838:	085b      	lsrs	r3, r3, #1
 800083a:	ea4f 0232 	mov.w	r2, r2, rrx
 800083e:	ebb6 0e02 	subs.w	lr, r6, r2
 8000842:	eb75 0e03 	sbcs.w	lr, r5, r3
 8000846:	bf22      	ittt	cs
 8000848:	1ab6      	subcs	r6, r6, r2
 800084a:	4675      	movcs	r5, lr
 800084c:	ea40 005c 	orrcs.w	r0, r0, ip, lsr #1
 8000850:	085b      	lsrs	r3, r3, #1
 8000852:	ea4f 0232 	mov.w	r2, r2, rrx
 8000856:	ebb6 0e02 	subs.w	lr, r6, r2
 800085a:	eb75 0e03 	sbcs.w	lr, r5, r3
 800085e:	bf22      	ittt	cs
 8000860:	1ab6      	subcs	r6, r6, r2
 8000862:	4675      	movcs	r5, lr
 8000864:	ea40 009c 	orrcs.w	r0, r0, ip, lsr #2
 8000868:	085b      	lsrs	r3, r3, #1
 800086a:	ea4f 0232 	mov.w	r2, r2, rrx
 800086e:	ebb6 0e02 	subs.w	lr, r6, r2
 8000872:	eb75 0e03 	sbcs.w	lr, r5, r3
 8000876:	bf22      	ittt	cs
 8000878:	1ab6      	subcs	r6, r6, r2
 800087a:	4675      	movcs	r5, lr
 800087c:	ea40 00dc 	orrcs.w	r0, r0, ip, lsr #3
 8000880:	ea55 0e06 	orrs.w	lr, r5, r6
 8000884:	d018      	beq.n	80008b8 <__aeabi_ddiv+0x114>
 8000886:	ea4f 1505 	mov.w	r5, r5, lsl #4
 800088a:	ea45 7516 	orr.w	r5, r5, r6, lsr #28
 800088e:	ea4f 1606 	mov.w	r6, r6, lsl #4
 8000892:	ea4f 03c3 	mov.w	r3, r3, lsl #3
 8000896:	ea43 7352 	orr.w	r3, r3, r2, lsr #29
 800089a:	ea4f 02c2 	mov.w	r2, r2, lsl #3
 800089e:	ea5f 1c1c 	movs.w	ip, ip, lsr #4
 80008a2:	d1c0      	bne.n	8000826 <__aeabi_ddiv+0x82>
 80008a4:	f411 1f80 	tst.w	r1, #1048576	; 0x100000
 80008a8:	d10b      	bne.n	80008c2 <__aeabi_ddiv+0x11e>
 80008aa:	ea41 0100 	orr.w	r1, r1, r0
 80008ae:	f04f 0000 	mov.w	r0, #0
 80008b2:	f04f 4c00 	mov.w	ip, #2147483648	; 0x80000000
 80008b6:	e7b6      	b.n	8000826 <__aeabi_ddiv+0x82>
 80008b8:	f411 1f80 	tst.w	r1, #1048576	; 0x100000
 80008bc:	bf04      	itt	eq
 80008be:	4301      	orreq	r1, r0
 80008c0:	2000      	moveq	r0, #0
 80008c2:	f1b4 0cfd 	subs.w	ip, r4, #253	; 0xfd
 80008c6:	bf88      	it	hi
 80008c8:	f5bc 6fe0 	cmphi.w	ip, #1792	; 0x700
 80008cc:	f63f aeaf 	bhi.w	800062e <__aeabi_dmul+0xde>
 80008d0:	ebb5 0c03 	subs.w	ip, r5, r3
 80008d4:	bf04      	itt	eq
 80008d6:	ebb6 0c02 	subseq.w	ip, r6, r2
 80008da:	ea5f 0c50 	movseq.w	ip, r0, lsr #1
 80008de:	f150 0000 	adcs.w	r0, r0, #0
 80008e2:	eb41 5104 	adc.w	r1, r1, r4, lsl #20
 80008e6:	bd70      	pop	{r4, r5, r6, pc}
 80008e8:	f00e 4e00 	and.w	lr, lr, #2147483648	; 0x80000000
 80008ec:	ea4e 3111 	orr.w	r1, lr, r1, lsr #12
 80008f0:	eb14 045c 	adds.w	r4, r4, ip, lsr #1
 80008f4:	bfc2      	ittt	gt
 80008f6:	ebd4 050c 	rsbsgt	r5, r4, ip
 80008fa:	ea41 5104 	orrgt.w	r1, r1, r4, lsl #20
 80008fe:	bd70      	popgt	{r4, r5, r6, pc}
 8000900:	f441 1180 	orr.w	r1, r1, #1048576	; 0x100000
 8000904:	f04f 0e00 	mov.w	lr, #0
 8000908:	3c01      	subs	r4, #1
 800090a:	e690      	b.n	800062e <__aeabi_dmul+0xde>
 800090c:	ea45 0e06 	orr.w	lr, r5, r6
 8000910:	e68d      	b.n	800062e <__aeabi_dmul+0xde>
 8000912:	ea0c 5513 	and.w	r5, ip, r3, lsr #20
 8000916:	ea94 0f0c 	teq	r4, ip
 800091a:	bf08      	it	eq
 800091c:	ea95 0f0c 	teqeq	r5, ip
 8000920:	f43f af3b 	beq.w	800079a <__aeabi_dmul+0x24a>
 8000924:	ea94 0f0c 	teq	r4, ip
 8000928:	d10a      	bne.n	8000940 <__aeabi_ddiv+0x19c>
 800092a:	ea50 3401 	orrs.w	r4, r0, r1, lsl #12
 800092e:	f47f af34 	bne.w	800079a <__aeabi_dmul+0x24a>
 8000932:	ea95 0f0c 	teq	r5, ip
 8000936:	f47f af25 	bne.w	8000784 <__aeabi_dmul+0x234>
 800093a:	4610      	mov	r0, r2
 800093c:	4619      	mov	r1, r3
 800093e:	e72c      	b.n	800079a <__aeabi_dmul+0x24a>
 8000940:	ea95 0f0c 	teq	r5, ip
 8000944:	d106      	bne.n	8000954 <__aeabi_ddiv+0x1b0>
 8000946:	ea52 3503 	orrs.w	r5, r2, r3, lsl #12
 800094a:	f43f aefd 	beq.w	8000748 <__aeabi_dmul+0x1f8>
 800094e:	4610      	mov	r0, r2
 8000950:	4619      	mov	r1, r3
 8000952:	e722      	b.n	800079a <__aeabi_dmul+0x24a>
 8000954:	ea50 0641 	orrs.w	r6, r0, r1, lsl #1
 8000958:	bf18      	it	ne
 800095a:	ea52 0643 	orrsne.w	r6, r2, r3, lsl #1
 800095e:	f47f aec5 	bne.w	80006ec <__aeabi_dmul+0x19c>
 8000962:	ea50 0441 	orrs.w	r4, r0, r1, lsl #1
 8000966:	f47f af0d 	bne.w	8000784 <__aeabi_dmul+0x234>
 800096a:	ea52 0543 	orrs.w	r5, r2, r3, lsl #1
 800096e:	f47f aeeb 	bne.w	8000748 <__aeabi_dmul+0x1f8>
 8000972:	e712      	b.n	800079a <__aeabi_dmul+0x24a>

08000974 <__gedf2>:
 8000974:	f04f 3cff 	mov.w	ip, #4294967295
 8000978:	e006      	b.n	8000988 <__cmpdf2+0x4>
 800097a:	bf00      	nop

0800097c <__ledf2>:
 800097c:	f04f 0c01 	mov.w	ip, #1
 8000980:	e002      	b.n	8000988 <__cmpdf2+0x4>
 8000982:	bf00      	nop

08000984 <__cmpdf2>:
 8000984:	f04f 0c01 	mov.w	ip, #1
 8000988:	f84d cd04 	str.w	ip, [sp, #-4]!
 800098c:	ea4f 0c41 	mov.w	ip, r1, lsl #1
 8000990:	ea7f 5c6c 	mvns.w	ip, ip, asr #21
 8000994:	ea4f 0c43 	mov.w	ip, r3, lsl #1
 8000998:	bf18      	it	ne
 800099a:	ea7f 5c6c 	mvnsne.w	ip, ip, asr #21
 800099e:	d01b      	beq.n	80009d8 <__cmpdf2+0x54>
 80009a0:	b001      	add	sp, #4
 80009a2:	ea50 0c41 	orrs.w	ip, r0, r1, lsl #1
 80009a6:	bf0c      	ite	eq
 80009a8:	ea52 0c43 	orrseq.w	ip, r2, r3, lsl #1
 80009ac:	ea91 0f03 	teqne	r1, r3
 80009b0:	bf02      	ittt	eq
 80009b2:	ea90 0f02 	teqeq	r0, r2
 80009b6:	2000      	moveq	r0, #0
 80009b8:	4770      	bxeq	lr
 80009ba:	f110 0f00 	cmn.w	r0, #0
 80009be:	ea91 0f03 	teq	r1, r3
 80009c2:	bf58      	it	pl
 80009c4:	4299      	cmppl	r1, r3
 80009c6:	bf08      	it	eq
 80009c8:	4290      	cmpeq	r0, r2
 80009ca:	bf2c      	ite	cs
 80009cc:	17d8      	asrcs	r0, r3, #31
 80009ce:	ea6f 70e3 	mvncc.w	r0, r3, asr #31
 80009d2:	f040 0001 	orr.w	r0, r0, #1
 80009d6:	4770      	bx	lr
 80009d8:	ea4f 0c41 	mov.w	ip, r1, lsl #1
 80009dc:	ea7f 5c6c 	mvns.w	ip, ip, asr #21
 80009e0:	d102      	bne.n	80009e8 <__cmpdf2+0x64>
 80009e2:	ea50 3c01 	orrs.w	ip, r0, r1, lsl #12
 80009e6:	d107      	bne.n	80009f8 <__cmpdf2+0x74>
 80009e8:	ea4f 0c43 	mov.w	ip, r3, lsl #1
 80009ec:	ea7f 5c6c 	mvns.w	ip, ip, asr #21
 80009f0:	d1d6      	bne.n	80009a0 <__cmpdf2+0x1c>
 80009f2:	ea52 3c03 	orrs.w	ip, r2, r3, lsl #12
 80009f6:	d0d3      	beq.n	80009a0 <__cmpdf2+0x1c>
 80009f8:	f85d 0b04 	ldr.w	r0, [sp], #4
 80009fc:	4770      	bx	lr
 80009fe:	bf00      	nop

08000a00 <__aeabi_cdrcmple>:
 8000a00:	4684      	mov	ip, r0
 8000a02:	4610      	mov	r0, r2
 8000a04:	4662      	mov	r2, ip
 8000a06:	468c      	mov	ip, r1
 8000a08:	4619      	mov	r1, r3
 8000a0a:	4663      	mov	r3, ip
 8000a0c:	e000      	b.n	8000a10 <__aeabi_cdcmpeq>
 8000a0e:	bf00      	nop

08000a10 <__aeabi_cdcmpeq>:
 8000a10:	b501      	push	{r0, lr}
 8000a12:	f7ff ffb7 	bl	8000984 <__cmpdf2>
 8000a16:	2800      	cmp	r0, #0
 8000a18:	bf48      	it	mi
 8000a1a:	f110 0f00 	cmnmi.w	r0, #0
 8000a1e:	bd01      	pop	{r0, pc}

08000a20 <__aeabi_dcmpeq>:
 8000a20:	f84d ed08 	str.w	lr, [sp, #-8]!
 8000a24:	f7ff fff4 	bl	8000a10 <__aeabi_cdcmpeq>
 8000a28:	bf0c      	ite	eq
 8000a2a:	2001      	moveq	r0, #1
 8000a2c:	2000      	movne	r0, #0
 8000a2e:	f85d fb08 	ldr.w	pc, [sp], #8
 8000a32:	bf00      	nop

08000a34 <__aeabi_dcmplt>:
 8000a34:	f84d ed08 	str.w	lr, [sp, #-8]!
 8000a38:	f7ff ffea 	bl	8000a10 <__aeabi_cdcmpeq>
 8000a3c:	bf34      	ite	cc
 8000a3e:	2001      	movcc	r0, #1
 8000a40:	2000      	movcs	r0, #0
 8000a42:	f85d fb08 	ldr.w	pc, [sp], #8
 8000a46:	bf00      	nop

08000a48 <__aeabi_dcmple>:
 8000a48:	f84d ed08 	str.w	lr, [sp, #-8]!
 8000a4c:	f7ff ffe0 	bl	8000a10 <__aeabi_cdcmpeq>
 8000a50:	bf94      	ite	ls
 8000a52:	2001      	movls	r0, #1
 8000a54:	2000      	movhi	r0, #0
 8000a56:	f85d fb08 	ldr.w	pc, [sp], #8
 8000a5a:	bf00      	nop

08000a5c <__aeabi_dcmpge>:
 8000a5c:	f84d ed08 	str.w	lr, [sp, #-8]!
 8000a60:	f7ff ffce 	bl	8000a00 <__aeabi_cdrcmple>
 8000a64:	bf94      	ite	ls
 8000a66:	2001      	movls	r0, #1
 8000a68:	2000      	movhi	r0, #0
 8000a6a:	f85d fb08 	ldr.w	pc, [sp], #8
 8000a6e:	bf00      	nop

08000a70 <__aeabi_dcmpgt>:
 8000a70:	f84d ed08 	str.w	lr, [sp, #-8]!
 8000a74:	f7ff ffc4 	bl	8000a00 <__aeabi_cdrcmple>
 8000a78:	bf34      	ite	cc
 8000a7a:	2001      	movcc	r0, #1
 8000a7c:	2000      	movcs	r0, #0
 8000a7e:	f85d fb08 	ldr.w	pc, [sp], #8
 8000a82:	bf00      	nop

08000a84 <__aeabi_dcmpun>:
 8000a84:	ea4f 0c41 	mov.w	ip, r1, lsl #1
 8000a88:	ea7f 5c6c 	mvns.w	ip, ip, asr #21
 8000a8c:	d102      	bne.n	8000a94 <__aeabi_dcmpun+0x10>
 8000a8e:	ea50 3c01 	orrs.w	ip, r0, r1, lsl #12
 8000a92:	d10a      	bne.n	8000aaa <__aeabi_dcmpun+0x26>
 8000a94:	ea4f 0c43 	mov.w	ip, r3, lsl #1
 8000a98:	ea7f 5c6c 	mvns.w	ip, ip, asr #21
 8000a9c:	d102      	bne.n	8000aa4 <__aeabi_dcmpun+0x20>
 8000a9e:	ea52 3c03 	orrs.w	ip, r2, r3, lsl #12
 8000aa2:	d102      	bne.n	8000aaa <__aeabi_dcmpun+0x26>
 8000aa4:	f04f 0000 	mov.w	r0, #0
 8000aa8:	4770      	bx	lr
 8000aaa:	f04f 0001 	mov.w	r0, #1
 8000aae:	4770      	bx	lr

08000ab0 <__aeabi_d2uiz>:
 8000ab0:	004a      	lsls	r2, r1, #1
 8000ab2:	d211      	bcs.n	8000ad8 <__aeabi_d2uiz+0x28>
 8000ab4:	f512 1200 	adds.w	r2, r2, #2097152	; 0x200000
 8000ab8:	d211      	bcs.n	8000ade <__aeabi_d2uiz+0x2e>
 8000aba:	d50d      	bpl.n	8000ad8 <__aeabi_d2uiz+0x28>
 8000abc:	f46f 7378 	mvn.w	r3, #992	; 0x3e0
 8000ac0:	ebb3 5262 	subs.w	r2, r3, r2, asr #21
 8000ac4:	d40e      	bmi.n	8000ae4 <__aeabi_d2uiz+0x34>
 8000ac6:	ea4f 23c1 	mov.w	r3, r1, lsl #11
 8000aca:	f043 4300 	orr.w	r3, r3, #2147483648	; 0x80000000
 8000ace:	ea43 5350 	orr.w	r3, r3, r0, lsr #21
 8000ad2:	fa23 f002 	lsr.w	r0, r3, r2
 8000ad6:	4770      	bx	lr
 8000ad8:	f04f 0000 	mov.w	r0, #0
 8000adc:	4770      	bx	lr
 8000ade:	ea50 3001 	orrs.w	r0, r0, r1, lsl #12
 8000ae2:	d102      	bne.n	8000aea <__aeabi_d2uiz+0x3a>
 8000ae4:	f04f 30ff 	mov.w	r0, #4294967295
 8000ae8:	4770      	bx	lr
 8000aea:	f04f 0000 	mov.w	r0, #0
 8000aee:	4770      	bx	lr

08000af0 <__aeabi_uldivmod>:
 8000af0:	b953      	cbnz	r3, 8000b08 <__aeabi_uldivmod+0x18>
 8000af2:	b94a      	cbnz	r2, 8000b08 <__aeabi_uldivmod+0x18>
 8000af4:	2900      	cmp	r1, #0
 8000af6:	bf08      	it	eq
 8000af8:	2800      	cmpeq	r0, #0
 8000afa:	bf1c      	itt	ne
 8000afc:	f04f 31ff 	movne.w	r1, #4294967295
 8000b00:	f04f 30ff 	movne.w	r0, #4294967295
 8000b04:	f000 b972 	b.w	8000dec <__aeabi_idiv0>
 8000b08:	f1ad 0c08 	sub.w	ip, sp, #8
 8000b0c:	e96d ce04 	strd	ip, lr, [sp, #-16]!
 8000b10:	f000 f806 	bl	8000b20 <__udivmoddi4>
 8000b14:	f8dd e004 	ldr.w	lr, [sp, #4]
 8000b18:	e9dd 2302 	ldrd	r2, r3, [sp, #8]
 8000b1c:	b004      	add	sp, #16
 8000b1e:	4770      	bx	lr

08000b20 <__udivmoddi4>:
 8000b20:	e92d 47f0 	stmdb	sp!, {r4, r5, r6, r7, r8, r9, sl, lr}
 8000b24:	9e08      	ldr	r6, [sp, #32]
 8000b26:	4604      	mov	r4, r0
 8000b28:	4688      	mov	r8, r1
 8000b2a:	2b00      	cmp	r3, #0
 8000b2c:	d14b      	bne.n	8000bc6 <__udivmoddi4+0xa6>
 8000b2e:	428a      	cmp	r2, r1
 8000b30:	4615      	mov	r5, r2
 8000b32:	d967      	bls.n	8000c04 <__udivmoddi4+0xe4>
 8000b34:	fab2 f282 	clz	r2, r2
 8000b38:	b14a      	cbz	r2, 8000b4e <__udivmoddi4+0x2e>
 8000b3a:	f1c2 0720 	rsb	r7, r2, #32
 8000b3e:	fa01 f302 	lsl.w	r3, r1, r2
 8000b42:	fa20 f707 	lsr.w	r7, r0, r7
 8000b46:	4095      	lsls	r5, r2
 8000b48:	ea47 0803 	orr.w	r8, r7, r3
 8000b4c:	4094      	lsls	r4, r2
 8000b4e:	ea4f 4e15 	mov.w	lr, r5, lsr #16
 8000b52:	0c23      	lsrs	r3, r4, #16
 8000b54:	fbb8 f7fe 	udiv	r7, r8, lr
 8000b58:	fa1f fc85 	uxth.w	ip, r5
 8000b5c:	fb0e 8817 	mls	r8, lr, r7, r8
 8000b60:	ea43 4308 	orr.w	r3, r3, r8, lsl #16
 8000b64:	fb07 f10c 	mul.w	r1, r7, ip
 8000b68:	4299      	cmp	r1, r3
 8000b6a:	d909      	bls.n	8000b80 <__udivmoddi4+0x60>
 8000b6c:	18eb      	adds	r3, r5, r3
 8000b6e:	f107 30ff 	add.w	r0, r7, #4294967295
 8000b72:	f080 811b 	bcs.w	8000dac <__udivmoddi4+0x28c>
 8000b76:	4299      	cmp	r1, r3
 8000b78:	f240 8118 	bls.w	8000dac <__udivmoddi4+0x28c>
 8000b7c:	3f02      	subs	r7, #2
 8000b7e:	442b      	add	r3, r5
 8000b80:	1a5b      	subs	r3, r3, r1
 8000b82:	b2a4      	uxth	r4, r4
 8000b84:	fbb3 f0fe 	udiv	r0, r3, lr
 8000b88:	fb0e 3310 	mls	r3, lr, r0, r3
 8000b8c:	ea44 4403 	orr.w	r4, r4, r3, lsl #16
 8000b90:	fb00 fc0c 	mul.w	ip, r0, ip
 8000b94:	45a4      	cmp	ip, r4
 8000b96:	d909      	bls.n	8000bac <__udivmoddi4+0x8c>
 8000b98:	192c      	adds	r4, r5, r4
 8000b9a:	f100 33ff 	add.w	r3, r0, #4294967295
 8000b9e:	f080 8107 	bcs.w	8000db0 <__udivmoddi4+0x290>
 8000ba2:	45a4      	cmp	ip, r4
 8000ba4:	f240 8104 	bls.w	8000db0 <__udivmoddi4+0x290>
 8000ba8:	3802      	subs	r0, #2
 8000baa:	442c      	add	r4, r5
 8000bac:	ea40 4007 	orr.w	r0, r0, r7, lsl #16
 8000bb0:	eba4 040c 	sub.w	r4, r4, ip
 8000bb4:	2700      	movs	r7, #0
 8000bb6:	b11e      	cbz	r6, 8000bc0 <__udivmoddi4+0xa0>
 8000bb8:	40d4      	lsrs	r4, r2
 8000bba:	2300      	movs	r3, #0
 8000bbc:	e9c6 4300 	strd	r4, r3, [r6]
 8000bc0:	4639      	mov	r1, r7
 8000bc2:	e8bd 87f0 	ldmia.w	sp!, {r4, r5, r6, r7, r8, r9, sl, pc}
 8000bc6:	428b      	cmp	r3, r1
 8000bc8:	d909      	bls.n	8000bde <__udivmoddi4+0xbe>
 8000bca:	2e00      	cmp	r6, #0
 8000bcc:	f000 80eb 	beq.w	8000da6 <__udivmoddi4+0x286>
 8000bd0:	2700      	movs	r7, #0
 8000bd2:	e9c6 0100 	strd	r0, r1, [r6]
 8000bd6:	4638      	mov	r0, r7
 8000bd8:	4639      	mov	r1, r7
 8000bda:	e8bd 87f0 	ldmia.w	sp!, {r4, r5, r6, r7, r8, r9, sl, pc}
 8000bde:	fab3 f783 	clz	r7, r3
 8000be2:	2f00      	cmp	r7, #0
 8000be4:	d147      	bne.n	8000c76 <__udivmoddi4+0x156>
 8000be6:	428b      	cmp	r3, r1
 8000be8:	d302      	bcc.n	8000bf0 <__udivmoddi4+0xd0>
 8000bea:	4282      	cmp	r2, r0
 8000bec:	f200 80fa 	bhi.w	8000de4 <__udivmoddi4+0x2c4>
 8000bf0:	1a84      	subs	r4, r0, r2
 8000bf2:	eb61 0303 	sbc.w	r3, r1, r3
 8000bf6:	2001      	movs	r0, #1
 8000bf8:	4698      	mov	r8, r3
 8000bfa:	2e00      	cmp	r6, #0
 8000bfc:	d0e0      	beq.n	8000bc0 <__udivmoddi4+0xa0>
 8000bfe:	e9c6 4800 	strd	r4, r8, [r6]
 8000c02:	e7dd      	b.n	8000bc0 <__udivmoddi4+0xa0>
 8000c04:	b902      	cbnz	r2, 8000c08 <__udivmoddi4+0xe8>
 8000c06:	deff      	udf	#255	; 0xff
 8000c08:	fab2 f282 	clz	r2, r2
 8000c0c:	2a00      	cmp	r2, #0
 8000c0e:	f040 808f 	bne.w	8000d30 <__udivmoddi4+0x210>
 8000c12:	1b49      	subs	r1, r1, r5
 8000c14:	ea4f 4e15 	mov.w	lr, r5, lsr #16
 8000c18:	fa1f f885 	uxth.w	r8, r5
 8000c1c:	2701      	movs	r7, #1
 8000c1e:	fbb1 fcfe 	udiv	ip, r1, lr
 8000c22:	0c23      	lsrs	r3, r4, #16
 8000c24:	fb0e 111c 	mls	r1, lr, ip, r1
 8000c28:	ea43 4301 	orr.w	r3, r3, r1, lsl #16
 8000c2c:	fb08 f10c 	mul.w	r1, r8, ip
 8000c30:	4299      	cmp	r1, r3
 8000c32:	d907      	bls.n	8000c44 <__udivmoddi4+0x124>
 8000c34:	18eb      	adds	r3, r5, r3
 8000c36:	f10c 30ff 	add.w	r0, ip, #4294967295
 8000c3a:	d202      	bcs.n	8000c42 <__udivmoddi4+0x122>
 8000c3c:	4299      	cmp	r1, r3
 8000c3e:	f200 80cd 	bhi.w	8000ddc <__udivmoddi4+0x2bc>
 8000c42:	4684      	mov	ip, r0
 8000c44:	1a59      	subs	r1, r3, r1
 8000c46:	b2a3      	uxth	r3, r4
 8000c48:	fbb1 f0fe 	udiv	r0, r1, lr
 8000c4c:	fb0e 1410 	mls	r4, lr, r0, r1
 8000c50:	ea43 4404 	orr.w	r4, r3, r4, lsl #16
 8000c54:	fb08 f800 	mul.w	r8, r8, r0
 8000c58:	45a0      	cmp	r8, r4
 8000c5a:	d907      	bls.n	8000c6c <__udivmoddi4+0x14c>
 8000c5c:	192c      	adds	r4, r5, r4
 8000c5e:	f100 33ff 	add.w	r3, r0, #4294967295
 8000c62:	d202      	bcs.n	8000c6a <__udivmoddi4+0x14a>
 8000c64:	45a0      	cmp	r8, r4
 8000c66:	f200 80b6 	bhi.w	8000dd6 <__udivmoddi4+0x2b6>
 8000c6a:	4618      	mov	r0, r3
 8000c6c:	eba4 0408 	sub.w	r4, r4, r8
 8000c70:	ea40 400c 	orr.w	r0, r0, ip, lsl #16
 8000c74:	e79f      	b.n	8000bb6 <__udivmoddi4+0x96>
 8000c76:	f1c7 0c20 	rsb	ip, r7, #32
 8000c7a:	40bb      	lsls	r3, r7
 8000c7c:	fa22 fe0c 	lsr.w	lr, r2, ip
 8000c80:	ea4e 0e03 	orr.w	lr, lr, r3
 8000c84:	fa01 f407 	lsl.w	r4, r1, r7
 8000c88:	fa20 f50c 	lsr.w	r5, r0, ip
 8000c8c:	fa21 f30c 	lsr.w	r3, r1, ip
 8000c90:	ea4f 481e 	mov.w	r8, lr, lsr #16
 8000c94:	4325      	orrs	r5, r4
 8000c96:	fbb3 f9f8 	udiv	r9, r3, r8
 8000c9a:	0c2c      	lsrs	r4, r5, #16
 8000c9c:	fb08 3319 	mls	r3, r8, r9, r3
 8000ca0:	fa1f fa8e 	uxth.w	sl, lr
 8000ca4:	ea44 4303 	orr.w	r3, r4, r3, lsl #16
 8000ca8:	fb09 f40a 	mul.w	r4, r9, sl
 8000cac:	429c      	cmp	r4, r3
 8000cae:	fa02 f207 	lsl.w	r2, r2, r7
 8000cb2:	fa00 f107 	lsl.w	r1, r0, r7
 8000cb6:	d90b      	bls.n	8000cd0 <__udivmoddi4+0x1b0>
 8000cb8:	eb1e 0303 	adds.w	r3, lr, r3
 8000cbc:	f109 30ff 	add.w	r0, r9, #4294967295
 8000cc0:	f080 8087 	bcs.w	8000dd2 <__udivmoddi4+0x2b2>
 8000cc4:	429c      	cmp	r4, r3
 8000cc6:	f240 8084 	bls.w	8000dd2 <__udivmoddi4+0x2b2>
 8000cca:	f1a9 0902 	sub.w	r9, r9, #2
 8000cce:	4473      	add	r3, lr
 8000cd0:	1b1b      	subs	r3, r3, r4
 8000cd2:	b2ad      	uxth	r5, r5
 8000cd4:	fbb3 f0f8 	udiv	r0, r3, r8
 8000cd8:	fb08 3310 	mls	r3, r8, r0, r3
 8000cdc:	ea45 4403 	orr.w	r4, r5, r3, lsl #16
 8000ce0:	fb00 fa0a 	mul.w	sl, r0, sl
 8000ce4:	45a2      	cmp	sl, r4
 8000ce6:	d908      	bls.n	8000cfa <__udivmoddi4+0x1da>
 8000ce8:	eb1e 0404 	adds.w	r4, lr, r4
 8000cec:	f100 33ff 	add.w	r3, r0, #4294967295
 8000cf0:	d26b      	bcs.n	8000dca <__udivmoddi4+0x2aa>
 8000cf2:	45a2      	cmp	sl, r4
 8000cf4:	d969      	bls.n	8000dca <__udivmoddi4+0x2aa>
 8000cf6:	3802      	subs	r0, #2
 8000cf8:	4474      	add	r4, lr
 8000cfa:	ea40 4009 	orr.w	r0, r0, r9, lsl #16
 8000cfe:	fba0 8902 	umull	r8, r9, r0, r2
 8000d02:	eba4 040a 	sub.w	r4, r4, sl
 8000d06:	454c      	cmp	r4, r9
 8000d08:	46c2      	mov	sl, r8
 8000d0a:	464b      	mov	r3, r9
 8000d0c:	d354      	bcc.n	8000db8 <__udivmoddi4+0x298>
 8000d0e:	d051      	beq.n	8000db4 <__udivmoddi4+0x294>
 8000d10:	2e00      	cmp	r6, #0
 8000d12:	d069      	beq.n	8000de8 <__udivmoddi4+0x2c8>
 8000d14:	ebb1 050a 	subs.w	r5, r1, sl
 8000d18:	eb64 0403 	sbc.w	r4, r4, r3
 8000d1c:	fa04 fc0c 	lsl.w	ip, r4, ip
 8000d20:	40fd      	lsrs	r5, r7
 8000d22:	40fc      	lsrs	r4, r7
 8000d24:	ea4c 0505 	orr.w	r5, ip, r5
 8000d28:	e9c6 5400 	strd	r5, r4, [r6]
 8000d2c:	2700      	movs	r7, #0
 8000d2e:	e747      	b.n	8000bc0 <__udivmoddi4+0xa0>
 8000d30:	f1c2 0320 	rsb	r3, r2, #32
 8000d34:	fa20 f703 	lsr.w	r7, r0, r3
 8000d38:	4095      	lsls	r5, r2
 8000d3a:	fa01 f002 	lsl.w	r0, r1, r2
 8000d3e:	fa21 f303 	lsr.w	r3, r1, r3
 8000d42:	ea4f 4e15 	mov.w	lr, r5, lsr #16
 8000d46:	4338      	orrs	r0, r7
 8000d48:	0c01      	lsrs	r1, r0, #16
 8000d4a:	fbb3 f7fe 	udiv	r7, r3, lr
 8000d4e:	fa1f f885 	uxth.w	r8, r5
 8000d52:	fb0e 3317 	mls	r3, lr, r7, r3
 8000d56:	ea41 4103 	orr.w	r1, r1, r3, lsl #16
 8000d5a:	fb07 f308 	mul.w	r3, r7, r8
 8000d5e:	428b      	cmp	r3, r1
 8000d60:	fa04 f402 	lsl.w	r4, r4, r2
 8000d64:	d907      	bls.n	8000d76 <__udivmoddi4+0x256>
 8000d66:	1869      	adds	r1, r5, r1
 8000d68:	f107 3cff 	add.w	ip, r7, #4294967295
 8000d6c:	d22f      	bcs.n	8000dce <__udivmoddi4+0x2ae>
 8000d6e:	428b      	cmp	r3, r1
 8000d70:	d92d      	bls.n	8000dce <__udivmoddi4+0x2ae>
 8000d72:	3f02      	subs	r7, #2
 8000d74:	4429      	add	r1, r5
 8000d76:	1acb      	subs	r3, r1, r3
 8000d78:	b281      	uxth	r1, r0
 8000d7a:	fbb3 f0fe 	udiv	r0, r3, lr
 8000d7e:	fb0e 3310 	mls	r3, lr, r0, r3
 8000d82:	ea41 4103 	orr.w	r1, r1, r3, lsl #16
 8000d86:	fb00 f308 	mul.w	r3, r0, r8
 8000d8a:	428b      	cmp	r3, r1
 8000d8c:	d907      	bls.n	8000d9e <__udivmoddi4+0x27e>
 8000d8e:	1869      	adds	r1, r5, r1
 8000d90:	f100 3cff 	add.w	ip, r0, #4294967295
 8000d94:	d217      	bcs.n	8000dc6 <__udivmoddi4+0x2a6>
 8000d96:	428b      	cmp	r3, r1
 8000d98:	d915      	bls.n	8000dc6 <__udivmoddi4+0x2a6>
 8000d9a:	3802      	subs	r0, #2
 8000d9c:	4429      	add	r1, r5
 8000d9e:	1ac9      	subs	r1, r1, r3
 8000da0:	ea40 4707 	orr.w	r7, r0, r7, lsl #16
 8000da4:	e73b      	b.n	8000c1e <__udivmoddi4+0xfe>
 8000da6:	4637      	mov	r7, r6
 8000da8:	4630      	mov	r0, r6
 8000daa:	e709      	b.n	8000bc0 <__udivmoddi4+0xa0>
 8000dac:	4607      	mov	r7, r0
 8000dae:	e6e7      	b.n	8000b80 <__udivmoddi4+0x60>
 8000db0:	4618      	mov	r0, r3
 8000db2:	e6fb      	b.n	8000bac <__udivmoddi4+0x8c>
 8000db4:	4541      	cmp	r1, r8
 8000db6:	d2ab      	bcs.n	8000d10 <__udivmoddi4+0x1f0>
 8000db8:	ebb8 0a02 	subs.w	sl, r8, r2
 8000dbc:	eb69 020e 	sbc.w	r2, r9, lr
 8000dc0:	3801      	subs	r0, #1
 8000dc2:	4613      	mov	r3, r2
 8000dc4:	e7a4      	b.n	8000d10 <__udivmoddi4+0x1f0>
 8000dc6:	4660      	mov	r0, ip
 8000dc8:	e7e9      	b.n	8000d9e <__udivmoddi4+0x27e>
 8000dca:	4618      	mov	r0, r3
 8000dcc:	e795      	b.n	8000cfa <__udivmoddi4+0x1da>
 8000dce:	4667      	mov	r7, ip
 8000dd0:	e7d1      	b.n	8000d76 <__udivmoddi4+0x256>
 8000dd2:	4681      	mov	r9, r0
 8000dd4:	e77c      	b.n	8000cd0 <__udivmoddi4+0x1b0>
 8000dd6:	3802      	subs	r0, #2
 8000dd8:	442c      	add	r4, r5
 8000dda:	e747      	b.n	8000c6c <__udivmoddi4+0x14c>
 8000ddc:	f1ac 0c02 	sub.w	ip, ip, #2
 8000de0:	442b      	add	r3, r5
 8000de2:	e72f      	b.n	8000c44 <__udivmoddi4+0x124>
 8000de4:	4638      	mov	r0, r7
 8000de6:	e708      	b.n	8000bfa <__udivmoddi4+0xda>
 8000de8:	4637      	mov	r7, r6
 8000dea:	e6e9      	b.n	8000bc0 <__udivmoddi4+0xa0>

08000dec <__aeabi_idiv0>:
 8000dec:	4770      	bx	lr
 8000dee:	bf00      	nop

08000df0 <MX_DMA_Init>:
 8000df0:	b580      	push	{r7, lr}
 8000df2:	b082      	sub	sp, #8
 8000df4:	af00      	add	r7, sp, #0
 8000df6:	2300      	movs	r3, #0
 8000df8:	607b      	str	r3, [r7, #4]
 8000dfa:	4b18      	ldr	r3, [pc, #96]	; (8000e5c <MX_DMA_Init+0x6c>)
 8000dfc:	6b1b      	ldr	r3, [r3, #48]	; 0x30
 8000dfe:	4a17      	ldr	r2, [pc, #92]	; (8000e5c <MX_DMA_Init+0x6c>)
 8000e00:	f443 1300 	orr.w	r3, r3, #2097152	; 0x200000
 8000e04:	6313      	str	r3, [r2, #48]	; 0x30
 8000e06:	4b15      	ldr	r3, [pc, #84]	; (8000e5c <MX_DMA_Init+0x6c>)
 8000e08:	6b1b      	ldr	r3, [r3, #48]	; 0x30
 8000e0a:	f403 1300 	and.w	r3, r3, #2097152	; 0x200000
 8000e0e:	607b      	str	r3, [r7, #4]
 8000e10:	687b      	ldr	r3, [r7, #4]
 8000e12:	2200      	movs	r2, #0
 8000e14:	2100      	movs	r1, #0
 8000e16:	200c      	movs	r0, #12
 8000e18:	f001 fe25 	bl	8002a66 <HAL_NVIC_SetPriority>
 8000e1c:	200c      	movs	r0, #12
 8000e1e:	f001 fe3e 	bl	8002a9e <HAL_NVIC_EnableIRQ>
 8000e22:	2200      	movs	r2, #0
 8000e24:	2100      	movs	r1, #0
 8000e26:	200e      	movs	r0, #14
 8000e28:	f001 fe1d 	bl	8002a66 <HAL_NVIC_SetPriority>
 8000e2c:	200e      	movs	r0, #14
 8000e2e:	f001 fe36 	bl	8002a9e <HAL_NVIC_EnableIRQ>
 8000e32:	2200      	movs	r2, #0
 8000e34:	2100      	movs	r1, #0
 8000e36:	200f      	movs	r0, #15
 8000e38:	f001 fe15 	bl	8002a66 <HAL_NVIC_SetPriority>
 8000e3c:	200f      	movs	r0, #15
 8000e3e:	f001 fe2e 	bl	8002a9e <HAL_NVIC_EnableIRQ>
 8000e42:	2200      	movs	r2, #0
 8000e44:	2100      	movs	r1, #0
 8000e46:	2010      	movs	r0, #16
 8000e48:	f001 fe0d 	bl	8002a66 <HAL_NVIC_SetPriority>
 8000e4c:	2010      	movs	r0, #16
 8000e4e:	f001 fe26 	bl	8002a9e <HAL_NVIC_EnableIRQ>
 8000e52:	bf00      	nop
 8000e54:	3708      	adds	r7, #8
 8000e56:	46bd      	mov	sp, r7
 8000e58:	bd80      	pop	{r7, pc}
 8000e5a:	bf00      	nop
 8000e5c:	40023800 	.word	0x40023800

08000e60 <make_dshot600_frame>:
  // it have to send 0 value of dshot frame for a while to reset
  // regardless of RC receiver value
}

void make_dshot600_frame(dshot_frame *motor_x, throttle_a value)
{
 8000e60:	b480      	push	{r7}
 8000e62:	b089      	sub	sp, #36	; 0x24
 8000e64:	af00      	add	r7, sp, #0
 8000e66:	6078      	str	r0, [r7, #4]
 8000e68:	460b      	mov	r3, r1
 8000e6a:	807b      	strh	r3, [r7, #2]
  uint16_t packet = value << 1;
 8000e6c:	887b      	ldrh	r3, [r7, #2]
 8000e6e:	005b      	lsls	r3, r3, #1
 8000e70:	83fb      	strh	r3, [r7, #30]

  // compute checksum
  int csum = 0;
 8000e72:	2300      	movs	r3, #0
 8000e74:	61bb      	str	r3, [r7, #24]
  int csum_data = packet;
 8000e76:	8bfb      	ldrh	r3, [r7, #30]
 8000e78:	617b      	str	r3, [r7, #20]
  for (int i = 0; i < 3; i++) {
 8000e7a:	2300      	movs	r3, #0
 8000e7c:	613b      	str	r3, [r7, #16]
 8000e7e:	e009      	b.n	8000e94 <make_dshot600_frame+0x34>
    csum ^=  csum_data;   // xor data by nibbles
 8000e80:	69ba      	ldr	r2, [r7, #24]
 8000e82:	697b      	ldr	r3, [r7, #20]
 8000e84:	4053      	eors	r3, r2
 8000e86:	61bb      	str	r3, [r7, #24]
    csum_data >>= 4;
 8000e88:	697b      	ldr	r3, [r7, #20]
 8000e8a:	111b      	asrs	r3, r3, #4
 8000e8c:	617b      	str	r3, [r7, #20]
  for (int i = 0; i < 3; i++) {
 8000e8e:	693b      	ldr	r3, [r7, #16]
 8000e90:	3301      	adds	r3, #1
 8000e92:	613b      	str	r3, [r7, #16]
 8000e94:	693b      	ldr	r3, [r7, #16]
 8000e96:	2b02      	cmp	r3, #2
 8000e98:	ddf2      	ble.n	8000e80 <make_dshot600_frame+0x20>
  }
  csum &= 0xf;
 8000e9a:	69bb      	ldr	r3, [r7, #24]
 8000e9c:	f003 030f 	and.w	r3, r3, #15
 8000ea0:	61bb      	str	r3, [r7, #24]

  // append checksum
  packet = (packet << 4) | csum;
 8000ea2:	8bfb      	ldrh	r3, [r7, #30]
 8000ea4:	011b      	lsls	r3, r3, #4
 8000ea6:	b21a      	sxth	r2, r3
 8000ea8:	69bb      	ldr	r3, [r7, #24]
 8000eaa:	b21b      	sxth	r3, r3
 8000eac:	4313      	orrs	r3, r2
 8000eae:	b21b      	sxth	r3, r3
 8000eb0:	83fb      	strh	r3, [r7, #30]

  // encoding
  int i;
  for (i = 0; i < 16; i++)
 8000eb2:	2300      	movs	r3, #0
 8000eb4:	60fb      	str	r3, [r7, #12]
 8000eb6:	e011      	b.n	8000edc <make_dshot600_frame+0x7c>
  {
      motor_x[i] = (packet & 0x8000) ? MOTOR_BIT_1 : MOTOR_BIT_0;  // MSB first
 8000eb8:	f9b7 301e 	ldrsh.w	r3, [r7, #30]
 8000ebc:	2b00      	cmp	r3, #0
 8000ebe:	da01      	bge.n	8000ec4 <make_dshot600_frame+0x64>
 8000ec0:	220e      	movs	r2, #14
 8000ec2:	e000      	b.n	8000ec6 <make_dshot600_frame+0x66>
 8000ec4:	2207      	movs	r2, #7
 8000ec6:	68fb      	ldr	r3, [r7, #12]
 8000ec8:	009b      	lsls	r3, r3, #2
 8000eca:	6879      	ldr	r1, [r7, #4]
 8000ecc:	440b      	add	r3, r1
 8000ece:	601a      	str	r2, [r3, #0]
      packet <<= 1;
 8000ed0:	8bfb      	ldrh	r3, [r7, #30]
 8000ed2:	005b      	lsls	r3, r3, #1
 8000ed4:	83fb      	strh	r3, [r7, #30]
  for (i = 0; i < 16; i++)
 8000ed6:	68fb      	ldr	r3, [r7, #12]
 8000ed8:	3301      	adds	r3, #1
 8000eda:	60fb      	str	r3, [r7, #12]
 8000edc:	68fb      	ldr	r3, [r7, #12]
 8000ede:	2b0f      	cmp	r3, #15
 8000ee0:	ddea      	ble.n	8000eb8 <make_dshot600_frame+0x58>
  }

  motor_x[i++] = 0;
 8000ee2:	68fb      	ldr	r3, [r7, #12]
 8000ee4:	1c5a      	adds	r2, r3, #1
 8000ee6:	60fa      	str	r2, [r7, #12]
 8000ee8:	009b      	lsls	r3, r3, #2
 8000eea:	687a      	ldr	r2, [r7, #4]
 8000eec:	4413      	add	r3, r2
 8000eee:	2200      	movs	r2, #0
 8000ef0:	601a      	str	r2, [r3, #0]
  motor_x[i++] = 0;
 8000ef2:	68fb      	ldr	r3, [r7, #12]
 8000ef4:	1c5a      	adds	r2, r3, #1
 8000ef6:	60fa      	str	r2, [r7, #12]
 8000ef8:	009b      	lsls	r3, r3, #2
 8000efa:	687a      	ldr	r2, [r7, #4]
 8000efc:	4413      	add	r3, r2
 8000efe:	2200      	movs	r2, #0
 8000f00:	601a      	str	r2, [r3, #0]
}
 8000f02:	bf00      	nop
 8000f04:	3724      	adds	r7, #36	; 0x24
 8000f06:	46bd      	mov	sp, r7
 8000f08:	f85d 7b04 	ldr.w	r7, [sp], #4
 8000f0c:	4770      	bx	lr
	...

08000f10 <run_dshot600>:

void run_dshot600(motors_s *motors, throttle_a value[])
{
 8000f10:	b580      	push	{r7, lr}
 8000f12:	b082      	sub	sp, #8
 8000f14:	af00      	add	r7, sp, #0
 8000f16:	6078      	str	r0, [r7, #4]
 8000f18:	6039      	str	r1, [r7, #0]
  // prepare dshot frame
  make_dshot600_frame(motors->motor_1, value[0]);
 8000f1a:	687a      	ldr	r2, [r7, #4]
 8000f1c:	683b      	ldr	r3, [r7, #0]
 8000f1e:	881b      	ldrh	r3, [r3, #0]
 8000f20:	4619      	mov	r1, r3
 8000f22:	4610      	mov	r0, r2
 8000f24:	f7ff ff9c 	bl	8000e60 <make_dshot600_frame>
  make_dshot600_frame(motors->motor_2, value[1]);
 8000f28:	687b      	ldr	r3, [r7, #4]
 8000f2a:	f103 0248 	add.w	r2, r3, #72	; 0x48
 8000f2e:	683b      	ldr	r3, [r7, #0]
 8000f30:	3302      	adds	r3, #2
 8000f32:	881b      	ldrh	r3, [r3, #0]
 8000f34:	4619      	mov	r1, r3
 8000f36:	4610      	mov	r0, r2
 8000f38:	f7ff ff92 	bl	8000e60 <make_dshot600_frame>
  make_dshot600_frame(motors->motor_3, value[2]);
 8000f3c:	687b      	ldr	r3, [r7, #4]
 8000f3e:	f103 0290 	add.w	r2, r3, #144	; 0x90
 8000f42:	683b      	ldr	r3, [r7, #0]
 8000f44:	3304      	adds	r3, #4
 8000f46:	881b      	ldrh	r3, [r3, #0]
 8000f48:	4619      	mov	r1, r3
 8000f4a:	4610      	mov	r0, r2
 8000f4c:	f7ff ff88 	bl	8000e60 <make_dshot600_frame>
  make_dshot600_frame(motors->motor_4, value[3]);
 8000f50:	687b      	ldr	r3, [r7, #4]
 8000f52:	f103 02d8 	add.w	r2, r3, #216	; 0xd8
 8000f56:	683b      	ldr	r3, [r7, #0]
 8000f58:	3306      	adds	r3, #6
 8000f5a:	881b      	ldrh	r3, [r3, #0]
 8000f5c:	4619      	mov	r1, r3
 8000f5e:	4610      	mov	r0, r2
 8000f60:	f7ff ff7e 	bl	8000e60 <make_dshot600_frame>

  // and send
  HAL_TIM_PWM_Start_DMA(MOTOR_1_TIM, MOTOR_1_TIM_CHANNEL, motors->motor_1, DSHOT_FRAME_SIZE);
 8000f64:	687a      	ldr	r2, [r7, #4]
 8000f66:	2312      	movs	r3, #18
 8000f68:	2108      	movs	r1, #8
 8000f6a:	4813      	ldr	r0, [pc, #76]	; (8000fb8 <run_dshot600+0xa8>)
 8000f6c:	f003 fce8 	bl	8004940 <HAL_TIM_PWM_Start_DMA>
  HAL_TIM_PWM_Start_DMA(MOTOR_2_TIM, MOTOR_2_TIM_CHANNEL, motors->motor_2, DSHOT_FRAME_SIZE);
 8000f70:	687b      	ldr	r3, [r7, #4]
 8000f72:	f103 0248 	add.w	r2, r3, #72	; 0x48
 8000f76:	2312      	movs	r3, #18
 8000f78:	210c      	movs	r1, #12
 8000f7a:	4810      	ldr	r0, [pc, #64]	; (8000fbc <run_dshot600+0xac>)
 8000f7c:	f003 fce0 	bl	8004940 <HAL_TIM_PWM_Start_DMA>

  // commit : a0fc3be487dbd174be31abf8ce6e4e3b70c7a07b
  __HAL_TIM_RESET_HANDLE_STATE(&htim5);
 8000f80:	4b0e      	ldr	r3, [pc, #56]	; (8000fbc <run_dshot600+0xac>)
 8000f82:	2200      	movs	r2, #0
 8000f84:	f883 203d 	strb.w	r2, [r3, #61]	; 0x3d
  __HAL_TIM_RESET_HANDLE_STATE(&htim2);
 8000f88:	4b0b      	ldr	r3, [pc, #44]	; (8000fb8 <run_dshot600+0xa8>)
 8000f8a:	2200      	movs	r2, #0
 8000f8c:	f883 203d 	strb.w	r2, [r3, #61]	; 0x3d

  HAL_TIM_PWM_Start_DMA(MOTOR_3_TIM, MOTOR_3_TIM_CHANNEL, motors->motor_3, DSHOT_FRAME_SIZE);
 8000f90:	687b      	ldr	r3, [r7, #4]
 8000f92:	f103 0290 	add.w	r2, r3, #144	; 0x90
 8000f96:	2312      	movs	r3, #18
 8000f98:	2104      	movs	r1, #4
 8000f9a:	4808      	ldr	r0, [pc, #32]	; (8000fbc <run_dshot600+0xac>)
 8000f9c:	f003 fcd0 	bl	8004940 <HAL_TIM_PWM_Start_DMA>
  HAL_TIM_PWM_Start_DMA(MOTOR_4_TIM, MOTOR_4_TIM_CHANNEL, motors->motor_4, DSHOT_FRAME_SIZE);
 8000fa0:	687b      	ldr	r3, [r7, #4]
 8000fa2:	f103 02d8 	add.w	r2, r3, #216	; 0xd8
 8000fa6:	2312      	movs	r3, #18
 8000fa8:	2100      	movs	r1, #0
 8000faa:	4803      	ldr	r0, [pc, #12]	; (8000fb8 <run_dshot600+0xa8>)
 8000fac:	f003 fcc8 	bl	8004940 <HAL_TIM_PWM_Start_DMA>
}
 8000fb0:	bf00      	nop
 8000fb2:	3708      	adds	r7, #8
 8000fb4:	46bd      	mov	sp, r7
 8000fb6:	bd80      	pop	{r7, pc}
 8000fb8:	20000528 	.word	0x20000528
 8000fbc:	200003e8 	.word	0x200003e8

08000fc0 <ibus_init>:
// test for init
rc_channel_a test_channel[IBUS_USER_CHANNELS] = {0};

// init
ibus_state ibus_init()
{
 8000fc0:	b580      	push	{r7, lr}
 8000fc2:	af00      	add	r7, sp, #0
	//HAL_UART_Receive_IT(IBUS_UART, ibus_buffer, 32);

	// wait until ibus data good 
	while( ibus_read_channel(test_channel) != IBUS_DATA_GOOD );
 8000fc4:	bf00      	nop
 8000fc6:	4804      	ldr	r0, [pc, #16]	; (8000fd8 <ibus_init+0x18>)
 8000fc8:	f000 f808 	bl	8000fdc <ibus_read_channel>
 8000fcc:	4603      	mov	r3, r0
 8000fce:	2b05      	cmp	r3, #5
 8000fd0:	d1f9      	bne.n	8000fc6 <ibus_init+0x6>

	return IBUS_OK;
 8000fd2:	2302      	movs	r3, #2
}
 8000fd4:	4618      	mov	r0, r3
 8000fd6:	bd80      	pop	{r7, pc}
 8000fd8:	200000b4 	.word	0x200000b4

08000fdc <ibus_read_channel>:

// read
ibus_state ibus_read_channel(rc_channel_a *channel)
{
 8000fdc:	b580      	push	{r7, lr}
 8000fde:	b08e      	sub	sp, #56	; 0x38
 8000fe0:	af00      	add	r7, sp, #0
 8000fe2:	6078      	str	r0, [r7, #4]
	uint16_t channel_buffer[IBUS_MAX_CHANNLES] = {0};
 8000fe4:	f107 030c 	add.w	r3, r7, #12
 8000fe8:	2200      	movs	r2, #0
 8000fea:	601a      	str	r2, [r3, #0]
 8000fec:	605a      	str	r2, [r3, #4]
 8000fee:	609a      	str	r2, [r3, #8]
 8000ff0:	60da      	str	r2, [r3, #12]
 8000ff2:	611a      	str	r2, [r3, #16]
 8000ff4:	615a      	str	r2, [r3, #20]
 8000ff6:	619a      	str	r2, [r3, #24]
	uint16_t checksum_cal, checksum_ibus;

	HAL_UART_Receive(IBUS_UART, ibus_buffer, 32, 10);
 8000ff8:	230a      	movs	r3, #10
 8000ffa:	2220      	movs	r2, #32
 8000ffc:	4939      	ldr	r1, [pc, #228]	; (80010e4 <ibus_read_channel+0x108>)
 8000ffe:	483a      	ldr	r0, [pc, #232]	; (80010e8 <ibus_read_channel+0x10c>)
 8001000:	f004 fb31 	bl	8005666 <HAL_UART_Receive>

	// is it ibus?
	if(ibus_buffer[0] == IBUS_LENGTH && ibus_buffer[1] == IBUS_COMMAND40)
 8001004:	4b37      	ldr	r3, [pc, #220]	; (80010e4 <ibus_read_channel+0x108>)
 8001006:	781b      	ldrb	r3, [r3, #0]
 8001008:	2b20      	cmp	r3, #32
 800100a:	d165      	bne.n	80010d8 <ibus_read_channel+0xfc>
 800100c:	4b35      	ldr	r3, [pc, #212]	; (80010e4 <ibus_read_channel+0x108>)
 800100e:	785b      	ldrb	r3, [r3, #1]
 8001010:	2b40      	cmp	r3, #64	; 0x40
 8001012:	d161      	bne.n	80010d8 <ibus_read_channel+0xfc>
	{
		checksum_cal = 0xffff - ibus_buffer[0] - ibus_buffer[1];
 8001014:	4b33      	ldr	r3, [pc, #204]	; (80010e4 <ibus_read_channel+0x108>)
 8001016:	781b      	ldrb	r3, [r3, #0]
 8001018:	b29b      	uxth	r3, r3
 800101a:	43db      	mvns	r3, r3
 800101c:	b29a      	uxth	r2, r3
 800101e:	4b31      	ldr	r3, [pc, #196]	; (80010e4 <ibus_read_channel+0x108>)
 8001020:	785b      	ldrb	r3, [r3, #1]
 8001022:	b29b      	uxth	r3, r3
 8001024:	1ad3      	subs	r3, r2, r3
 8001026:	86fb      	strh	r3, [r7, #54]	; 0x36

		// data parsing
		for(int i = 0; i < IBUS_MAX_CHANNLES; i++)
 8001028:	2300      	movs	r3, #0
 800102a:	633b      	str	r3, [r7, #48]	; 0x30
 800102c:	e02a      	b.n	8001084 <ibus_read_channel+0xa8>
		{
			// little endian
			channel_buffer[i] = (uint16_t)(ibus_buffer[i * 2 + 3] << 8 | ibus_buffer[i * 2 + 2]);
 800102e:	6b3b      	ldr	r3, [r7, #48]	; 0x30
 8001030:	005b      	lsls	r3, r3, #1
 8001032:	3303      	adds	r3, #3
 8001034:	4a2b      	ldr	r2, [pc, #172]	; (80010e4 <ibus_read_channel+0x108>)
 8001036:	5cd3      	ldrb	r3, [r2, r3]
 8001038:	021b      	lsls	r3, r3, #8
 800103a:	b21a      	sxth	r2, r3
 800103c:	6b3b      	ldr	r3, [r7, #48]	; 0x30
 800103e:	3301      	adds	r3, #1
 8001040:	005b      	lsls	r3, r3, #1
 8001042:	4928      	ldr	r1, [pc, #160]	; (80010e4 <ibus_read_channel+0x108>)
 8001044:	5ccb      	ldrb	r3, [r1, r3]
 8001046:	b21b      	sxth	r3, r3
 8001048:	4313      	orrs	r3, r2
 800104a:	b21b      	sxth	r3, r3
 800104c:	b29a      	uxth	r2, r3
 800104e:	6b3b      	ldr	r3, [r7, #48]	; 0x30
 8001050:	005b      	lsls	r3, r3, #1
 8001052:	f107 0138 	add.w	r1, r7, #56	; 0x38
 8001056:	440b      	add	r3, r1
 8001058:	f823 2c2c 	strh.w	r2, [r3, #-44]
			
			// checksum from user calculation
			checksum_cal = checksum_cal - ibus_buffer[i * 2 + 3] - ibus_buffer[i * 2 + 2];
 800105c:	6b3b      	ldr	r3, [r7, #48]	; 0x30
 800105e:	005b      	lsls	r3, r3, #1
 8001060:	3303      	adds	r3, #3
 8001062:	4a20      	ldr	r2, [pc, #128]	; (80010e4 <ibus_read_channel+0x108>)
 8001064:	5cd3      	ldrb	r3, [r2, r3]
 8001066:	b29b      	uxth	r3, r3
 8001068:	8efa      	ldrh	r2, [r7, #54]	; 0x36
 800106a:	1ad3      	subs	r3, r2, r3
 800106c:	b29a      	uxth	r2, r3
 800106e:	6b3b      	ldr	r3, [r7, #48]	; 0x30
 8001070:	3301      	adds	r3, #1
 8001072:	005b      	lsls	r3, r3, #1
 8001074:	491b      	ldr	r1, [pc, #108]	; (80010e4 <ibus_read_channel+0x108>)
 8001076:	5ccb      	ldrb	r3, [r1, r3]
 8001078:	b29b      	uxth	r3, r3
 800107a:	1ad3      	subs	r3, r2, r3
 800107c:	86fb      	strh	r3, [r7, #54]	; 0x36
		for(int i = 0; i < IBUS_MAX_CHANNLES; i++)
 800107e:	6b3b      	ldr	r3, [r7, #48]	; 0x30
 8001080:	3301      	adds	r3, #1
 8001082:	633b      	str	r3, [r7, #48]	; 0x30
 8001084:	6b3b      	ldr	r3, [r7, #48]	; 0x30
 8001086:	2b0d      	cmp	r3, #13
 8001088:	ddd1      	ble.n	800102e <ibus_read_channel+0x52>
		}

		// checksum from received data
		checksum_ibus = ibus_buffer[31] << 8 | ibus_buffer[30];
 800108a:	4b16      	ldr	r3, [pc, #88]	; (80010e4 <ibus_read_channel+0x108>)
 800108c:	7fdb      	ldrb	r3, [r3, #31]
 800108e:	021b      	lsls	r3, r3, #8
 8001090:	b21a      	sxth	r2, r3
 8001092:	4b14      	ldr	r3, [pc, #80]	; (80010e4 <ibus_read_channel+0x108>)
 8001094:	7f9b      	ldrb	r3, [r3, #30]
 8001096:	b21b      	sxth	r3, r3
 8001098:	4313      	orrs	r3, r2
 800109a:	b21b      	sxth	r3, r3
 800109c:	857b      	strh	r3, [r7, #42]	; 0x2a

		// compare checksum 
		if(checksum_cal == checksum_ibus) 
 800109e:	8efa      	ldrh	r2, [r7, #54]	; 0x36
 80010a0:	8d7b      	ldrh	r3, [r7, #42]	; 0x2a
 80010a2:	429a      	cmp	r2, r3
 80010a4:	d116      	bne.n	80010d4 <ibus_read_channel+0xf8>
		{
			// return validated channel data
			for(int ch_index = 0; ch_index < IBUS_USER_CHANNELS; ch_index++)
 80010a6:	2300      	movs	r3, #0
 80010a8:	62fb      	str	r3, [r7, #44]	; 0x2c
 80010aa:	e00e      	b.n	80010ca <ibus_read_channel+0xee>
			{
				channel[ch_index] = channel_buffer[ch_index];
 80010ac:	6afb      	ldr	r3, [r7, #44]	; 0x2c
 80010ae:	005b      	lsls	r3, r3, #1
 80010b0:	687a      	ldr	r2, [r7, #4]
 80010b2:	441a      	add	r2, r3
 80010b4:	6afb      	ldr	r3, [r7, #44]	; 0x2c
 80010b6:	005b      	lsls	r3, r3, #1
 80010b8:	f107 0138 	add.w	r1, r7, #56	; 0x38
 80010bc:	440b      	add	r3, r1
 80010be:	f833 3c2c 	ldrh.w	r3, [r3, #-44]
 80010c2:	8013      	strh	r3, [r2, #0]
			for(int ch_index = 0; ch_index < IBUS_USER_CHANNELS; ch_index++)
 80010c4:	6afb      	ldr	r3, [r7, #44]	; 0x2c
 80010c6:	3301      	adds	r3, #1
 80010c8:	62fb      	str	r3, [r7, #44]	; 0x2c
 80010ca:	6afb      	ldr	r3, [r7, #44]	; 0x2c
 80010cc:	2b05      	cmp	r3, #5
 80010ce:	dded      	ble.n	80010ac <ibus_read_channel+0xd0>
			}

			return IBUS_DATA_GOOD;
 80010d0:	2305      	movs	r3, #5
 80010d2:	e002      	b.n	80010da <ibus_read_channel+0xfe>
		}
		// lose data
		else
		{
			return IBUS_DATA_NOT_GOOD;
 80010d4:	2306      	movs	r3, #6
 80010d6:	e000      	b.n	80010da <ibus_read_channel+0xfe>
		
	}
	// it isn't ibus
	else
	{
		return IBUS_NOT_OK;
 80010d8:	2303      	movs	r3, #3
	}
}
 80010da:	4618      	mov	r0, r3
 80010dc:	3738      	adds	r7, #56	; 0x38
 80010de:	46bd      	mov	sp, r7
 80010e0:	bd80      	pop	{r7, pc}
 80010e2:	bf00      	nop
 80010e4:	20000094 	.word	0x20000094
 80010e8:	20000568 	.word	0x20000568

080010ec <ibus_software_failsafe>:

ibus_state ibus_software_failsafe(uint8_t *ibus_state, uint8_t *ibus_check)
{
 80010ec:	b480      	push	{r7}
 80010ee:	b083      	sub	sp, #12
 80010f0:	af00      	add	r7, sp, #0
 80010f2:	6078      	str	r0, [r7, #4]
 80010f4:	6039      	str	r1, [r7, #0]
	// check ibus update
	if(*ibus_state == IBUS_DATA_GOOD)
 80010f6:	687b      	ldr	r3, [r7, #4]
 80010f8:	781b      	ldrb	r3, [r3, #0]
 80010fa:	2b05      	cmp	r3, #5
 80010fc:	d106      	bne.n	800110c <ibus_software_failsafe+0x20>
	{
		*ibus_state = IBUS_READY;
 80010fe:	687b      	ldr	r3, [r7, #4]
 8001100:	2200      	movs	r2, #0
 8001102:	701a      	strb	r2, [r3, #0]
		*ibus_check = 0;
 8001104:	683b      	ldr	r3, [r7, #0]
 8001106:	2200      	movs	r2, #0
 8001108:	701a      	strb	r2, [r3, #0]
 800110a:	e005      	b.n	8001118 <ibus_software_failsafe+0x2c>
	}
	else
	{
		(*ibus_check)++;
 800110c:	683b      	ldr	r3, [r7, #0]
 800110e:	781b      	ldrb	r3, [r3, #0]
 8001110:	3301      	adds	r3, #1
 8001112:	b2da      	uxtb	r2, r3
 8001114:	683b      	ldr	r3, [r7, #0]
 8001116:	701a      	strb	r2, [r3, #0]
	}

	// if ibus is not updated after 7ms
	if( (*ibus_check) > 10)
 8001118:	683b      	ldr	r3, [r7, #0]
 800111a:	781b      	ldrb	r3, [r3, #0]
 800111c:	2b0a      	cmp	r3, #10
 800111e:	d902      	bls.n	8001126 <ibus_software_failsafe+0x3a>
	{
		*ibus_state = IBUS_MISSING;
 8001120:	687b      	ldr	r3, [r7, #4]
 8001122:	2201      	movs	r2, #1
 8001124:	701a      	strb	r2, [r3, #0]
	}

 8001126:	bf00      	nop
 8001128:	4618      	mov	r0, r3
 800112a:	370c      	adds	r7, #12
 800112c:	46bd      	mov	sp, r7
 800112e:	f85d 7b04 	ldr.w	r7, [sp], #4
 8001132:	4770      	bx	lr

08001134 <MX_GPIO_Init>:
 8001134:	b580      	push	{r7, lr}
 8001136:	b088      	sub	sp, #32
 8001138:	af00      	add	r7, sp, #0
 800113a:	f107 030c 	add.w	r3, r7, #12
 800113e:	2200      	movs	r2, #0
 8001140:	601a      	str	r2, [r3, #0]
 8001142:	605a      	str	r2, [r3, #4]
 8001144:	609a      	str	r2, [r3, #8]
 8001146:	60da      	str	r2, [r3, #12]
 8001148:	611a      	str	r2, [r3, #16]
 800114a:	2300      	movs	r3, #0
 800114c:	60bb      	str	r3, [r7, #8]
 800114e:	4b2a      	ldr	r3, [pc, #168]	; (80011f8 <MX_GPIO_Init+0xc4>)
 8001150:	6b1b      	ldr	r3, [r3, #48]	; 0x30
 8001152:	4a29      	ldr	r2, [pc, #164]	; (80011f8 <MX_GPIO_Init+0xc4>)
 8001154:	f043 0304 	orr.w	r3, r3, #4
 8001158:	6313      	str	r3, [r2, #48]	; 0x30
 800115a:	4b27      	ldr	r3, [pc, #156]	; (80011f8 <MX_GPIO_Init+0xc4>)
 800115c:	6b1b      	ldr	r3, [r3, #48]	; 0x30
 800115e:	f003 0304 	and.w	r3, r3, #4
 8001162:	60bb      	str	r3, [r7, #8]
 8001164:	68bb      	ldr	r3, [r7, #8]
 8001166:	2300      	movs	r3, #0
 8001168:	607b      	str	r3, [r7, #4]
 800116a:	4b23      	ldr	r3, [pc, #140]	; (80011f8 <MX_GPIO_Init+0xc4>)
 800116c:	6b1b      	ldr	r3, [r3, #48]	; 0x30
 800116e:	4a22      	ldr	r2, [pc, #136]	; (80011f8 <MX_GPIO_Init+0xc4>)
 8001170:	f043 0380 	orr.w	r3, r3, #128	; 0x80
 8001174:	6313      	str	r3, [r2, #48]	; 0x30
 8001176:	4b20      	ldr	r3, [pc, #128]	; (80011f8 <MX_GPIO_Init+0xc4>)
 8001178:	6b1b      	ldr	r3, [r3, #48]	; 0x30
 800117a:	f003 0380 	and.w	r3, r3, #128	; 0x80
 800117e:	607b      	str	r3, [r7, #4]
 8001180:	687b      	ldr	r3, [r7, #4]
 8001182:	2300      	movs	r3, #0
 8001184:	603b      	str	r3, [r7, #0]
 8001186:	4b1c      	ldr	r3, [pc, #112]	; (80011f8 <MX_GPIO_Init+0xc4>)
 8001188:	6b1b      	ldr	r3, [r3, #48]	; 0x30
 800118a:	4a1b      	ldr	r2, [pc, #108]	; (80011f8 <MX_GPIO_Init+0xc4>)
 800118c:	f043 0301 	orr.w	r3, r3, #1
 8001190:	6313      	str	r3, [r2, #48]	; 0x30
 8001192:	4b19      	ldr	r3, [pc, #100]	; (80011f8 <MX_GPIO_Init+0xc4>)
 8001194:	6b1b      	ldr	r3, [r3, #48]	; 0x30
 8001196:	f003 0301 	and.w	r3, r3, #1
 800119a:	603b      	str	r3, [r7, #0]
 800119c:	683b      	ldr	r3, [r7, #0]
 800119e:	2201      	movs	r2, #1
 80011a0:	f44f 5100 	mov.w	r1, #8192	; 0x2000
 80011a4:	4815      	ldr	r0, [pc, #84]	; (80011fc <MX_GPIO_Init+0xc8>)
 80011a6:	f002 f9a7 	bl	80034f8 <HAL_GPIO_WritePin>
 80011aa:	2200      	movs	r2, #0
 80011ac:	2110      	movs	r1, #16
 80011ae:	4814      	ldr	r0, [pc, #80]	; (8001200 <MX_GPIO_Init+0xcc>)
 80011b0:	f002 f9a2 	bl	80034f8 <HAL_GPIO_WritePin>
 80011b4:	f44f 5300 	mov.w	r3, #8192	; 0x2000
 80011b8:	60fb      	str	r3, [r7, #12]
 80011ba:	2301      	movs	r3, #1
 80011bc:	613b      	str	r3, [r7, #16]
 80011be:	2300      	movs	r3, #0
 80011c0:	617b      	str	r3, [r7, #20]
 80011c2:	2300      	movs	r3, #0
 80011c4:	61bb      	str	r3, [r7, #24]
 80011c6:	f107 030c 	add.w	r3, r7, #12
 80011ca:	4619      	mov	r1, r3
 80011cc:	480b      	ldr	r0, [pc, #44]	; (80011fc <MX_GPIO_Init+0xc8>)
 80011ce:	f002 f811 	bl	80031f4 <HAL_GPIO_Init>
 80011d2:	2310      	movs	r3, #16
 80011d4:	60fb      	str	r3, [r7, #12]
 80011d6:	2301      	movs	r3, #1
 80011d8:	613b      	str	r3, [r7, #16]
 80011da:	2300      	movs	r3, #0
 80011dc:	617b      	str	r3, [r7, #20]
 80011de:	2300      	movs	r3, #0
 80011e0:	61bb      	str	r3, [r7, #24]
 80011e2:	f107 030c 	add.w	r3, r7, #12
 80011e6:	4619      	mov	r1, r3
 80011e8:	4805      	ldr	r0, [pc, #20]	; (8001200 <MX_GPIO_Init+0xcc>)
 80011ea:	f002 f803 	bl	80031f4 <HAL_GPIO_Init>
 80011ee:	bf00      	nop
 80011f0:	3720      	adds	r7, #32
 80011f2:	46bd      	mov	sp, r7
 80011f4:	bd80      	pop	{r7, pc}
 80011f6:	bf00      	nop
 80011f8:	40023800 	.word	0x40023800
 80011fc:	40020800 	.word	0x40020800
 8001200:	40020000 	.word	0x40020000

08001204 <cs_high>:
offset_t my_offset = {0, };


// cs state
void cs_high()
{
 8001204:	b580      	push	{r7, lr}
 8001206:	af00      	add	r7, sp, #0
	HAL_GPIO_WritePin(CS_PIN_PORT, CS_PIN_NUMBER, SET);	
 8001208:	2201      	movs	r2, #1
 800120a:	2110      	movs	r1, #16
 800120c:	4802      	ldr	r0, [pc, #8]	; (8001218 <cs_high+0x14>)
 800120e:	f002 f973 	bl	80034f8 <HAL_GPIO_WritePin>
}
 8001212:	bf00      	nop
 8001214:	bd80      	pop	{r7, pc}
 8001216:	bf00      	nop
 8001218:	40020000 	.word	0x40020000

0800121c <cs_low>:

void cs_low()
{
 800121c:	b580      	push	{r7, lr}
 800121e:	af00      	add	r7, sp, #0
	HAL_GPIO_WritePin(CS_PIN_PORT, CS_PIN_NUMBER, RESET);
 8001220:	2200      	movs	r2, #0
 8001222:	2110      	movs	r1, #16
 8001224:	4802      	ldr	r0, [pc, #8]	; (8001230 <cs_low+0x14>)
 8001226:	f002 f967 	bl	80034f8 <HAL_GPIO_WritePin>
}
 800122a:	bf00      	nop
 800122c:	bd80      	pop	{r7, pc}
 800122e:	bf00      	nop
 8001230:	40020000 	.word	0x40020000

08001234 <select_user_bank>:

// user bank
void select_user_bank(userbank_e ub)
{
 8001234:	b580      	push	{r7, lr}
 8001236:	b082      	sub	sp, #8
 8001238:	af00      	add	r7, sp, #0
 800123a:	4603      	mov	r3, r0
 800123c:	71fb      	strb	r3, [r7, #7]
	icm20948_write(B0_REG_BANK_SEL, ub);
 800123e:	79fb      	ldrb	r3, [r7, #7]
 8001240:	4619      	mov	r1, r3
 8001242:	207f      	movs	r0, #127	; 0x7f
 8001244:	f000 f82e 	bl	80012a4 <icm20948_write>
}
 8001248:	bf00      	nop
 800124a:	3708      	adds	r7, #8
 800124c:	46bd      	mov	sp, r7
 800124e:	bd80      	pop	{r7, pc}

08001250 <icm20948_read>:

// spi
void icm20948_read(uint8_t regaddr, uint8_t len)
{
 8001250:	b580      	push	{r7, lr}
 8001252:	b082      	sub	sp, #8
 8001254:	af00      	add	r7, sp, #0
 8001256:	4603      	mov	r3, r0
 8001258:	460a      	mov	r2, r1
 800125a:	71fb      	strb	r3, [r7, #7]
 800125c:	4613      	mov	r3, r2
 800125e:	71bb      	strb	r3, [r7, #6]
	cs_low();
 8001260:	f7ff ffdc 	bl	800121c <cs_low>
	tx_buffer[0] = READ | regaddr;
 8001264:	79fb      	ldrb	r3, [r7, #7]
 8001266:	f063 037f 	orn	r3, r3, #127	; 0x7f
 800126a:	b2da      	uxtb	r2, r3
 800126c:	4b0a      	ldr	r3, [pc, #40]	; (8001298 <icm20948_read+0x48>)
 800126e:	701a      	strb	r2, [r3, #0]
	HAL_SPI_Transmit(SPI_ICM20948, tx_buffer, 1, 10);
 8001270:	230a      	movs	r3, #10
 8001272:	2201      	movs	r2, #1
 8001274:	4908      	ldr	r1, [pc, #32]	; (8001298 <icm20948_read+0x48>)
 8001276:	4809      	ldr	r0, [pc, #36]	; (800129c <icm20948_read+0x4c>)
 8001278:	f002 fdf8 	bl	8003e6c <HAL_SPI_Transmit>
	HAL_SPI_Receive(SPI_ICM20948, rx_buffer, len, 10);
 800127c:	79bb      	ldrb	r3, [r7, #6]
 800127e:	b29a      	uxth	r2, r3
 8001280:	230a      	movs	r3, #10
 8001282:	4907      	ldr	r1, [pc, #28]	; (80012a0 <icm20948_read+0x50>)
 8001284:	4805      	ldr	r0, [pc, #20]	; (800129c <icm20948_read+0x4c>)
 8001286:	f002 ff25 	bl	80040d4 <HAL_SPI_Receive>
	cs_high();
 800128a:	f7ff ffbb 	bl	8001204 <cs_high>
}
 800128e:	bf00      	nop
 8001290:	3708      	adds	r7, #8
 8001292:	46bd      	mov	sp, r7
 8001294:	bd80      	pop	{r7, pc}
 8001296:	bf00      	nop
 8001298:	200000c0 	.word	0x200000c0
 800129c:	200002d0 	.word	0x200002d0
 80012a0:	200000c8 	.word	0x200000c8

080012a4 <icm20948_write>:

void icm20948_write(uint8_t regaddr, uint8_t data)
{
 80012a4:	b580      	push	{r7, lr}
 80012a6:	b082      	sub	sp, #8
 80012a8:	af00      	add	r7, sp, #0
 80012aa:	4603      	mov	r3, r0
 80012ac:	460a      	mov	r2, r1
 80012ae:	71fb      	strb	r3, [r7, #7]
 80012b0:	4613      	mov	r3, r2
 80012b2:	71bb      	strb	r3, [r7, #6]
	cs_low();
 80012b4:	f7ff ffb2 	bl	800121c <cs_low>
	tx_buffer[0] = WRITE | regaddr;
 80012b8:	4a0a      	ldr	r2, [pc, #40]	; (80012e4 <icm20948_write+0x40>)
 80012ba:	79fb      	ldrb	r3, [r7, #7]
 80012bc:	7013      	strb	r3, [r2, #0]
	tx_buffer[1] = data;
 80012be:	4a09      	ldr	r2, [pc, #36]	; (80012e4 <icm20948_write+0x40>)
 80012c0:	79bb      	ldrb	r3, [r7, #6]
 80012c2:	7053      	strb	r3, [r2, #1]
	HAL_SPI_Transmit(SPI_ICM20948, tx_buffer, 2, 10);
 80012c4:	230a      	movs	r3, #10
 80012c6:	2202      	movs	r2, #2
 80012c8:	4906      	ldr	r1, [pc, #24]	; (80012e4 <icm20948_write+0x40>)
 80012ca:	4807      	ldr	r0, [pc, #28]	; (80012e8 <icm20948_write+0x44>)
 80012cc:	f002 fdce 	bl	8003e6c <HAL_SPI_Transmit>
	cs_high();
 80012d0:	f7ff ff98 	bl	8001204 <cs_high>

	// necessary
	HAL_Delay(1);
 80012d4:	2001      	movs	r0, #1
 80012d6:	f001 fac9 	bl	800286c <HAL_Delay>
}
 80012da:	bf00      	nop
 80012dc:	3708      	adds	r7, #8
 80012de:	46bd      	mov	sp, r7
 80012e0:	bd80      	pop	{r7, pc}
 80012e2:	bf00      	nop
 80012e4:	200000c0 	.word	0x200000c0
 80012e8:	200002d0 	.word	0x200002d0

080012ec <ak09916_read>:

// auxiliary i2c
void ak09916_read(uint8_t regaddr, uint8_t len)
{
 80012ec:	b580      	push	{r7, lr}
 80012ee:	b082      	sub	sp, #8
 80012f0:	af00      	add	r7, sp, #0
 80012f2:	4603      	mov	r3, r0
 80012f4:	460a      	mov	r2, r1
 80012f6:	71fb      	strb	r3, [r7, #7]
 80012f8:	4613      	mov	r3, r2
 80012fa:	71bb      	strb	r3, [r7, #6]
	select_user_bank(userbank_3);
 80012fc:	2030      	movs	r0, #48	; 0x30
 80012fe:	f7ff ff99 	bl	8001234 <select_user_bank>

	icm20948_write(B3_I2C_SLV0_ADDR, READ | ADDRESS_AK09916);
 8001302:	218c      	movs	r1, #140	; 0x8c
 8001304:	2003      	movs	r0, #3
 8001306:	f7ff ffcd 	bl	80012a4 <icm20948_write>
	icm20948_write(B3_I2C_SLV0_REG, regaddr); 
 800130a:	79fb      	ldrb	r3, [r7, #7]
 800130c:	4619      	mov	r1, r3
 800130e:	2004      	movs	r0, #4
 8001310:	f7ff ffc8 	bl	80012a4 <icm20948_write>
	icm20948_write(B3_I2C_SLV0_CTRL, I2C_SLV_EN | len);
 8001314:	79bb      	ldrb	r3, [r7, #6]
 8001316:	f063 037f 	orn	r3, r3, #127	; 0x7f
 800131a:	b2db      	uxtb	r3, r3
 800131c:	4619      	mov	r1, r3
 800131e:	2005      	movs	r0, #5
 8001320:	f7ff ffc0 	bl	80012a4 <icm20948_write>

	select_user_bank(userbank_0);
 8001324:	2000      	movs	r0, #0
 8001326:	f7ff ff85 	bl	8001234 <select_user_bank>
	icm20948_read(B0_EXT_SLV_SENS_DATA_00, len);
 800132a:	79bb      	ldrb	r3, [r7, #6]
 800132c:	4619      	mov	r1, r3
 800132e:	203b      	movs	r0, #59	; 0x3b
 8001330:	f7ff ff8e 	bl	8001250 <icm20948_read>

	HAL_Delay(1);
 8001334:	2001      	movs	r0, #1
 8001336:	f001 fa99 	bl	800286c <HAL_Delay>
}
 800133a:	bf00      	nop
 800133c:	3708      	adds	r7, #8
 800133e:	46bd      	mov	sp, r7
 8001340:	bd80      	pop	{r7, pc}

08001342 <ak09916_wrtie>:

void ak09916_wrtie(uint8_t regaddr, uint8_t data)
{
 8001342:	b580      	push	{r7, lr}
 8001344:	b082      	sub	sp, #8
 8001346:	af00      	add	r7, sp, #0
 8001348:	4603      	mov	r3, r0
 800134a:	460a      	mov	r2, r1
 800134c:	71fb      	strb	r3, [r7, #7]
 800134e:	4613      	mov	r3, r2
 8001350:	71bb      	strb	r3, [r7, #6]
	select_user_bank(userbank_3);
 8001352:	2030      	movs	r0, #48	; 0x30
 8001354:	f7ff ff6e 	bl	8001234 <select_user_bank>

	icm20948_write(B3_I2C_SLV0_ADDR, WRITE | ADDRESS_AK09916);
 8001358:	210c      	movs	r1, #12
 800135a:	2003      	movs	r0, #3
 800135c:	f7ff ffa2 	bl	80012a4 <icm20948_write>
	icm20948_write(B3_I2C_SLV0_REG, regaddr);
 8001360:	79fb      	ldrb	r3, [r7, #7]
 8001362:	4619      	mov	r1, r3
 8001364:	2004      	movs	r0, #4
 8001366:	f7ff ff9d 	bl	80012a4 <icm20948_write>
	icm20948_write(B3_I2C_SLV0_DO, data);
 800136a:	79bb      	ldrb	r3, [r7, #6]
 800136c:	4619      	mov	r1, r3
 800136e:	2006      	movs	r0, #6
 8001370:	f7ff ff98 	bl	80012a4 <icm20948_write>
	icm20948_write(B3_I2C_SLV0_CTRL, 0x81);
 8001374:	2181      	movs	r1, #129	; 0x81
 8001376:	2005      	movs	r0, #5
 8001378:	f7ff ff94 	bl	80012a4 <icm20948_write>

	HAL_Delay(1);
 800137c:	2001      	movs	r0, #1
 800137e:	f001 fa75 	bl	800286c <HAL_Delay>
}
 8001382:	bf00      	nop
 8001384:	3708      	adds	r7, #8
 8001386:	46bd      	mov	sp, r7
 8001388:	bd80      	pop	{r7, pc}
	...

0800138c <whoami_icm20948>:

// check sensor id
uint8_t whoami_icm20948()
{
 800138c:	b580      	push	{r7, lr}
 800138e:	af00      	add	r7, sp, #0
	select_user_bank(userbank_0);
 8001390:	2000      	movs	r0, #0
 8001392:	f7ff ff4f 	bl	8001234 <select_user_bank>
	icm20948_read(B0_WHO_AM_I, 1);
 8001396:	2101      	movs	r1, #1
 8001398:	2000      	movs	r0, #0
 800139a:	f7ff ff59 	bl	8001250 <icm20948_read>

	return rx_buffer[0];
 800139e:	4b02      	ldr	r3, [pc, #8]	; (80013a8 <whoami_icm20948+0x1c>)
 80013a0:	781b      	ldrb	r3, [r3, #0]
}
 80013a2:	4618      	mov	r0, r3
 80013a4:	bd80      	pop	{r7, pc}
 80013a6:	bf00      	nop
 80013a8:	200000c8 	.word	0x200000c8

080013ac <whoami_ak09916>:

uint8_t whoami_ak09916()
{
 80013ac:	b580      	push	{r7, lr}
 80013ae:	af00      	add	r7, sp, #0
	ak09916_read(MAG_WIA2, 1);
 80013b0:	2101      	movs	r1, #1
 80013b2:	2001      	movs	r0, #1
 80013b4:	f7ff ff9a 	bl	80012ec <ak09916_read>

	return rx_buffer[0];	// 0x09
 80013b8:	4b01      	ldr	r3, [pc, #4]	; (80013c0 <whoami_ak09916+0x14>)
 80013ba:	781b      	ldrb	r3, [r3, #0]
}
 80013bc:	4618      	mov	r0, r3
 80013be:	bd80      	pop	{r7, pc}
 80013c0:	200000c8 	.word	0x200000c8

080013c4 <icm20948_init>:

// initialize
void icm20948_init()
{
 80013c4:	b580      	push	{r7, lr}
 80013c6:	af00      	add	r7, sp, #0
	// ICM20948 Reset
	select_user_bank(userbank_0);
 80013c8:	2000      	movs	r0, #0
 80013ca:	f7ff ff33 	bl	8001234 <select_user_bank>
	icm20948_write(B0_PWR_MGMT_1, DEVICE_RESET | 0x41);	// 0x41 is reset value
 80013ce:	21c1      	movs	r1, #193	; 0xc1
 80013d0:	2006      	movs	r0, #6
 80013d2:	f7ff ff67 	bl	80012a4 <icm20948_write>

	// SPI mode only
	select_user_bank(userbank_0);
 80013d6:	2000      	movs	r0, #0
 80013d8:	f7ff ff2c 	bl	8001234 <select_user_bank>
	icm20948_write(B0_USER_CTRL, I2C_IF_DIS);
 80013dc:	2110      	movs	r1, #16
 80013de:	2003      	movs	r0, #3
 80013e0:	f7ff ff60 	bl	80012a4 <icm20948_write>

	// Wake the chip and Recommended clock selection(CLKSEL = 1)
	select_user_bank(userbank_0);
 80013e4:	2000      	movs	r0, #0
 80013e6:	f7ff ff25 	bl	8001234 <select_user_bank>
	icm20948_write(B0_PWR_MGMT_1, WAKE | CLKSEL);
 80013ea:	2101      	movs	r1, #1
 80013ec:	2006      	movs	r0, #6
 80013ee:	f7ff ff59 	bl	80012a4 <icm20948_write>

	// ODR start time alignment
	select_user_bank(userbank_2);
 80013f2:	2020      	movs	r0, #32
 80013f4:	f7ff ff1e 	bl	8001234 <select_user_bank>
	icm20948_write(B2_ODR_ALIGN_EN, ODR_START_TIME_ALIGNMENT_ENABLE);
 80013f8:	2101      	movs	r1, #1
 80013fa:	2009      	movs	r0, #9
 80013fc:	f7ff ff52 	bl	80012a4 <icm20948_write>

	// Set Gyroscope ODR and Scale
	select_user_bank(userbank_2);
 8001400:	2020      	movs	r0, #32
 8001402:	f7ff ff17 	bl	8001234 <select_user_bank>
	icm20948_write(B2_GYRO_SMPLRT_DIV, Gyro_ODR_1125Hz);				// Gyro ODR = 1.125kHz
 8001406:	2100      	movs	r1, #0
 8001408:	2000      	movs	r0, #0
 800140a:	f7ff ff4b 	bl	80012a4 <icm20948_write>
	icm20948_write(B2_GYRO_CONFIG_1, GYRO_FS_SEL_250dps | GYRO_FCHOICE);	// Gyro scale 250dps and Enable DLPF
 800140e:	2101      	movs	r1, #1
 8001410:	2001      	movs	r0, #1
 8001412:	f7ff ff47 	bl	80012a4 <icm20948_write>
																			//     x
	// Set Accelerometer ODR and Scale
	icm20948_write(B2_ACCEL_SMPLRT_DIV_2, Accel_ODR_1125Hz);			// Accel ODR = 1.125kHz
 8001416:	2100      	movs	r1, #0
 8001418:	2011      	movs	r0, #17
 800141a:	f7ff ff43 	bl	80012a4 <icm20948_write>
	icm20948_write(B2_ACCEL_CONFIG, ACCEL_FS_SEL_2g | ACCEL_FCHOICE);	// Accel scale 2g and Enable DLPF
 800141e:	2101      	movs	r1, #1
 8001420:	2014      	movs	r0, #20
 8001422:	f7ff ff3f 	bl	80012a4 <icm20948_write>
}
 8001426:	bf00      	nop
 8001428:	bd80      	pop	{r7, pc}

0800142a <ak09916_init>:

void ak09916_init()
{
 800142a:	b580      	push	{r7, lr}
 800142c:	af00      	add	r7, sp, #0
	// I2C Master Reset
	select_user_bank(userbank_0);
 800142e:	2000      	movs	r0, #0
 8001430:	f7ff ff00 	bl	8001234 <select_user_bank>
	icm20948_write(B0_USER_CTRL, I2C_MST_RST);
 8001434:	2102      	movs	r1, #2
 8001436:	2003      	movs	r0, #3
 8001438:	f7ff ff34 	bl	80012a4 <icm20948_write>

	// I2C Master Enable
	select_user_bank(userbank_0);
 800143c:	2000      	movs	r0, #0
 800143e:	f7ff fef9 	bl	8001234 <select_user_bank>
	icm20948_write(B0_USER_CTRL, I2C_MST_EN);
 8001442:	2120      	movs	r1, #32
 8001444:	2003      	movs	r0, #3
 8001446:	f7ff ff2d 	bl	80012a4 <icm20948_write>

	// I2C Master Clock Frequency
	select_user_bank(userbank_3);
 800144a:	2030      	movs	r0, #48	; 0x30
 800144c:	f7ff fef2 	bl	8001234 <select_user_bank>
	icm20948_write(B3_I2C_MST_CTRL, I2C_MST_CLK); // 345.6 kHz
 8001450:	2107      	movs	r1, #7
 8001452:	2001      	movs	r0, #1
 8001454:	f7ff ff26 	bl	80012a4 <icm20948_write>

	// I2C Slave Reset
	ak09916_wrtie(MAG_CNTL3, 0x01);
 8001458:	2101      	movs	r1, #1
 800145a:	2032      	movs	r0, #50	; 0x32
 800145c:	f7ff ff71 	bl	8001342 <ak09916_wrtie>
	
	// I2C Slave Operation Mode
	ak09916_wrtie(MAG_CNTL2, Continuous_measurement_mode_4);
 8001460:	2108      	movs	r1, #8
 8001462:	2031      	movs	r0, #49	; 0x31
 8001464:	f7ff ff6d 	bl	8001342 <ak09916_wrtie>
}
 8001468:	bf00      	nop
 800146a:	bd80      	pop	{r7, pc}

0800146c <read_gyro_lsb>:



// read gyro
void read_gyro_lsb(icm20948_t* icm20948)
{
 800146c:	b580      	push	{r7, lr}
 800146e:	b082      	sub	sp, #8
 8001470:	af00      	add	r7, sp, #0
 8001472:	6078      	str	r0, [r7, #4]
	icm20948_read(B0_GYRO_XOUT_H, 6);
 8001474:	2106      	movs	r1, #6
 8001476:	2033      	movs	r0, #51	; 0x33
 8001478:	f7ff feea 	bl	8001250 <icm20948_read>

	// calibration
	if(my_offset.offsetting == 1)
 800147c:	4b2f      	ldr	r3, [pc, #188]	; (800153c <read_gyro_lsb+0xd0>)
 800147e:	781b      	ldrb	r3, [r3, #0]
 8001480:	2b00      	cmp	r3, #0
 8001482:	d036      	beq.n	80014f2 <read_gyro_lsb+0x86>
	{
		icm20948->gyro_lsb_x = (int16_t)(rx_buffer[0] << 8 | rx_buffer[1]) - my_offset.gyro_x;
 8001484:	4b2e      	ldr	r3, [pc, #184]	; (8001540 <read_gyro_lsb+0xd4>)
 8001486:	781b      	ldrb	r3, [r3, #0]
 8001488:	021b      	lsls	r3, r3, #8
 800148a:	b21a      	sxth	r2, r3
 800148c:	4b2c      	ldr	r3, [pc, #176]	; (8001540 <read_gyro_lsb+0xd4>)
 800148e:	785b      	ldrb	r3, [r3, #1]
 8001490:	b21b      	sxth	r3, r3
 8001492:	4313      	orrs	r3, r2
 8001494:	b21b      	sxth	r3, r3
 8001496:	b29a      	uxth	r2, r3
 8001498:	4b28      	ldr	r3, [pc, #160]	; (800153c <read_gyro_lsb+0xd0>)
 800149a:	685b      	ldr	r3, [r3, #4]
 800149c:	b29b      	uxth	r3, r3
 800149e:	1ad3      	subs	r3, r2, r3
 80014a0:	b29b      	uxth	r3, r3
 80014a2:	b21a      	sxth	r2, r3
 80014a4:	687b      	ldr	r3, [r7, #4]
 80014a6:	801a      	strh	r2, [r3, #0]
		icm20948->gyro_lsb_y = (int16_t)(rx_buffer[2] << 8 | rx_buffer[3]) - my_offset.gyro_y;
 80014a8:	4b25      	ldr	r3, [pc, #148]	; (8001540 <read_gyro_lsb+0xd4>)
 80014aa:	789b      	ldrb	r3, [r3, #2]
 80014ac:	021b      	lsls	r3, r3, #8
 80014ae:	b21a      	sxth	r2, r3
 80014b0:	4b23      	ldr	r3, [pc, #140]	; (8001540 <read_gyro_lsb+0xd4>)
 80014b2:	78db      	ldrb	r3, [r3, #3]
 80014b4:	b21b      	sxth	r3, r3
 80014b6:	4313      	orrs	r3, r2
 80014b8:	b21b      	sxth	r3, r3
 80014ba:	b29a      	uxth	r2, r3
 80014bc:	4b1f      	ldr	r3, [pc, #124]	; (800153c <read_gyro_lsb+0xd0>)
 80014be:	689b      	ldr	r3, [r3, #8]
 80014c0:	b29b      	uxth	r3, r3
 80014c2:	1ad3      	subs	r3, r2, r3
 80014c4:	b29b      	uxth	r3, r3
 80014c6:	b21a      	sxth	r2, r3
 80014c8:	687b      	ldr	r3, [r7, #4]
 80014ca:	805a      	strh	r2, [r3, #2]
		icm20948->gyro_lsb_z = (int16_t)(rx_buffer[4] << 8 | rx_buffer[5]) - my_offset.gyro_z;
 80014cc:	4b1c      	ldr	r3, [pc, #112]	; (8001540 <read_gyro_lsb+0xd4>)
 80014ce:	791b      	ldrb	r3, [r3, #4]
 80014d0:	021b      	lsls	r3, r3, #8
 80014d2:	b21a      	sxth	r2, r3
 80014d4:	4b1a      	ldr	r3, [pc, #104]	; (8001540 <read_gyro_lsb+0xd4>)
 80014d6:	795b      	ldrb	r3, [r3, #5]
 80014d8:	b21b      	sxth	r3, r3
 80014da:	4313      	orrs	r3, r2
 80014dc:	b21b      	sxth	r3, r3
 80014de:	b29a      	uxth	r2, r3
 80014e0:	4b16      	ldr	r3, [pc, #88]	; (800153c <read_gyro_lsb+0xd0>)
 80014e2:	68db      	ldr	r3, [r3, #12]
 80014e4:	b29b      	uxth	r3, r3
 80014e6:	1ad3      	subs	r3, r2, r3
 80014e8:	b29b      	uxth	r3, r3
 80014ea:	b21a      	sxth	r2, r3
 80014ec:	687b      	ldr	r3, [r7, #4]
 80014ee:	809a      	strh	r2, [r3, #4]
	{
		icm20948->gyro_lsb_x = (int16_t)(rx_buffer[0] << 8 | rx_buffer[1]);
		icm20948->gyro_lsb_y = (int16_t)(rx_buffer[2] << 8 | rx_buffer[3]);
		icm20948->gyro_lsb_z = (int16_t)(rx_buffer[4] << 8 | rx_buffer[5]);
	}
}
 80014f0:	e020      	b.n	8001534 <read_gyro_lsb+0xc8>
		icm20948->gyro_lsb_x = (int16_t)(rx_buffer[0] << 8 | rx_buffer[1]);
 80014f2:	4b13      	ldr	r3, [pc, #76]	; (8001540 <read_gyro_lsb+0xd4>)
 80014f4:	781b      	ldrb	r3, [r3, #0]
 80014f6:	021b      	lsls	r3, r3, #8
 80014f8:	b21a      	sxth	r2, r3
 80014fa:	4b11      	ldr	r3, [pc, #68]	; (8001540 <read_gyro_lsb+0xd4>)
 80014fc:	785b      	ldrb	r3, [r3, #1]
 80014fe:	b21b      	sxth	r3, r3
 8001500:	4313      	orrs	r3, r2
 8001502:	b21a      	sxth	r2, r3
 8001504:	687b      	ldr	r3, [r7, #4]
 8001506:	801a      	strh	r2, [r3, #0]
		icm20948->gyro_lsb_y = (int16_t)(rx_buffer[2] << 8 | rx_buffer[3]);
 8001508:	4b0d      	ldr	r3, [pc, #52]	; (8001540 <read_gyro_lsb+0xd4>)
 800150a:	789b      	ldrb	r3, [r3, #2]
 800150c:	021b      	lsls	r3, r3, #8
 800150e:	b21a      	sxth	r2, r3
 8001510:	4b0b      	ldr	r3, [pc, #44]	; (8001540 <read_gyro_lsb+0xd4>)
 8001512:	78db      	ldrb	r3, [r3, #3]
 8001514:	b21b      	sxth	r3, r3
 8001516:	4313      	orrs	r3, r2
 8001518:	b21a      	sxth	r2, r3
 800151a:	687b      	ldr	r3, [r7, #4]
 800151c:	805a      	strh	r2, [r3, #2]
		icm20948->gyro_lsb_z = (int16_t)(rx_buffer[4] << 8 | rx_buffer[5]);
 800151e:	4b08      	ldr	r3, [pc, #32]	; (8001540 <read_gyro_lsb+0xd4>)
 8001520:	791b      	ldrb	r3, [r3, #4]
 8001522:	021b      	lsls	r3, r3, #8
 8001524:	b21a      	sxth	r2, r3
 8001526:	4b06      	ldr	r3, [pc, #24]	; (8001540 <read_gyro_lsb+0xd4>)
 8001528:	795b      	ldrb	r3, [r3, #5]
 800152a:	b21b      	sxth	r3, r3
 800152c:	4313      	orrs	r3, r2
 800152e:	b21a      	sxth	r2, r3
 8001530:	687b      	ldr	r3, [r7, #4]
 8001532:	809a      	strh	r2, [r3, #4]
}
 8001534:	bf00      	nop
 8001536:	3708      	adds	r7, #8
 8001538:	46bd      	mov	sp, r7
 800153a:	bd80      	pop	{r7, pc}
 800153c:	200000d0 	.word	0x200000d0
 8001540:	200000c8 	.word	0x200000c8
 8001544:	00000000 	.word	0x00000000

08001548 <read_gyro_dps>:

void read_gyro_dps(icm20948_t* icm20948)	
{
 8001548:	b590      	push	{r4, r7, lr}
 800154a:	b083      	sub	sp, #12
 800154c:	af00      	add	r7, sp, #0
 800154e:	6078      	str	r0, [r7, #4]
	// get lsb data
	read_gyro_lsb(icm20948);
 8001550:	6878      	ldr	r0, [r7, #4]
 8001552:	f7ff ff8b 	bl	800146c <read_gyro_lsb>

	// divide by 131(lsb/dps)
	icm20948->gyro_dps_x = icm20948->gyro_lsb_x / 131.0;
 8001556:	687b      	ldr	r3, [r7, #4]
 8001558:	f9b3 3000 	ldrsh.w	r3, [r3]
 800155c:	4618      	mov	r0, r3
 800155e:	f7fe ff8d 	bl	800047c <__aeabi_i2d>
 8001562:	a317      	add	r3, pc, #92	; (adr r3, 80015c0 <read_gyro_dps+0x78>)
 8001564:	e9d3 2300 	ldrd	r2, r3, [r3]
 8001568:	f7ff f91c 	bl	80007a4 <__aeabi_ddiv>
 800156c:	4603      	mov	r3, r0
 800156e:	460c      	mov	r4, r1
 8001570:	687a      	ldr	r2, [r7, #4]
 8001572:	e9c2 3402 	strd	r3, r4, [r2, #8]
	icm20948->gyro_dps_y = icm20948->gyro_lsb_y / 131.0;
 8001576:	687b      	ldr	r3, [r7, #4]
 8001578:	f9b3 3002 	ldrsh.w	r3, [r3, #2]
 800157c:	4618      	mov	r0, r3
 800157e:	f7fe ff7d 	bl	800047c <__aeabi_i2d>
 8001582:	a30f      	add	r3, pc, #60	; (adr r3, 80015c0 <read_gyro_dps+0x78>)
 8001584:	e9d3 2300 	ldrd	r2, r3, [r3]
 8001588:	f7ff f90c 	bl	80007a4 <__aeabi_ddiv>
 800158c:	4603      	mov	r3, r0
 800158e:	460c      	mov	r4, r1
 8001590:	687a      	ldr	r2, [r7, #4]
 8001592:	e9c2 3404 	strd	r3, r4, [r2, #16]
	icm20948->gyro_dps_z = icm20948->gyro_lsb_z / 131.0;  
 8001596:	687b      	ldr	r3, [r7, #4]
 8001598:	f9b3 3004 	ldrsh.w	r3, [r3, #4]
 800159c:	4618      	mov	r0, r3
 800159e:	f7fe ff6d 	bl	800047c <__aeabi_i2d>
 80015a2:	a307      	add	r3, pc, #28	; (adr r3, 80015c0 <read_gyro_dps+0x78>)
 80015a4:	e9d3 2300 	ldrd	r2, r3, [r3]
 80015a8:	f7ff f8fc 	bl	80007a4 <__aeabi_ddiv>
 80015ac:	4603      	mov	r3, r0
 80015ae:	460c      	mov	r4, r1
 80015b0:	687a      	ldr	r2, [r7, #4]
 80015b2:	e9c2 3406 	strd	r3, r4, [r2, #24]
}
 80015b6:	bf00      	nop
 80015b8:	370c      	adds	r7, #12
 80015ba:	46bd      	mov	sp, r7
 80015bc:	bd90      	pop	{r4, r7, pc}
 80015be:	bf00      	nop
 80015c0:	00000000 	.word	0x00000000
 80015c4:	40606000 	.word	0x40606000

080015c8 <read_accel_lsb>:


// read aceel
void read_accel_lsb(icm20948_t* icm20948)	// 22us
{
 80015c8:	b580      	push	{r7, lr}
 80015ca:	b082      	sub	sp, #8
 80015cc:	af00      	add	r7, sp, #0
 80015ce:	6078      	str	r0, [r7, #4]
	icm20948_read(B0_ACCEL_XOUT_H, 6);
 80015d0:	2106      	movs	r1, #6
 80015d2:	202d      	movs	r0, #45	; 0x2d
 80015d4:	f7ff fe3c 	bl	8001250 <icm20948_read>
	
	if(my_offset.offsetting == 1)
 80015d8:	4b2f      	ldr	r3, [pc, #188]	; (8001698 <read_accel_lsb+0xd0>)
 80015da:	781b      	ldrb	r3, [r3, #0]
 80015dc:	2b00      	cmp	r3, #0
 80015de:	d036      	beq.n	800164e <read_accel_lsb+0x86>
	{
		icm20948->accel_lsb_x = (int16_t)(rx_buffer[0] << 8 | rx_buffer[1]) - my_offset.accel_x;
 80015e0:	4b2e      	ldr	r3, [pc, #184]	; (800169c <read_accel_lsb+0xd4>)
 80015e2:	781b      	ldrb	r3, [r3, #0]
 80015e4:	021b      	lsls	r3, r3, #8
 80015e6:	b21a      	sxth	r2, r3
 80015e8:	4b2c      	ldr	r3, [pc, #176]	; (800169c <read_accel_lsb+0xd4>)
 80015ea:	785b      	ldrb	r3, [r3, #1]
 80015ec:	b21b      	sxth	r3, r3
 80015ee:	4313      	orrs	r3, r2
 80015f0:	b21b      	sxth	r3, r3
 80015f2:	b29a      	uxth	r2, r3
 80015f4:	4b28      	ldr	r3, [pc, #160]	; (8001698 <read_accel_lsb+0xd0>)
 80015f6:	691b      	ldr	r3, [r3, #16]
 80015f8:	b29b      	uxth	r3, r3
 80015fa:	1ad3      	subs	r3, r2, r3
 80015fc:	b29b      	uxth	r3, r3
 80015fe:	b21a      	sxth	r2, r3
 8001600:	687b      	ldr	r3, [r7, #4]
 8001602:	841a      	strh	r2, [r3, #32]
		icm20948->accel_lsb_y = (int16_t)(rx_buffer[2] << 8 | rx_buffer[3]) - my_offset.accel_y;
 8001604:	4b25      	ldr	r3, [pc, #148]	; (800169c <read_accel_lsb+0xd4>)
 8001606:	789b      	ldrb	r3, [r3, #2]
 8001608:	021b      	lsls	r3, r3, #8
 800160a:	b21a      	sxth	r2, r3
 800160c:	4b23      	ldr	r3, [pc, #140]	; (800169c <read_accel_lsb+0xd4>)
 800160e:	78db      	ldrb	r3, [r3, #3]
 8001610:	b21b      	sxth	r3, r3
 8001612:	4313      	orrs	r3, r2
 8001614:	b21b      	sxth	r3, r3
 8001616:	b29a      	uxth	r2, r3
 8001618:	4b1f      	ldr	r3, [pc, #124]	; (8001698 <read_accel_lsb+0xd0>)
 800161a:	695b      	ldr	r3, [r3, #20]
 800161c:	b29b      	uxth	r3, r3
 800161e:	1ad3      	subs	r3, r2, r3
 8001620:	b29b      	uxth	r3, r3
 8001622:	b21a      	sxth	r2, r3
 8001624:	687b      	ldr	r3, [r7, #4]
 8001626:	845a      	strh	r2, [r3, #34]	; 0x22
		icm20948->accel_lsb_z = (int16_t)(rx_buffer[4] << 8 | rx_buffer[5]) - my_offset.accel_z;
 8001628:	4b1c      	ldr	r3, [pc, #112]	; (800169c <read_accel_lsb+0xd4>)
 800162a:	791b      	ldrb	r3, [r3, #4]
 800162c:	021b      	lsls	r3, r3, #8
 800162e:	b21a      	sxth	r2, r3
 8001630:	4b1a      	ldr	r3, [pc, #104]	; (800169c <read_accel_lsb+0xd4>)
 8001632:	795b      	ldrb	r3, [r3, #5]
 8001634:	b21b      	sxth	r3, r3
 8001636:	4313      	orrs	r3, r2
 8001638:	b21b      	sxth	r3, r3
 800163a:	b29a      	uxth	r2, r3
 800163c:	4b16      	ldr	r3, [pc, #88]	; (8001698 <read_accel_lsb+0xd0>)
 800163e:	699b      	ldr	r3, [r3, #24]
 8001640:	b29b      	uxth	r3, r3
 8001642:	1ad3      	subs	r3, r2, r3
 8001644:	b29b      	uxth	r3, r3
 8001646:	b21a      	sxth	r2, r3
 8001648:	687b      	ldr	r3, [r7, #4]
 800164a:	849a      	strh	r2, [r3, #36]	; 0x24
	{
		icm20948->accel_lsb_x = (int16_t)(rx_buffer[0] << 8 | rx_buffer[1]);
		icm20948->accel_lsb_y = (int16_t)(rx_buffer[2] << 8 | rx_buffer[3]);
		icm20948->accel_lsb_z = (int16_t)(rx_buffer[4] << 8 | rx_buffer[5]);
	}
}
 800164c:	e020      	b.n	8001690 <read_accel_lsb+0xc8>
		icm20948->accel_lsb_x = (int16_t)(rx_buffer[0] << 8 | rx_buffer[1]);
 800164e:	4b13      	ldr	r3, [pc, #76]	; (800169c <read_accel_lsb+0xd4>)
 8001650:	781b      	ldrb	r3, [r3, #0]
 8001652:	021b      	lsls	r3, r3, #8
 8001654:	b21a      	sxth	r2, r3
 8001656:	4b11      	ldr	r3, [pc, #68]	; (800169c <read_accel_lsb+0xd4>)
 8001658:	785b      	ldrb	r3, [r3, #1]
 800165a:	b21b      	sxth	r3, r3
 800165c:	4313      	orrs	r3, r2
 800165e:	b21a      	sxth	r2, r3
 8001660:	687b      	ldr	r3, [r7, #4]
 8001662:	841a      	strh	r2, [r3, #32]
		icm20948->accel_lsb_y = (int16_t)(rx_buffer[2] << 8 | rx_buffer[3]);
 8001664:	4b0d      	ldr	r3, [pc, #52]	; (800169c <read_accel_lsb+0xd4>)
 8001666:	789b      	ldrb	r3, [r3, #2]
 8001668:	021b      	lsls	r3, r3, #8
 800166a:	b21a      	sxth	r2, r3
 800166c:	4b0b      	ldr	r3, [pc, #44]	; (800169c <read_accel_lsb+0xd4>)
 800166e:	78db      	ldrb	r3, [r3, #3]
 8001670:	b21b      	sxth	r3, r3
 8001672:	4313      	orrs	r3, r2
 8001674:	b21a      	sxth	r2, r3
 8001676:	687b      	ldr	r3, [r7, #4]
 8001678:	845a      	strh	r2, [r3, #34]	; 0x22
		icm20948->accel_lsb_z = (int16_t)(rx_buffer[4] << 8 | rx_buffer[5]);
 800167a:	4b08      	ldr	r3, [pc, #32]	; (800169c <read_accel_lsb+0xd4>)
 800167c:	791b      	ldrb	r3, [r3, #4]
 800167e:	021b      	lsls	r3, r3, #8
 8001680:	b21a      	sxth	r2, r3
 8001682:	4b06      	ldr	r3, [pc, #24]	; (800169c <read_accel_lsb+0xd4>)
 8001684:	795b      	ldrb	r3, [r3, #5]
 8001686:	b21b      	sxth	r3, r3
 8001688:	4313      	orrs	r3, r2
 800168a:	b21a      	sxth	r2, r3
 800168c:	687b      	ldr	r3, [r7, #4]
 800168e:	849a      	strh	r2, [r3, #36]	; 0x24
}
 8001690:	bf00      	nop
 8001692:	3708      	adds	r7, #8
 8001694:	46bd      	mov	sp, r7
 8001696:	bd80      	pop	{r7, pc}
 8001698:	200000d0 	.word	0x200000d0
 800169c:	200000c8 	.word	0x200000c8

080016a0 <read_accel_g>:

void read_accel_g(icm20948_t* icm20948)
{
 80016a0:	b590      	push	{r4, r7, lr}
 80016a2:	b083      	sub	sp, #12
 80016a4:	af00      	add	r7, sp, #0
 80016a6:	6078      	str	r0, [r7, #4]
	read_accel_lsb(icm20948);
 80016a8:	6878      	ldr	r0, [r7, #4]
 80016aa:	f7ff ff8d 	bl	80015c8 <read_accel_lsb>

	icm20948->accel_g_x = icm20948->accel_lsb_x / 16384.0;
 80016ae:	687b      	ldr	r3, [r7, #4]
 80016b0:	f9b3 3020 	ldrsh.w	r3, [r3, #32]
 80016b4:	4618      	mov	r0, r3
 80016b6:	f7fe fee1 	bl	800047c <__aeabi_i2d>
 80016ba:	f04f 0200 	mov.w	r2, #0
 80016be:	4b1a      	ldr	r3, [pc, #104]	; (8001728 <read_accel_g+0x88>)
 80016c0:	f7ff f870 	bl	80007a4 <__aeabi_ddiv>
 80016c4:	4603      	mov	r3, r0
 80016c6:	460c      	mov	r4, r1
 80016c8:	687a      	ldr	r2, [r7, #4]
 80016ca:	e9c2 340a 	strd	r3, r4, [r2, #40]	; 0x28
	icm20948->accel_g_y = icm20948->accel_lsb_y / 16384.0;
 80016ce:	687b      	ldr	r3, [r7, #4]
 80016d0:	f9b3 3022 	ldrsh.w	r3, [r3, #34]	; 0x22
 80016d4:	4618      	mov	r0, r3
 80016d6:	f7fe fed1 	bl	800047c <__aeabi_i2d>
 80016da:	f04f 0200 	mov.w	r2, #0
 80016de:	4b12      	ldr	r3, [pc, #72]	; (8001728 <read_accel_g+0x88>)
 80016e0:	f7ff f860 	bl	80007a4 <__aeabi_ddiv>
 80016e4:	4603      	mov	r3, r0
 80016e6:	460c      	mov	r4, r1
 80016e8:	687a      	ldr	r2, [r7, #4]
 80016ea:	e9c2 340c 	strd	r3, r4, [r2, #48]	; 0x30
	icm20948->accel_g_z = (icm20948->accel_lsb_z / 16384.0) + 1;
 80016ee:	687b      	ldr	r3, [r7, #4]
 80016f0:	f9b3 3024 	ldrsh.w	r3, [r3, #36]	; 0x24
 80016f4:	4618      	mov	r0, r3
 80016f6:	f7fe fec1 	bl	800047c <__aeabi_i2d>
 80016fa:	f04f 0200 	mov.w	r2, #0
 80016fe:	4b0a      	ldr	r3, [pc, #40]	; (8001728 <read_accel_g+0x88>)
 8001700:	f7ff f850 	bl	80007a4 <__aeabi_ddiv>
 8001704:	4603      	mov	r3, r0
 8001706:	460c      	mov	r4, r1
 8001708:	4618      	mov	r0, r3
 800170a:	4621      	mov	r1, r4
 800170c:	f04f 0200 	mov.w	r2, #0
 8001710:	4b06      	ldr	r3, [pc, #24]	; (800172c <read_accel_g+0x8c>)
 8001712:	f7fe fd67 	bl	80001e4 <__adddf3>
 8001716:	4603      	mov	r3, r0
 8001718:	460c      	mov	r4, r1
 800171a:	687a      	ldr	r2, [r7, #4]
 800171c:	e9c2 340e 	strd	r3, r4, [r2, #56]	; 0x38
}
 8001720:	bf00      	nop
 8001722:	370c      	adds	r7, #12
 8001724:	46bd      	mov	sp, r7
 8001726:	bd90      	pop	{r4, r7, pc}
 8001728:	40d00000 	.word	0x40d00000
 800172c:	3ff00000 	.word	0x3ff00000

08001730 <calibrate_icm20948>:
}


// calibrate gyro and accel
void calibrate_icm20948(icm20948_t* icm20948, uint16_t samples)
{
 8001730:	b580      	push	{r7, lr}
 8001732:	b084      	sub	sp, #16
 8001734:	af00      	add	r7, sp, #0
 8001736:	6078      	str	r0, [r7, #4]
 8001738:	460b      	mov	r3, r1
 800173a:	807b      	strh	r3, [r7, #2]
	// for read function
	select_user_bank(userbank_0);
 800173c:	2000      	movs	r0, #0
 800173e:	f7ff fd79 	bl	8001234 <select_user_bank>

	// average
	for(int i = 0; i < samples; i++)
 8001742:	2300      	movs	r3, #0
 8001744:	60fb      	str	r3, [r7, #12]
 8001746:	e038      	b.n	80017ba <calibrate_icm20948+0x8a>
	{
		read_gyro_lsb(icm20948);
 8001748:	6878      	ldr	r0, [r7, #4]
 800174a:	f7ff fe8f 	bl	800146c <read_gyro_lsb>
		read_accel_lsb(icm20948);
 800174e:	6878      	ldr	r0, [r7, #4]
 8001750:	f7ff ff3a 	bl	80015c8 <read_accel_lsb>

		my_offset.gyro_x += icm20948->gyro_lsb_x;
 8001754:	4b35      	ldr	r3, [pc, #212]	; (800182c <calibrate_icm20948+0xfc>)
 8001756:	685b      	ldr	r3, [r3, #4]
 8001758:	687a      	ldr	r2, [r7, #4]
 800175a:	f9b2 2000 	ldrsh.w	r2, [r2]
 800175e:	4413      	add	r3, r2
 8001760:	4a32      	ldr	r2, [pc, #200]	; (800182c <calibrate_icm20948+0xfc>)
 8001762:	6053      	str	r3, [r2, #4]
		my_offset.gyro_y += icm20948->gyro_lsb_y;
 8001764:	4b31      	ldr	r3, [pc, #196]	; (800182c <calibrate_icm20948+0xfc>)
 8001766:	689b      	ldr	r3, [r3, #8]
 8001768:	687a      	ldr	r2, [r7, #4]
 800176a:	f9b2 2002 	ldrsh.w	r2, [r2, #2]
 800176e:	4413      	add	r3, r2
 8001770:	4a2e      	ldr	r2, [pc, #184]	; (800182c <calibrate_icm20948+0xfc>)
 8001772:	6093      	str	r3, [r2, #8]
		my_offset.gyro_z += icm20948->gyro_lsb_z;
 8001774:	4b2d      	ldr	r3, [pc, #180]	; (800182c <calibrate_icm20948+0xfc>)
 8001776:	68db      	ldr	r3, [r3, #12]
 8001778:	687a      	ldr	r2, [r7, #4]
 800177a:	f9b2 2004 	ldrsh.w	r2, [r2, #4]
 800177e:	4413      	add	r3, r2
 8001780:	4a2a      	ldr	r2, [pc, #168]	; (800182c <calibrate_icm20948+0xfc>)
 8001782:	60d3      	str	r3, [r2, #12]

		my_offset.accel_x += icm20948->accel_lsb_x;
 8001784:	4b29      	ldr	r3, [pc, #164]	; (800182c <calibrate_icm20948+0xfc>)
 8001786:	691b      	ldr	r3, [r3, #16]
 8001788:	687a      	ldr	r2, [r7, #4]
 800178a:	f9b2 2020 	ldrsh.w	r2, [r2, #32]
 800178e:	4413      	add	r3, r2
 8001790:	4a26      	ldr	r2, [pc, #152]	; (800182c <calibrate_icm20948+0xfc>)
 8001792:	6113      	str	r3, [r2, #16]
		my_offset.accel_y += icm20948->accel_lsb_y;
 8001794:	4b25      	ldr	r3, [pc, #148]	; (800182c <calibrate_icm20948+0xfc>)
 8001796:	695b      	ldr	r3, [r3, #20]
 8001798:	687a      	ldr	r2, [r7, #4]
 800179a:	f9b2 2022 	ldrsh.w	r2, [r2, #34]	; 0x22
 800179e:	4413      	add	r3, r2
 80017a0:	4a22      	ldr	r2, [pc, #136]	; (800182c <calibrate_icm20948+0xfc>)
 80017a2:	6153      	str	r3, [r2, #20]
		my_offset.accel_z += icm20948->accel_lsb_z;
 80017a4:	4b21      	ldr	r3, [pc, #132]	; (800182c <calibrate_icm20948+0xfc>)
 80017a6:	699b      	ldr	r3, [r3, #24]
 80017a8:	687a      	ldr	r2, [r7, #4]
 80017aa:	f9b2 2024 	ldrsh.w	r2, [r2, #36]	; 0x24
 80017ae:	4413      	add	r3, r2
 80017b0:	4a1e      	ldr	r2, [pc, #120]	; (800182c <calibrate_icm20948+0xfc>)
 80017b2:	6193      	str	r3, [r2, #24]
	for(int i = 0; i < samples; i++)
 80017b4:	68fb      	ldr	r3, [r7, #12]
 80017b6:	3301      	adds	r3, #1
 80017b8:	60fb      	str	r3, [r7, #12]
 80017ba:	887b      	ldrh	r3, [r7, #2]
 80017bc:	68fa      	ldr	r2, [r7, #12]
 80017be:	429a      	cmp	r2, r3
 80017c0:	dbc2      	blt.n	8001748 <calibrate_icm20948+0x18>
	}

	my_offset.gyro_x /= samples;
 80017c2:	4b1a      	ldr	r3, [pc, #104]	; (800182c <calibrate_icm20948+0xfc>)
 80017c4:	685a      	ldr	r2, [r3, #4]
 80017c6:	887b      	ldrh	r3, [r7, #2]
 80017c8:	fb92 f3f3 	sdiv	r3, r2, r3
 80017cc:	4a17      	ldr	r2, [pc, #92]	; (800182c <calibrate_icm20948+0xfc>)
 80017ce:	6053      	str	r3, [r2, #4]
	my_offset.gyro_y /= samples;	
 80017d0:	4b16      	ldr	r3, [pc, #88]	; (800182c <calibrate_icm20948+0xfc>)
 80017d2:	689a      	ldr	r2, [r3, #8]
 80017d4:	887b      	ldrh	r3, [r7, #2]
 80017d6:	fb92 f3f3 	sdiv	r3, r2, r3
 80017da:	4a14      	ldr	r2, [pc, #80]	; (800182c <calibrate_icm20948+0xfc>)
 80017dc:	6093      	str	r3, [r2, #8]
	my_offset.gyro_z /= samples;
 80017de:	4b13      	ldr	r3, [pc, #76]	; (800182c <calibrate_icm20948+0xfc>)
 80017e0:	68da      	ldr	r2, [r3, #12]
 80017e2:	887b      	ldrh	r3, [r7, #2]
 80017e4:	fb92 f3f3 	sdiv	r3, r2, r3
 80017e8:	4a10      	ldr	r2, [pc, #64]	; (800182c <calibrate_icm20948+0xfc>)
 80017ea:	60d3      	str	r3, [r2, #12]

	my_offset.accel_x /= samples;
 80017ec:	4b0f      	ldr	r3, [pc, #60]	; (800182c <calibrate_icm20948+0xfc>)
 80017ee:	691a      	ldr	r2, [r3, #16]
 80017f0:	887b      	ldrh	r3, [r7, #2]
 80017f2:	fb92 f3f3 	sdiv	r3, r2, r3
 80017f6:	4a0d      	ldr	r2, [pc, #52]	; (800182c <calibrate_icm20948+0xfc>)
 80017f8:	6113      	str	r3, [r2, #16]
	my_offset.accel_y /= samples;	
 80017fa:	4b0c      	ldr	r3, [pc, #48]	; (800182c <calibrate_icm20948+0xfc>)
 80017fc:	695a      	ldr	r2, [r3, #20]
 80017fe:	887b      	ldrh	r3, [r7, #2]
 8001800:	fb92 f3f3 	sdiv	r3, r2, r3
 8001804:	4a09      	ldr	r2, [pc, #36]	; (800182c <calibrate_icm20948+0xfc>)
 8001806:	6153      	str	r3, [r2, #20]
	my_offset.accel_z /= samples;
 8001808:	4b08      	ldr	r3, [pc, #32]	; (800182c <calibrate_icm20948+0xfc>)
 800180a:	699a      	ldr	r2, [r3, #24]
 800180c:	887b      	ldrh	r3, [r7, #2]
 800180e:	fb92 f3f3 	sdiv	r3, r2, r3
 8001812:	4a06      	ldr	r2, [pc, #24]	; (800182c <calibrate_icm20948+0xfc>)
 8001814:	6193      	str	r3, [r2, #24]

	// offset flag
	my_offset.offsetting = 1;
 8001816:	4b05      	ldr	r3, [pc, #20]	; (800182c <calibrate_icm20948+0xfc>)
 8001818:	2201      	movs	r2, #1
 800181a:	701a      	strb	r2, [r3, #0]

	// for read function
	select_user_bank(userbank_0);
 800181c:	2000      	movs	r0, #0
 800181e:	f7ff fd09 	bl	8001234 <select_user_bank>
}
 8001822:	bf00      	nop
 8001824:	3710      	adds	r7, #16
 8001826:	46bd      	mov	sp, r7
 8001828:	bd80      	pop	{r7, pc}
 800182a:	bf00      	nop
 800182c:	200000d0 	.word	0x200000d0

08001830 <complementary_filter>:


void complementary_filter(icm20948_t *icm20948, angle_t *angle)
{
 8001830:	e92d 43b0 	stmdb	sp!, {r4, r5, r7, r8, r9, lr}
 8001834:	b082      	sub	sp, #8
 8001836:	af00      	add	r7, sp, #0
 8001838:	6078      	str	r0, [r7, #4]
 800183a:	6039      	str	r1, [r7, #0]
	read_gyro_dps(icm20948);
 800183c:	6878      	ldr	r0, [r7, #4]
 800183e:	f7ff fe83 	bl	8001548 <read_gyro_dps>
	read_accel_g(icm20948);
 8001842:	6878      	ldr	r0, [r7, #4]
 8001844:	f7ff ff2c 	bl	80016a0 <read_accel_g>

	// angle from gyro
	// dt : 1.125ms
	angle->gyro_angle_x += icm20948->gyro_dps_x * dt;
 8001848:	683b      	ldr	r3, [r7, #0]
 800184a:	e9d3 4500 	ldrd	r4, r5, [r3]
 800184e:	687b      	ldr	r3, [r7, #4]
 8001850:	e9d3 0102 	ldrd	r0, r1, [r3, #8]
 8001854:	a38e      	add	r3, pc, #568	; (adr r3, 8001a90 <complementary_filter+0x260>)
 8001856:	e9d3 2300 	ldrd	r2, r3, [r3]
 800185a:	f7fe fe79 	bl	8000550 <__aeabi_dmul>
 800185e:	4602      	mov	r2, r0
 8001860:	460b      	mov	r3, r1
 8001862:	4620      	mov	r0, r4
 8001864:	4629      	mov	r1, r5
 8001866:	f7fe fcbd 	bl	80001e4 <__adddf3>
 800186a:	4603      	mov	r3, r0
 800186c:	460c      	mov	r4, r1
 800186e:	683a      	ldr	r2, [r7, #0]
 8001870:	e9c2 3400 	strd	r3, r4, [r2]
	angle->gyro_angle_y += icm20948->gyro_dps_y * dt;
 8001874:	683b      	ldr	r3, [r7, #0]
 8001876:	e9d3 4502 	ldrd	r4, r5, [r3, #8]
 800187a:	687b      	ldr	r3, [r7, #4]
 800187c:	e9d3 0104 	ldrd	r0, r1, [r3, #16]
 8001880:	a383      	add	r3, pc, #524	; (adr r3, 8001a90 <complementary_filter+0x260>)
 8001882:	e9d3 2300 	ldrd	r2, r3, [r3]
 8001886:	f7fe fe63 	bl	8000550 <__aeabi_dmul>
 800188a:	4602      	mov	r2, r0
 800188c:	460b      	mov	r3, r1
 800188e:	4620      	mov	r0, r4
 8001890:	4629      	mov	r1, r5
 8001892:	f7fe fca7 	bl	80001e4 <__adddf3>
 8001896:	4603      	mov	r3, r0
 8001898:	460c      	mov	r4, r1
 800189a:	683a      	ldr	r2, [r7, #0]
 800189c:	e9c2 3402 	strd	r3, r4, [r2, #8]
	angle->gyro_angle_z += icm20948->gyro_dps_z * dt;
 80018a0:	683b      	ldr	r3, [r7, #0]
 80018a2:	e9d3 4504 	ldrd	r4, r5, [r3, #16]
 80018a6:	687b      	ldr	r3, [r7, #4]
 80018a8:	e9d3 0106 	ldrd	r0, r1, [r3, #24]
 80018ac:	a378      	add	r3, pc, #480	; (adr r3, 8001a90 <complementary_filter+0x260>)
 80018ae:	e9d3 2300 	ldrd	r2, r3, [r3]
 80018b2:	f7fe fe4d 	bl	8000550 <__aeabi_dmul>
 80018b6:	4602      	mov	r2, r0
 80018b8:	460b      	mov	r3, r1
 80018ba:	4620      	mov	r0, r4
 80018bc:	4629      	mov	r1, r5
 80018be:	f7fe fc91 	bl	80001e4 <__adddf3>
 80018c2:	4603      	mov	r3, r0
 80018c4:	460c      	mov	r4, r1
 80018c6:	683a      	ldr	r2, [r7, #0]
 80018c8:	e9c2 3404 	strd	r3, r4, [r2, #16]

	// angle from accel
	angle->accel_angle_x = atan(icm20948->accel_g_y / sqrt( pow(icm20948->accel_g_x, 2) + pow(icm20948->accel_g_z, 2) ) ) * 57.3;
 80018cc:	687b      	ldr	r3, [r7, #4]
 80018ce:	e9d3 450c 	ldrd	r4, r5, [r3, #48]	; 0x30
 80018d2:	687b      	ldr	r3, [r7, #4]
 80018d4:	ed93 7b0a 	vldr	d7, [r3, #40]	; 0x28
 80018d8:	ed9f 1b6b 	vldr	d1, [pc, #428]	; 8001a88 <complementary_filter+0x258>
 80018dc:	eeb0 0a47 	vmov.f32	s0, s14
 80018e0:	eef0 0a67 	vmov.f32	s1, s15
 80018e4:	f004 ff3e 	bl	8006764 <pow>
 80018e8:	ec59 8b10 	vmov	r8, r9, d0
 80018ec:	687b      	ldr	r3, [r7, #4]
 80018ee:	ed93 7b0e 	vldr	d7, [r3, #56]	; 0x38
 80018f2:	ed9f 1b65 	vldr	d1, [pc, #404]	; 8001a88 <complementary_filter+0x258>
 80018f6:	eeb0 0a47 	vmov.f32	s0, s14
 80018fa:	eef0 0a67 	vmov.f32	s1, s15
 80018fe:	f004 ff31 	bl	8006764 <pow>
 8001902:	ec53 2b10 	vmov	r2, r3, d0
 8001906:	4640      	mov	r0, r8
 8001908:	4649      	mov	r1, r9
 800190a:	f7fe fc6b 	bl	80001e4 <__adddf3>
 800190e:	4602      	mov	r2, r0
 8001910:	460b      	mov	r3, r1
 8001912:	ec43 2b17 	vmov	d7, r2, r3
 8001916:	eeb0 0a47 	vmov.f32	s0, s14
 800191a:	eef0 0a67 	vmov.f32	s1, s15
 800191e:	f005 f891 	bl	8006a44 <sqrt>
 8001922:	ec53 2b10 	vmov	r2, r3, d0
 8001926:	4620      	mov	r0, r4
 8001928:	4629      	mov	r1, r5
 800192a:	f7fe ff3b 	bl	80007a4 <__aeabi_ddiv>
 800192e:	4603      	mov	r3, r0
 8001930:	460c      	mov	r4, r1
 8001932:	ec44 3b17 	vmov	d7, r3, r4
 8001936:	eeb0 0a47 	vmov.f32	s0, s14
 800193a:	eef0 0a67 	vmov.f32	s1, s15
 800193e:	f004 fd67 	bl	8006410 <atan>
 8001942:	ec51 0b10 	vmov	r0, r1, d0
 8001946:	a354      	add	r3, pc, #336	; (adr r3, 8001a98 <complementary_filter+0x268>)
 8001948:	e9d3 2300 	ldrd	r2, r3, [r3]
 800194c:	f7fe fe00 	bl	8000550 <__aeabi_dmul>
 8001950:	4603      	mov	r3, r0
 8001952:	460c      	mov	r4, r1
 8001954:	683a      	ldr	r2, [r7, #0]
 8001956:	e9c2 3406 	strd	r3, r4, [r2, #24]
	angle->accel_angle_y = atan(icm20948->accel_g_x / sqrt( pow(icm20948->accel_g_y, 2) + pow(icm20948->accel_g_z, 2) ) ) * 57.3;
 800195a:	687b      	ldr	r3, [r7, #4]
 800195c:	e9d3 450a 	ldrd	r4, r5, [r3, #40]	; 0x28
 8001960:	687b      	ldr	r3, [r7, #4]
 8001962:	ed93 7b0c 	vldr	d7, [r3, #48]	; 0x30
 8001966:	ed9f 1b48 	vldr	d1, [pc, #288]	; 8001a88 <complementary_filter+0x258>
 800196a:	eeb0 0a47 	vmov.f32	s0, s14
 800196e:	eef0 0a67 	vmov.f32	s1, s15
 8001972:	f004 fef7 	bl	8006764 <pow>
 8001976:	ec59 8b10 	vmov	r8, r9, d0
 800197a:	687b      	ldr	r3, [r7, #4]
 800197c:	ed93 7b0e 	vldr	d7, [r3, #56]	; 0x38
 8001980:	ed9f 1b41 	vldr	d1, [pc, #260]	; 8001a88 <complementary_filter+0x258>
 8001984:	eeb0 0a47 	vmov.f32	s0, s14
 8001988:	eef0 0a67 	vmov.f32	s1, s15
 800198c:	f004 feea 	bl	8006764 <pow>
 8001990:	ec53 2b10 	vmov	r2, r3, d0
 8001994:	4640      	mov	r0, r8
 8001996:	4649      	mov	r1, r9
 8001998:	f7fe fc24 	bl	80001e4 <__adddf3>
 800199c:	4602      	mov	r2, r0
 800199e:	460b      	mov	r3, r1
 80019a0:	ec43 2b17 	vmov	d7, r2, r3
 80019a4:	eeb0 0a47 	vmov.f32	s0, s14
 80019a8:	eef0 0a67 	vmov.f32	s1, s15
 80019ac:	f005 f84a 	bl	8006a44 <sqrt>
 80019b0:	ec53 2b10 	vmov	r2, r3, d0
 80019b4:	4620      	mov	r0, r4
 80019b6:	4629      	mov	r1, r5
 80019b8:	f7fe fef4 	bl	80007a4 <__aeabi_ddiv>
 80019bc:	4603      	mov	r3, r0
 80019be:	460c      	mov	r4, r1
 80019c0:	ec44 3b17 	vmov	d7, r3, r4
 80019c4:	eeb0 0a47 	vmov.f32	s0, s14
 80019c8:	eef0 0a67 	vmov.f32	s1, s15
 80019cc:	f004 fd20 	bl	8006410 <atan>
 80019d0:	ec51 0b10 	vmov	r0, r1, d0
 80019d4:	a330      	add	r3, pc, #192	; (adr r3, 8001a98 <complementary_filter+0x268>)
 80019d6:	e9d3 2300 	ldrd	r2, r3, [r3]
 80019da:	f7fe fdb9 	bl	8000550 <__aeabi_dmul>
 80019de:	4603      	mov	r3, r0
 80019e0:	460c      	mov	r4, r1
 80019e2:	683a      	ldr	r2, [r7, #0]
 80019e4:	e9c2 3408 	strd	r3, r4, [r2, #32]
	angle->accel_angle_z = 0;
 80019e8:	683a      	ldr	r2, [r7, #0]
 80019ea:	f04f 0300 	mov.w	r3, #0
 80019ee:	f04f 0400 	mov.w	r4, #0
 80019f2:	e9c2 340a 	strd	r3, r4, [r2, #40]	; 0x28

	// angle from complementary filter
	angle->angle_x = ALPHA * angle->gyro_angle_x + (1 - ALPHA) * angle->accel_angle_x;
 80019f6:	683b      	ldr	r3, [r7, #0]
 80019f8:	e9d3 0100 	ldrd	r0, r1, [r3]
 80019fc:	a328      	add	r3, pc, #160	; (adr r3, 8001aa0 <complementary_filter+0x270>)
 80019fe:	e9d3 2300 	ldrd	r2, r3, [r3]
 8001a02:	f7fe fda5 	bl	8000550 <__aeabi_dmul>
 8001a06:	4603      	mov	r3, r0
 8001a08:	460c      	mov	r4, r1
 8001a0a:	4625      	mov	r5, r4
 8001a0c:	461c      	mov	r4, r3
 8001a0e:	683b      	ldr	r3, [r7, #0]
 8001a10:	e9d3 0106 	ldrd	r0, r1, [r3, #24]
 8001a14:	a324      	add	r3, pc, #144	; (adr r3, 8001aa8 <complementary_filter+0x278>)
 8001a16:	e9d3 2300 	ldrd	r2, r3, [r3]
 8001a1a:	f7fe fd99 	bl	8000550 <__aeabi_dmul>
 8001a1e:	4602      	mov	r2, r0
 8001a20:	460b      	mov	r3, r1
 8001a22:	4620      	mov	r0, r4
 8001a24:	4629      	mov	r1, r5
 8001a26:	f7fe fbdd 	bl	80001e4 <__adddf3>
 8001a2a:	4603      	mov	r3, r0
 8001a2c:	460c      	mov	r4, r1
 8001a2e:	683a      	ldr	r2, [r7, #0]
 8001a30:	e9c2 340c 	strd	r3, r4, [r2, #48]	; 0x30
	angle->angle_y = ALPHA * angle->gyro_angle_y + (1 - ALPHA) * angle->accel_angle_y;
 8001a34:	683b      	ldr	r3, [r7, #0]
 8001a36:	e9d3 0102 	ldrd	r0, r1, [r3, #8]
 8001a3a:	a319      	add	r3, pc, #100	; (adr r3, 8001aa0 <complementary_filter+0x270>)
 8001a3c:	e9d3 2300 	ldrd	r2, r3, [r3]
 8001a40:	f7fe fd86 	bl	8000550 <__aeabi_dmul>
 8001a44:	4603      	mov	r3, r0
 8001a46:	460c      	mov	r4, r1
 8001a48:	4625      	mov	r5, r4
 8001a4a:	461c      	mov	r4, r3
 8001a4c:	683b      	ldr	r3, [r7, #0]
 8001a4e:	e9d3 0108 	ldrd	r0, r1, [r3, #32]
 8001a52:	a315      	add	r3, pc, #84	; (adr r3, 8001aa8 <complementary_filter+0x278>)
 8001a54:	e9d3 2300 	ldrd	r2, r3, [r3]
 8001a58:	f7fe fd7a 	bl	8000550 <__aeabi_dmul>
 8001a5c:	4602      	mov	r2, r0
 8001a5e:	460b      	mov	r3, r1
 8001a60:	4620      	mov	r0, r4
 8001a62:	4629      	mov	r1, r5
 8001a64:	f7fe fbbe 	bl	80001e4 <__adddf3>
 8001a68:	4603      	mov	r3, r0
 8001a6a:	460c      	mov	r4, r1
 8001a6c:	683a      	ldr	r2, [r7, #0]
 8001a6e:	e9c2 340e 	strd	r3, r4, [r2, #56]	; 0x38
	angle->angle_z = angle->gyro_angle_z;
 8001a72:	683b      	ldr	r3, [r7, #0]
 8001a74:	e9d3 3404 	ldrd	r3, r4, [r3, #16]
 8001a78:	683a      	ldr	r2, [r7, #0]
 8001a7a:	e9c2 3410 	strd	r3, r4, [r2, #64]	; 0x40

 8001a7e:	bf00      	nop
 8001a80:	3708      	adds	r7, #8
 8001a82:	46bd      	mov	sp, r7
 8001a84:	e8bd 83b0 	ldmia.w	sp!, {r4, r5, r7, r8, r9, pc}
 8001a88:	00000000 	.word	0x00000000
 8001a8c:	40000000 	.word	0x40000000
 8001a90:	8d4fdf3b 	.word	0x8d4fdf3b
 8001a94:	3f526e97 	.word	0x3f526e97
 8001a98:	66666666 	.word	0x66666666
 8001a9c:	404ca666 	.word	0x404ca666
 8001aa0:	eb851eb8 	.word	0xeb851eb8
 8001aa4:	3feeb851 	.word	0x3feeb851
 8001aa8:	47ae1480 	.word	0x47ae1480
 8001aac:	3fa47ae1 	.word	0x3fa47ae1

08001ab0 <reset_my_variable>:
void SystemClock_Config(void);
/* USER CODE BEGIN PFP */

// reset variable if drone is disarming
void reset_my_variable()
{
 8001ab0:	b580      	push	{r7, lr}
 8001ab2:	af00      	add	r7, sp, #0
	// sensor
	memset(&my_icm20948, 0, sizeof(icm20948_t));
 8001ab4:	2240      	movs	r2, #64	; 0x40
 8001ab6:	2100      	movs	r1, #0
 8001ab8:	4807      	ldr	r0, [pc, #28]	; (8001ad8 <reset_my_variable+0x28>)
 8001aba:	f004 fca1 	bl	8006400 <memset>
	memset(&my_angle, 0, sizeof(angle_t));
 8001abe:	2248      	movs	r2, #72	; 0x48
 8001ac0:	2100      	movs	r1, #0
 8001ac2:	4806      	ldr	r0, [pc, #24]	; (8001adc <reset_my_variable+0x2c>)
 8001ac4:	f004 fc9c 	bl	8006400 <memset>

	// motor
	memset(&my_value, 0, sizeof(throttle_a) * 4);
 8001ac8:	2208      	movs	r2, #8
 8001aca:	2100      	movs	r1, #0
 8001acc:	4804      	ldr	r0, [pc, #16]	; (8001ae0 <reset_my_variable+0x30>)
 8001ace:	f004 fc97 	bl	8006400 <memset>
}
 8001ad2:	bf00      	nop
 8001ad4:	bd80      	pop	{r7, pc}
 8001ad6:	bf00      	nop
 8001ad8:	200000f8 	.word	0x200000f8
 8001adc:	20000138 	.word	0x20000138
 8001ae0:	20000180 	.word	0x20000180

08001ae4 <HAL_TIM_PeriodElapsedCallback>:
/* USER CODE BEGIN 0 */


// preemption priority : 1
void HAL_TIM_PeriodElapsedCallback(TIM_HandleTypeDef *htim)
{
 8001ae4:	b580      	push	{r7, lr}
 8001ae6:	b082      	sub	sp, #8
 8001ae8:	af00      	add	r7, sp, #0
 8001aea:	6078      	str	r0, [r7, #4]
  // 1.125khz loop
  if (htim == &htim11)
 8001aec:	687b      	ldr	r3, [r7, #4]
 8001aee:	4a18      	ldr	r2, [pc, #96]	; (8001b50 <HAL_TIM_PeriodElapsedCallback+0x6c>)
 8001af0:	4293      	cmp	r3, r2
 8001af2:	d128      	bne.n	8001b46 <HAL_TIM_PeriodElapsedCallback+0x62>
  {
	  // RC receiver
	  my_ibus_state = ibus_read_channel(my_channel);
 8001af4:	4817      	ldr	r0, [pc, #92]	; (8001b54 <HAL_TIM_PeriodElapsedCallback+0x70>)
 8001af6:	f7ff fa71 	bl	8000fdc <ibus_read_channel>
 8001afa:	4603      	mov	r3, r0
 8001afc:	461a      	mov	r2, r3
 8001afe:	4b16      	ldr	r3, [pc, #88]	; (8001b58 <HAL_TIM_PeriodElapsedCallback+0x74>)
 8001b00:	701a      	strb	r2, [r3, #0]
	  ibus_software_failsafe(&my_ibus_state, &my_ibus_check);
 8001b02:	4916      	ldr	r1, [pc, #88]	; (8001b5c <HAL_TIM_PeriodElapsedCallback+0x78>)
 8001b04:	4814      	ldr	r0, [pc, #80]	; (8001b58 <HAL_TIM_PeriodElapsedCallback+0x74>)
 8001b06:	f7ff faf1 	bl	80010ec <ibus_software_failsafe>

	  // arming & fail-safe
	  if(my_channel[4] == 2000 && my_ibus_state != IBUS_MISSING)
 8001b0a:	4b12      	ldr	r3, [pc, #72]	; (8001b54 <HAL_TIM_PeriodElapsedCallback+0x70>)
 8001b0c:	891b      	ldrh	r3, [r3, #8]
 8001b0e:	f5b3 6ffa 	cmp.w	r3, #2000	; 0x7d0
 8001b12:	d10d      	bne.n	8001b30 <HAL_TIM_PeriodElapsedCallback+0x4c>
 8001b14:	4b10      	ldr	r3, [pc, #64]	; (8001b58 <HAL_TIM_PeriodElapsedCallback+0x74>)
 8001b16:	781b      	ldrb	r3, [r3, #0]
 8001b18:	2b01      	cmp	r3, #1
 8001b1a:	d009      	beq.n	8001b30 <HAL_TIM_PeriodElapsedCallback+0x4c>
	  {
		  // angle
		  complementary_filter(&my_icm20948, &my_angle);
 8001b1c:	4910      	ldr	r1, [pc, #64]	; (8001b60 <HAL_TIM_PeriodElapsedCallback+0x7c>)
 8001b1e:	4811      	ldr	r0, [pc, #68]	; (8001b64 <HAL_TIM_PeriodElapsedCallback+0x80>)
 8001b20:	f7ff fe86 	bl	8001830 <complementary_filter>

		  // pid
		  //p_control(&my_balancing_force, &my_target_angle, &my_angle);

		  // distribute
		  distribute(my_value, my_channel, &my_balancing_force);
 8001b24:	4a10      	ldr	r2, [pc, #64]	; (8001b68 <HAL_TIM_PeriodElapsedCallback+0x84>)
 8001b26:	490b      	ldr	r1, [pc, #44]	; (8001b54 <HAL_TIM_PeriodElapsedCallback+0x70>)
 8001b28:	4810      	ldr	r0, [pc, #64]	; (8001b6c <HAL_TIM_PeriodElapsedCallback+0x88>)
 8001b2a:	f000 f8d1 	bl	8001cd0 <distribute>
 8001b2e:	e001      	b.n	8001b34 <HAL_TIM_PeriodElapsedCallback+0x50>

	  // disarming
	  else
	  {
		  // reset variable
		  reset_my_variable();
 8001b30:	f7ff ffbe 	bl	8001ab0 <reset_my_variable>
	  }

	  // send throttle
	  run_dshot600(&my_motors, my_value);
 8001b34:	490d      	ldr	r1, [pc, #52]	; (8001b6c <HAL_TIM_PeriodElapsedCallback+0x88>)
 8001b36:	480e      	ldr	r0, [pc, #56]	; (8001b70 <HAL_TIM_PeriodElapsedCallback+0x8c>)
 8001b38:	f7ff f9ea 	bl	8000f10 <run_dshot600>
	  }

	  */

	  // running time
	  period_us = __HAL_TIM_GET_COUNTER(&htim11);
 8001b3c:	4b04      	ldr	r3, [pc, #16]	; (8001b50 <HAL_TIM_PeriodElapsedCallback+0x6c>)
 8001b3e:	681b      	ldr	r3, [r3, #0]
 8001b40:	6a5b      	ldr	r3, [r3, #36]	; 0x24
 8001b42:	4a0c      	ldr	r2, [pc, #48]	; (8001b74 <HAL_TIM_PeriodElapsedCallback+0x90>)
 8001b44:	6013      	str	r3, [r2, #0]

  }

}
 8001b46:	bf00      	nop
 8001b48:	3708      	adds	r7, #8
 8001b4a:	46bd      	mov	sp, r7
 8001b4c:	bd80      	pop	{r7, pc}
 8001b4e:	bf00      	nop
 8001b50:	20000428 	.word	0x20000428
 8001b54:	2000018c 	.word	0x2000018c
 8001b58:	20000188 	.word	0x20000188
 8001b5c:	20000189 	.word	0x20000189
 8001b60:	20000138 	.word	0x20000138
 8001b64:	200000f8 	.word	0x200000f8
 8001b68:	20000198 	.word	0x20000198
 8001b6c:	20000180 	.word	0x20000180
 8001b70:	200001b0 	.word	0x200001b0
 8001b74:	200000ec 	.word	0x200000ec

08001b78 <HAL_UART_RxCpltCallback>:


// ibus protocol receive interrupt
// preemption priority : 0
void HAL_UART_RxCpltCallback(UART_HandleTypeDef *huart)
{
 8001b78:	b480      	push	{r7}
 8001b7a:	b083      	sub	sp, #12
 8001b7c:	af00      	add	r7, sp, #0
 8001b7e:	6078      	str	r0, [r7, #4]

	}
	*/


}
 8001b80:	bf00      	nop
 8001b82:	370c      	adds	r7, #12
 8001b84:	46bd      	mov	sp, r7
 8001b86:	f85d 7b04 	ldr.w	r7, [sp], #4
 8001b8a:	4770      	bx	lr

08001b8c <main>:
/**
  * @brief  The application entry point.
  * @retval int
  */
int main(void)
{
 8001b8c:	b580      	push	{r7, lr}
 8001b8e:	af00      	add	r7, sp, #0
  /* USER CODE END 1 */

  /* MCU Configuration--------------------------------------------------------*/

  /* Reset of all peripherals, Initializes the Flash interface and the Systick. */
  HAL_Init();
 8001b90:	f000 fdfa 	bl	8002788 <HAL_Init>


  /* USER CODE END Init */

  /* Configure the system clock */
  SystemClock_Config();
 8001b94:	f000 f830 	bl	8001bf8 <SystemClock_Config>
  /* USER CODE BEGIN SysInit */

  /* USER CODE END SysInit */

  /* Initialize all configured peripherals */
  MX_GPIO_Init();
 8001b98:	f7ff facc 	bl	8001134 <MX_GPIO_Init>
  MX_DMA_Init();
 8001b9c:	f7ff f928 	bl	8000df0 <MX_DMA_Init>
  MX_SPI1_Init();
 8001ba0:	f000 f986 	bl	8001eb0 <MX_SPI1_Init>
  MX_TIM2_Init();
 8001ba4:	f000 faa6 	bl	80020f4 <MX_TIM2_Init>
  MX_TIM5_Init();
 8001ba8:	f000 fb06 	bl	80021b8 <MX_TIM5_Init>
  MX_TIM11_Init();
 8001bac:	f000 fb68 	bl	8002280 <MX_TIM11_Init>
  MX_USART1_UART_Init();
 8001bb0:	f000 fd46 	bl	8002640 <MX_USART1_UART_Init>
  /* USER CODE BEGIN 2 */



  // check rc receiver
  ibus_init();
 8001bb4:	f7ff fa04 	bl	8000fc0 <ibus_init>

  // init dshot
  //dshot_init(&my_motors);

  // check sensor id
  id_icm20948 = whoami_icm20948();
 8001bb8:	f7ff fbe8 	bl	800138c <whoami_icm20948>
 8001bbc:	4603      	mov	r3, r0
 8001bbe:	461a      	mov	r2, r3
 8001bc0:	4b09      	ldr	r3, [pc, #36]	; (8001be8 <main+0x5c>)
 8001bc2:	701a      	strb	r2, [r3, #0]
  id_ak09916 = whoami_ak09916();
 8001bc4:	f7ff fbf2 	bl	80013ac <whoami_ak09916>
 8001bc8:	4603      	mov	r3, r0
 8001bca:	461a      	mov	r2, r3
 8001bcc:	4b07      	ldr	r3, [pc, #28]	; (8001bec <main+0x60>)
 8001bce:	701a      	strb	r2, [r3, #0]

  // init sensor
  icm20948_init();
 8001bd0:	f7ff fbf8 	bl	80013c4 <icm20948_init>
  ak09916_init();
 8001bd4:	f7ff fc29 	bl	800142a <ak09916_init>

  // calibrate sensor
  calibrate_icm20948(&my_icm20948, 100);
 8001bd8:	2164      	movs	r1, #100	; 0x64
 8001bda:	4805      	ldr	r0, [pc, #20]	; (8001bf0 <main+0x64>)
 8001bdc:	f7ff fda8 	bl	8001730 <calibrate_icm20948>

  // 1khz loop
  HAL_TIM_Base_Start_IT(&htim11);
 8001be0:	4804      	ldr	r0, [pc, #16]	; (8001bf4 <main+0x68>)
 8001be2:	f002 fe5e 	bl	80048a2 <HAL_TIM_Base_Start_IT>

  /* USER CODE END 2 */

  /* Infinite loop */
  /* USER CODE BEGIN WHILE */
  while (1)
 8001be6:	e7fe      	b.n	8001be6 <main+0x5a>
 8001be8:	200000f0 	.word	0x200000f0
 8001bec:	200000f1 	.word	0x200000f1
 8001bf0:	200000f8 	.word	0x200000f8
 8001bf4:	20000428 	.word	0x20000428

08001bf8 <SystemClock_Config>:
/**
  * @brief System Clock Configuration
  * @retval None
  */
void SystemClock_Config(void)
{
 8001bf8:	b580      	push	{r7, lr}
 8001bfa:	b094      	sub	sp, #80	; 0x50
 8001bfc:	af00      	add	r7, sp, #0
  RCC_OscInitTypeDef RCC_OscInitStruct = {0};
 8001bfe:	f107 0320 	add.w	r3, r7, #32
 8001c02:	2230      	movs	r2, #48	; 0x30
 8001c04:	2100      	movs	r1, #0
 8001c06:	4618      	mov	r0, r3
 8001c08:	f004 fbfa 	bl	8006400 <memset>
  RCC_ClkInitTypeDef RCC_ClkInitStruct = {0};
 8001c0c:	f107 030c 	add.w	r3, r7, #12
 8001c10:	2200      	movs	r2, #0
 8001c12:	601a      	str	r2, [r3, #0]
 8001c14:	605a      	str	r2, [r3, #4]
 8001c16:	609a      	str	r2, [r3, #8]
 8001c18:	60da      	str	r2, [r3, #12]
 8001c1a:	611a      	str	r2, [r3, #16]

  /** Configure the main internal regulator output voltage
  */
  __HAL_RCC_PWR_CLK_ENABLE();
 8001c1c:	2300      	movs	r3, #0
 8001c1e:	60bb      	str	r3, [r7, #8]
 8001c20:	4b27      	ldr	r3, [pc, #156]	; (8001cc0 <SystemClock_Config+0xc8>)
 8001c22:	6c1b      	ldr	r3, [r3, #64]	; 0x40
 8001c24:	4a26      	ldr	r2, [pc, #152]	; (8001cc0 <SystemClock_Config+0xc8>)
 8001c26:	f043 5380 	orr.w	r3, r3, #268435456	; 0x10000000
 8001c2a:	6413      	str	r3, [r2, #64]	; 0x40
 8001c2c:	4b24      	ldr	r3, [pc, #144]	; (8001cc0 <SystemClock_Config+0xc8>)
 8001c2e:	6c1b      	ldr	r3, [r3, #64]	; 0x40
 8001c30:	f003 5380 	and.w	r3, r3, #268435456	; 0x10000000
 8001c34:	60bb      	str	r3, [r7, #8]
 8001c36:	68bb      	ldr	r3, [r7, #8]
  __HAL_PWR_VOLTAGESCALING_CONFIG(PWR_REGULATOR_VOLTAGE_SCALE1);
 8001c38:	2300      	movs	r3, #0
 8001c3a:	607b      	str	r3, [r7, #4]
 8001c3c:	4b21      	ldr	r3, [pc, #132]	; (8001cc4 <SystemClock_Config+0xcc>)
 8001c3e:	681b      	ldr	r3, [r3, #0]
 8001c40:	4a20      	ldr	r2, [pc, #128]	; (8001cc4 <SystemClock_Config+0xcc>)
 8001c42:	f443 4340 	orr.w	r3, r3, #49152	; 0xc000
 8001c46:	6013      	str	r3, [r2, #0]
 8001c48:	4b1e      	ldr	r3, [pc, #120]	; (8001cc4 <SystemClock_Config+0xcc>)
 8001c4a:	681b      	ldr	r3, [r3, #0]
 8001c4c:	f403 4340 	and.w	r3, r3, #49152	; 0xc000
 8001c50:	607b      	str	r3, [r7, #4]
 8001c52:	687b      	ldr	r3, [r7, #4]
  /** Initializes the RCC Oscillators according to the specified parameters
  * in the RCC_OscInitTypeDef structure.
  */
  RCC_OscInitStruct.OscillatorType = RCC_OSCILLATORTYPE_HSI;
 8001c54:	2302      	movs	r3, #2
 8001c56:	623b      	str	r3, [r7, #32]
  RCC_OscInitStruct.HSIState = RCC_HSI_ON;
 8001c58:	2301      	movs	r3, #1
 8001c5a:	62fb      	str	r3, [r7, #44]	; 0x2c
  RCC_OscInitStruct.HSICalibrationValue = RCC_HSICALIBRATION_DEFAULT;
 8001c5c:	2310      	movs	r3, #16
 8001c5e:	633b      	str	r3, [r7, #48]	; 0x30
  RCC_OscInitStruct.PLL.PLLState = RCC_PLL_ON;
 8001c60:	2302      	movs	r3, #2
 8001c62:	63bb      	str	r3, [r7, #56]	; 0x38
  RCC_OscInitStruct.PLL.PLLSource = RCC_PLLSOURCE_HSI;
 8001c64:	2300      	movs	r3, #0
 8001c66:	63fb      	str	r3, [r7, #60]	; 0x3c
  RCC_OscInitStruct.PLL.PLLM = 8;
 8001c68:	2308      	movs	r3, #8
 8001c6a:	643b      	str	r3, [r7, #64]	; 0x40
  RCC_OscInitStruct.PLL.PLLN = 100;
 8001c6c:	2364      	movs	r3, #100	; 0x64
 8001c6e:	647b      	str	r3, [r7, #68]	; 0x44
  RCC_OscInitStruct.PLL.PLLP = RCC_PLLP_DIV2;
 8001c70:	2302      	movs	r3, #2
 8001c72:	64bb      	str	r3, [r7, #72]	; 0x48
  RCC_OscInitStruct.PLL.PLLQ = 4;
 8001c74:	2304      	movs	r3, #4
 8001c76:	64fb      	str	r3, [r7, #76]	; 0x4c
  if (HAL_RCC_OscConfig(&RCC_OscInitStruct) != HAL_OK)
 8001c78:	f107 0320 	add.w	r3, r7, #32
 8001c7c:	4618      	mov	r0, r3
 8001c7e:	f001 fc55 	bl	800352c <HAL_RCC_OscConfig>
 8001c82:	4603      	mov	r3, r0
 8001c84:	2b00      	cmp	r3, #0
 8001c86:	d001      	beq.n	8001c8c <SystemClock_Config+0x94>
  {
    Error_Handler();
 8001c88:	f000 f81e 	bl	8001cc8 <Error_Handler>
  }
  /** Initializes the CPU, AHB and APB buses clocks
  */
  RCC_ClkInitStruct.ClockType = RCC_CLOCKTYPE_HCLK|RCC_CLOCKTYPE_SYSCLK
 8001c8c:	230f      	movs	r3, #15
 8001c8e:	60fb      	str	r3, [r7, #12]
                              |RCC_CLOCKTYPE_PCLK1|RCC_CLOCKTYPE_PCLK2;
  RCC_ClkInitStruct.SYSCLKSource = RCC_SYSCLKSOURCE_PLLCLK;
 8001c90:	2302      	movs	r3, #2
 8001c92:	613b      	str	r3, [r7, #16]
  RCC_ClkInitStruct.AHBCLKDivider = RCC_SYSCLK_DIV1;
 8001c94:	2300      	movs	r3, #0
 8001c96:	617b      	str	r3, [r7, #20]
  RCC_ClkInitStruct.APB1CLKDivider = RCC_HCLK_DIV2;
 8001c98:	f44f 5380 	mov.w	r3, #4096	; 0x1000
 8001c9c:	61bb      	str	r3, [r7, #24]
  RCC_ClkInitStruct.APB2CLKDivider = RCC_HCLK_DIV1;
 8001c9e:	2300      	movs	r3, #0
 8001ca0:	61fb      	str	r3, [r7, #28]

  if (HAL_RCC_ClockConfig(&RCC_ClkInitStruct, FLASH_LATENCY_3) != HAL_OK)
 8001ca2:	f107 030c 	add.w	r3, r7, #12
 8001ca6:	2103      	movs	r1, #3
 8001ca8:	4618      	mov	r0, r3
 8001caa:	f001 feaf 	bl	8003a0c <HAL_RCC_ClockConfig>
 8001cae:	4603      	mov	r3, r0
 8001cb0:	2b00      	cmp	r3, #0
 8001cb2:	d001      	beq.n	8001cb8 <SystemClock_Config+0xc0>
  {
    Error_Handler();
 8001cb4:	f000 f808 	bl	8001cc8 <Error_Handler>
  }
}
 8001cb8:	bf00      	nop
 8001cba:	3750      	adds	r7, #80	; 0x50
 8001cbc:	46bd      	mov	sp, r7
 8001cbe:	bd80      	pop	{r7, pc}
 8001cc0:	40023800 	.word	0x40023800
 8001cc4:	40007000 	.word	0x40007000

08001cc8 <Error_Handler>:
/**
  * @brief  This function is executed in case of error occurrence.
  * @retval None
  */
void Error_Handler(void)
{
 8001cc8:	b480      	push	{r7}
 8001cca:	af00      	add	r7, sp, #0
  \details Disables IRQ interrupts by setting the I-bit in the CPSR.
           Can only be executed in Privileged modes.
 */
__STATIC_FORCEINLINE void __disable_irq(void)
{
  __ASM volatile ("cpsid i" : : : "memory");
 8001ccc:	b672      	cpsid	i
  /* USER CODE BEGIN Error_Handler_Debug */
  /* User can add his own implementation to report the HAL error return state */
  __disable_irq();
  while (1)
 8001cce:	e7fe      	b.n	8001cce <Error_Handler+0x6>

08001cd0 <distribute>:
}


// final value
void distribute(throttle_a *cal_value, rc_channel_a *channel, balancing_force_t *balancing_force)
{
 8001cd0:	b590      	push	{r4, r7, lr}
 8001cd2:	b087      	sub	sp, #28
 8001cd4:	af00      	add	r7, sp, #0
 8001cd6:	60f8      	str	r0, [r7, #12]
 8001cd8:	60b9      	str	r1, [r7, #8]
 8001cda:	607a      	str	r2, [r7, #4]
    uint16_t defalut_throttle = (channel[2] - 1000) * 2 + 47;
 8001cdc:	68bb      	ldr	r3, [r7, #8]
 8001cde:	3304      	adds	r3, #4
 8001ce0:	881b      	ldrh	r3, [r3, #0]
 8001ce2:	f503 43f8 	add.w	r3, r3, #31744	; 0x7c00
 8001ce6:	3318      	adds	r3, #24
 8001ce8:	b29b      	uxth	r3, r3
 8001cea:	005b      	lsls	r3, r3, #1
 8001cec:	b29b      	uxth	r3, r3
 8001cee:	332f      	adds	r3, #47	; 0x2f
 8001cf0:	827b      	strh	r3, [r7, #18]

    // motor mixing algorithm
    // add control value to defaut value
    cal_value[0] = defalut_throttle + balancing_force->yaw - balancing_force->pitch + balancing_force->roll;
 8001cf2:	8a7b      	ldrh	r3, [r7, #18]
 8001cf4:	4618      	mov	r0, r3
 8001cf6:	f7fe fbc1 	bl	800047c <__aeabi_i2d>
 8001cfa:	687b      	ldr	r3, [r7, #4]
 8001cfc:	e9d3 3404 	ldrd	r3, r4, [r3, #16]
 8001d00:	461a      	mov	r2, r3
 8001d02:	4623      	mov	r3, r4
 8001d04:	f7fe fa6e 	bl	80001e4 <__adddf3>
 8001d08:	4603      	mov	r3, r0
 8001d0a:	460c      	mov	r4, r1
 8001d0c:	4618      	mov	r0, r3
 8001d0e:	4621      	mov	r1, r4
 8001d10:	687b      	ldr	r3, [r7, #4]
 8001d12:	e9d3 3402 	ldrd	r3, r4, [r3, #8]
 8001d16:	461a      	mov	r2, r3
 8001d18:	4623      	mov	r3, r4
 8001d1a:	f7fe fa61 	bl	80001e0 <__aeabi_dsub>
 8001d1e:	4603      	mov	r3, r0
 8001d20:	460c      	mov	r4, r1
 8001d22:	4618      	mov	r0, r3
 8001d24:	4621      	mov	r1, r4
 8001d26:	687b      	ldr	r3, [r7, #4]
 8001d28:	e9d3 3400 	ldrd	r3, r4, [r3]
 8001d2c:	461a      	mov	r2, r3
 8001d2e:	4623      	mov	r3, r4
 8001d30:	f7fe fa58 	bl	80001e4 <__adddf3>
 8001d34:	4603      	mov	r3, r0
 8001d36:	460c      	mov	r4, r1
 8001d38:	4618      	mov	r0, r3
 8001d3a:	4621      	mov	r1, r4
 8001d3c:	f7fe feb8 	bl	8000ab0 <__aeabi_d2uiz>
 8001d40:	4603      	mov	r3, r0
 8001d42:	b29a      	uxth	r2, r3
 8001d44:	68fb      	ldr	r3, [r7, #12]
 8001d46:	801a      	strh	r2, [r3, #0]
    cal_value[1] = defalut_throttle - balancing_force->yaw - balancing_force->pitch - balancing_force->roll;
 8001d48:	8a7b      	ldrh	r3, [r7, #18]
 8001d4a:	4618      	mov	r0, r3
 8001d4c:	f7fe fb96 	bl	800047c <__aeabi_i2d>
 8001d50:	687b      	ldr	r3, [r7, #4]
 8001d52:	e9d3 3404 	ldrd	r3, r4, [r3, #16]
 8001d56:	461a      	mov	r2, r3
 8001d58:	4623      	mov	r3, r4
 8001d5a:	f7fe fa41 	bl	80001e0 <__aeabi_dsub>
 8001d5e:	4603      	mov	r3, r0
 8001d60:	460c      	mov	r4, r1
 8001d62:	4618      	mov	r0, r3
 8001d64:	4621      	mov	r1, r4
 8001d66:	687b      	ldr	r3, [r7, #4]
 8001d68:	e9d3 3402 	ldrd	r3, r4, [r3, #8]
 8001d6c:	461a      	mov	r2, r3
 8001d6e:	4623      	mov	r3, r4
 8001d70:	f7fe fa36 	bl	80001e0 <__aeabi_dsub>
 8001d74:	4603      	mov	r3, r0
 8001d76:	460c      	mov	r4, r1
 8001d78:	4618      	mov	r0, r3
 8001d7a:	4621      	mov	r1, r4
 8001d7c:	687b      	ldr	r3, [r7, #4]
 8001d7e:	e9d3 3400 	ldrd	r3, r4, [r3]
 8001d82:	461a      	mov	r2, r3
 8001d84:	4623      	mov	r3, r4
 8001d86:	f7fe fa2b 	bl	80001e0 <__aeabi_dsub>
 8001d8a:	4603      	mov	r3, r0
 8001d8c:	460c      	mov	r4, r1
 8001d8e:	4619      	mov	r1, r3
 8001d90:	4622      	mov	r2, r4
 8001d92:	68fb      	ldr	r3, [r7, #12]
 8001d94:	1c9c      	adds	r4, r3, #2
 8001d96:	4608      	mov	r0, r1
 8001d98:	4611      	mov	r1, r2
 8001d9a:	f7fe fe89 	bl	8000ab0 <__aeabi_d2uiz>
 8001d9e:	4603      	mov	r3, r0
 8001da0:	b29b      	uxth	r3, r3
 8001da2:	8023      	strh	r3, [r4, #0]
    cal_value[2] = defalut_throttle - balancing_force->yaw + balancing_force->pitch + balancing_force->roll;
 8001da4:	8a7b      	ldrh	r3, [r7, #18]
 8001da6:	4618      	mov	r0, r3
 8001da8:	f7fe fb68 	bl	800047c <__aeabi_i2d>
 8001dac:	687b      	ldr	r3, [r7, #4]
 8001dae:	e9d3 3404 	ldrd	r3, r4, [r3, #16]
 8001db2:	461a      	mov	r2, r3
 8001db4:	4623      	mov	r3, r4
 8001db6:	f7fe fa13 	bl	80001e0 <__aeabi_dsub>
 8001dba:	4603      	mov	r3, r0
 8001dbc:	460c      	mov	r4, r1
 8001dbe:	4618      	mov	r0, r3
 8001dc0:	4621      	mov	r1, r4
 8001dc2:	687b      	ldr	r3, [r7, #4]
 8001dc4:	e9d3 3402 	ldrd	r3, r4, [r3, #8]
 8001dc8:	461a      	mov	r2, r3
 8001dca:	4623      	mov	r3, r4
 8001dcc:	f7fe fa0a 	bl	80001e4 <__adddf3>
 8001dd0:	4603      	mov	r3, r0
 8001dd2:	460c      	mov	r4, r1
 8001dd4:	4618      	mov	r0, r3
 8001dd6:	4621      	mov	r1, r4
 8001dd8:	687b      	ldr	r3, [r7, #4]
 8001dda:	e9d3 3400 	ldrd	r3, r4, [r3]
 8001dde:	461a      	mov	r2, r3
 8001de0:	4623      	mov	r3, r4
 8001de2:	f7fe f9ff 	bl	80001e4 <__adddf3>
 8001de6:	4603      	mov	r3, r0
 8001de8:	460c      	mov	r4, r1
 8001dea:	4619      	mov	r1, r3
 8001dec:	4622      	mov	r2, r4
 8001dee:	68fb      	ldr	r3, [r7, #12]
 8001df0:	1d1c      	adds	r4, r3, #4
 8001df2:	4608      	mov	r0, r1
 8001df4:	4611      	mov	r1, r2
 8001df6:	f7fe fe5b 	bl	8000ab0 <__aeabi_d2uiz>
 8001dfa:	4603      	mov	r3, r0
 8001dfc:	b29b      	uxth	r3, r3
 8001dfe:	8023      	strh	r3, [r4, #0]
    cal_value[3] = defalut_throttle + balancing_force->yaw + balancing_force->pitch - balancing_force->roll;
 8001e00:	8a7b      	ldrh	r3, [r7, #18]
 8001e02:	4618      	mov	r0, r3
 8001e04:	f7fe fb3a 	bl	800047c <__aeabi_i2d>
 8001e08:	687b      	ldr	r3, [r7, #4]
 8001e0a:	e9d3 3404 	ldrd	r3, r4, [r3, #16]
 8001e0e:	461a      	mov	r2, r3
 8001e10:	4623      	mov	r3, r4
 8001e12:	f7fe f9e7 	bl	80001e4 <__adddf3>
 8001e16:	4603      	mov	r3, r0
 8001e18:	460c      	mov	r4, r1
 8001e1a:	4618      	mov	r0, r3
 8001e1c:	4621      	mov	r1, r4
 8001e1e:	687b      	ldr	r3, [r7, #4]
 8001e20:	e9d3 3402 	ldrd	r3, r4, [r3, #8]
 8001e24:	461a      	mov	r2, r3
 8001e26:	4623      	mov	r3, r4
 8001e28:	f7fe f9dc 	bl	80001e4 <__adddf3>
 8001e2c:	4603      	mov	r3, r0
 8001e2e:	460c      	mov	r4, r1
 8001e30:	4618      	mov	r0, r3
 8001e32:	4621      	mov	r1, r4
 8001e34:	687b      	ldr	r3, [r7, #4]
 8001e36:	e9d3 3400 	ldrd	r3, r4, [r3]
 8001e3a:	461a      	mov	r2, r3
 8001e3c:	4623      	mov	r3, r4
 8001e3e:	f7fe f9cf 	bl	80001e0 <__aeabi_dsub>
 8001e42:	4603      	mov	r3, r0
 8001e44:	460c      	mov	r4, r1
 8001e46:	4619      	mov	r1, r3
 8001e48:	4622      	mov	r2, r4
 8001e4a:	68fb      	ldr	r3, [r7, #12]
 8001e4c:	1d9c      	adds	r4, r3, #6
 8001e4e:	4608      	mov	r0, r1
 8001e50:	4611      	mov	r1, r2
 8001e52:	f7fe fe2d 	bl	8000ab0 <__aeabi_d2uiz>
 8001e56:	4603      	mov	r3, r0
 8001e58:	b29b      	uxth	r3, r3
 8001e5a:	8023      	strh	r3, [r4, #0]

    // limit
    for(int i = 0; i < 4; i++)
 8001e5c:	2300      	movs	r3, #0
 8001e5e:	617b      	str	r3, [r7, #20]
 8001e60:	e01e      	b.n	8001ea0 <distribute+0x1d0>
    {
        if(cal_value[i] < DSHOT_THROTTLE_MIN) cal_value[i] = DSHOT_THROTTLE_MIN;
 8001e62:	697b      	ldr	r3, [r7, #20]
 8001e64:	005b      	lsls	r3, r3, #1
 8001e66:	68fa      	ldr	r2, [r7, #12]
 8001e68:	4413      	add	r3, r2
 8001e6a:	881b      	ldrh	r3, [r3, #0]
 8001e6c:	2b2f      	cmp	r3, #47	; 0x2f
 8001e6e:	d805      	bhi.n	8001e7c <distribute+0x1ac>
 8001e70:	697b      	ldr	r3, [r7, #20]
 8001e72:	005b      	lsls	r3, r3, #1
 8001e74:	68fa      	ldr	r2, [r7, #12]
 8001e76:	4413      	add	r3, r2
 8001e78:	2230      	movs	r2, #48	; 0x30
 8001e7a:	801a      	strh	r2, [r3, #0]
        if(cal_value[i] > DSHOT_THROTTLE_MAX) cal_value[i] = DSHOT_THROTTLE_MAX;
 8001e7c:	697b      	ldr	r3, [r7, #20]
 8001e7e:	005b      	lsls	r3, r3, #1
 8001e80:	68fa      	ldr	r2, [r7, #12]
 8001e82:	4413      	add	r3, r2
 8001e84:	881b      	ldrh	r3, [r3, #0]
 8001e86:	f5b3 6f00 	cmp.w	r3, #2048	; 0x800
 8001e8a:	d306      	bcc.n	8001e9a <distribute+0x1ca>
 8001e8c:	697b      	ldr	r3, [r7, #20]
 8001e8e:	005b      	lsls	r3, r3, #1
 8001e90:	68fa      	ldr	r2, [r7, #12]
 8001e92:	4413      	add	r3, r2
 8001e94:	f240 72ff 	movw	r2, #2047	; 0x7ff
 8001e98:	801a      	strh	r2, [r3, #0]
    for(int i = 0; i < 4; i++)
 8001e9a:	697b      	ldr	r3, [r7, #20]
 8001e9c:	3301      	adds	r3, #1
 8001e9e:	617b      	str	r3, [r7, #20]
 8001ea0:	697b      	ldr	r3, [r7, #20]
 8001ea2:	2b03      	cmp	r3, #3
 8001ea4:	dddd      	ble.n	8001e62 <distribute+0x192>
    }
}
 8001ea6:	bf00      	nop
 8001ea8:	371c      	adds	r7, #28
 8001eaa:	46bd      	mov	sp, r7
 8001eac:	bd90      	pop	{r4, r7, pc}
	...

08001eb0 <MX_SPI1_Init>:
 8001eb0:	b580      	push	{r7, lr}
 8001eb2:	af00      	add	r7, sp, #0
 8001eb4:	4b17      	ldr	r3, [pc, #92]	; (8001f14 <MX_SPI1_Init+0x64>)
 8001eb6:	4a18      	ldr	r2, [pc, #96]	; (8001f18 <MX_SPI1_Init+0x68>)
 8001eb8:	601a      	str	r2, [r3, #0]
 8001eba:	4b16      	ldr	r3, [pc, #88]	; (8001f14 <MX_SPI1_Init+0x64>)
 8001ebc:	f44f 7282 	mov.w	r2, #260	; 0x104
 8001ec0:	605a      	str	r2, [r3, #4]
 8001ec2:	4b14      	ldr	r3, [pc, #80]	; (8001f14 <MX_SPI1_Init+0x64>)
 8001ec4:	2200      	movs	r2, #0
 8001ec6:	609a      	str	r2, [r3, #8]
 8001ec8:	4b12      	ldr	r3, [pc, #72]	; (8001f14 <MX_SPI1_Init+0x64>)
 8001eca:	2200      	movs	r2, #0
 8001ecc:	60da      	str	r2, [r3, #12]
 8001ece:	4b11      	ldr	r3, [pc, #68]	; (8001f14 <MX_SPI1_Init+0x64>)
 8001ed0:	2202      	movs	r2, #2
 8001ed2:	611a      	str	r2, [r3, #16]
 8001ed4:	4b0f      	ldr	r3, [pc, #60]	; (8001f14 <MX_SPI1_Init+0x64>)
 8001ed6:	2201      	movs	r2, #1
 8001ed8:	615a      	str	r2, [r3, #20]
 8001eda:	4b0e      	ldr	r3, [pc, #56]	; (8001f14 <MX_SPI1_Init+0x64>)
 8001edc:	f44f 7200 	mov.w	r2, #512	; 0x200
 8001ee0:	619a      	str	r2, [r3, #24]
 8001ee2:	4b0c      	ldr	r3, [pc, #48]	; (8001f14 <MX_SPI1_Init+0x64>)
 8001ee4:	2218      	movs	r2, #24
 8001ee6:	61da      	str	r2, [r3, #28]
 8001ee8:	4b0a      	ldr	r3, [pc, #40]	; (8001f14 <MX_SPI1_Init+0x64>)
 8001eea:	2200      	movs	r2, #0
 8001eec:	621a      	str	r2, [r3, #32]
 8001eee:	4b09      	ldr	r3, [pc, #36]	; (8001f14 <MX_SPI1_Init+0x64>)
 8001ef0:	2200      	movs	r2, #0
 8001ef2:	625a      	str	r2, [r3, #36]	; 0x24
 8001ef4:	4b07      	ldr	r3, [pc, #28]	; (8001f14 <MX_SPI1_Init+0x64>)
 8001ef6:	2200      	movs	r2, #0
 8001ef8:	629a      	str	r2, [r3, #40]	; 0x28
 8001efa:	4b06      	ldr	r3, [pc, #24]	; (8001f14 <MX_SPI1_Init+0x64>)
 8001efc:	220a      	movs	r2, #10
 8001efe:	62da      	str	r2, [r3, #44]	; 0x2c
 8001f00:	4804      	ldr	r0, [pc, #16]	; (8001f14 <MX_SPI1_Init+0x64>)
 8001f02:	f001 ff4f 	bl	8003da4 <HAL_SPI_Init>
 8001f06:	4603      	mov	r3, r0
 8001f08:	2b00      	cmp	r3, #0
 8001f0a:	d001      	beq.n	8001f10 <MX_SPI1_Init+0x60>
 8001f0c:	f7ff fedc 	bl	8001cc8 <Error_Handler>
 8001f10:	bf00      	nop
 8001f12:	bd80      	pop	{r7, pc}
 8001f14:	200002d0 	.word	0x200002d0
 8001f18:	40013000 	.word	0x40013000

08001f1c <HAL_SPI_MspInit>:
 8001f1c:	b580      	push	{r7, lr}
 8001f1e:	b08a      	sub	sp, #40	; 0x28
 8001f20:	af00      	add	r7, sp, #0
 8001f22:	6078      	str	r0, [r7, #4]
 8001f24:	f107 0314 	add.w	r3, r7, #20
 8001f28:	2200      	movs	r2, #0
 8001f2a:	601a      	str	r2, [r3, #0]
 8001f2c:	605a      	str	r2, [r3, #4]
 8001f2e:	609a      	str	r2, [r3, #8]
 8001f30:	60da      	str	r2, [r3, #12]
 8001f32:	611a      	str	r2, [r3, #16]
 8001f34:	687b      	ldr	r3, [r7, #4]
 8001f36:	681b      	ldr	r3, [r3, #0]
 8001f38:	4a19      	ldr	r2, [pc, #100]	; (8001fa0 <HAL_SPI_MspInit+0x84>)
 8001f3a:	4293      	cmp	r3, r2
 8001f3c:	d12b      	bne.n	8001f96 <HAL_SPI_MspInit+0x7a>
 8001f3e:	2300      	movs	r3, #0
 8001f40:	613b      	str	r3, [r7, #16]
 8001f42:	4b18      	ldr	r3, [pc, #96]	; (8001fa4 <HAL_SPI_MspInit+0x88>)
 8001f44:	6c5b      	ldr	r3, [r3, #68]	; 0x44
 8001f46:	4a17      	ldr	r2, [pc, #92]	; (8001fa4 <HAL_SPI_MspInit+0x88>)
 8001f48:	f443 5380 	orr.w	r3, r3, #4096	; 0x1000
 8001f4c:	6453      	str	r3, [r2, #68]	; 0x44
 8001f4e:	4b15      	ldr	r3, [pc, #84]	; (8001fa4 <HAL_SPI_MspInit+0x88>)
 8001f50:	6c5b      	ldr	r3, [r3, #68]	; 0x44
 8001f52:	f403 5380 	and.w	r3, r3, #4096	; 0x1000
 8001f56:	613b      	str	r3, [r7, #16]
 8001f58:	693b      	ldr	r3, [r7, #16]
 8001f5a:	2300      	movs	r3, #0
 8001f5c:	60fb      	str	r3, [r7, #12]
 8001f5e:	4b11      	ldr	r3, [pc, #68]	; (8001fa4 <HAL_SPI_MspInit+0x88>)
 8001f60:	6b1b      	ldr	r3, [r3, #48]	; 0x30
 8001f62:	4a10      	ldr	r2, [pc, #64]	; (8001fa4 <HAL_SPI_MspInit+0x88>)
 8001f64:	f043 0301 	orr.w	r3, r3, #1
 8001f68:	6313      	str	r3, [r2, #48]	; 0x30
 8001f6a:	4b0e      	ldr	r3, [pc, #56]	; (8001fa4 <HAL_SPI_MspInit+0x88>)
 8001f6c:	6b1b      	ldr	r3, [r3, #48]	; 0x30
 8001f6e:	f003 0301 	and.w	r3, r3, #1
 8001f72:	60fb      	str	r3, [r7, #12]
 8001f74:	68fb      	ldr	r3, [r7, #12]
 8001f76:	23e0      	movs	r3, #224	; 0xe0
 8001f78:	617b      	str	r3, [r7, #20]
 8001f7a:	2302      	movs	r3, #2
 8001f7c:	61bb      	str	r3, [r7, #24]
 8001f7e:	2300      	movs	r3, #0
 8001f80:	61fb      	str	r3, [r7, #28]
 8001f82:	2303      	movs	r3, #3
 8001f84:	623b      	str	r3, [r7, #32]
 8001f86:	2305      	movs	r3, #5
 8001f88:	627b      	str	r3, [r7, #36]	; 0x24
 8001f8a:	f107 0314 	add.w	r3, r7, #20
 8001f8e:	4619      	mov	r1, r3
 8001f90:	4805      	ldr	r0, [pc, #20]	; (8001fa8 <HAL_SPI_MspInit+0x8c>)
 8001f92:	f001 f92f 	bl	80031f4 <HAL_GPIO_Init>
 8001f96:	bf00      	nop
 8001f98:	3728      	adds	r7, #40	; 0x28
 8001f9a:	46bd      	mov	sp, r7
 8001f9c:	bd80      	pop	{r7, pc}
 8001f9e:	bf00      	nop
 8001fa0:	40013000 	.word	0x40013000
 8001fa4:	40023800 	.word	0x40023800
 8001fa8:	40020000 	.word	0x40020000

08001fac <HAL_MspInit>:
 8001fac:	b480      	push	{r7}
 8001fae:	b083      	sub	sp, #12
 8001fb0:	af00      	add	r7, sp, #0
 8001fb2:	2300      	movs	r3, #0
 8001fb4:	607b      	str	r3, [r7, #4]
 8001fb6:	4b10      	ldr	r3, [pc, #64]	; (8001ff8 <HAL_MspInit+0x4c>)
 8001fb8:	6c5b      	ldr	r3, [r3, #68]	; 0x44
 8001fba:	4a0f      	ldr	r2, [pc, #60]	; (8001ff8 <HAL_MspInit+0x4c>)
 8001fbc:	f443 4380 	orr.w	r3, r3, #16384	; 0x4000
 8001fc0:	6453      	str	r3, [r2, #68]	; 0x44
 8001fc2:	4b0d      	ldr	r3, [pc, #52]	; (8001ff8 <HAL_MspInit+0x4c>)
 8001fc4:	6c5b      	ldr	r3, [r3, #68]	; 0x44
 8001fc6:	f403 4380 	and.w	r3, r3, #16384	; 0x4000
 8001fca:	607b      	str	r3, [r7, #4]
 8001fcc:	687b      	ldr	r3, [r7, #4]
 8001fce:	2300      	movs	r3, #0
 8001fd0:	603b      	str	r3, [r7, #0]
 8001fd2:	4b09      	ldr	r3, [pc, #36]	; (8001ff8 <HAL_MspInit+0x4c>)
 8001fd4:	6c1b      	ldr	r3, [r3, #64]	; 0x40
 8001fd6:	4a08      	ldr	r2, [pc, #32]	; (8001ff8 <HAL_MspInit+0x4c>)
 8001fd8:	f043 5380 	orr.w	r3, r3, #268435456	; 0x10000000
 8001fdc:	6413      	str	r3, [r2, #64]	; 0x40
 8001fde:	4b06      	ldr	r3, [pc, #24]	; (8001ff8 <HAL_MspInit+0x4c>)
 8001fe0:	6c1b      	ldr	r3, [r3, #64]	; 0x40
 8001fe2:	f003 5380 	and.w	r3, r3, #268435456	; 0x10000000
 8001fe6:	603b      	str	r3, [r7, #0]
 8001fe8:	683b      	ldr	r3, [r7, #0]
 8001fea:	bf00      	nop
 8001fec:	370c      	adds	r7, #12
 8001fee:	46bd      	mov	sp, r7
 8001ff0:	f85d 7b04 	ldr.w	r7, [sp], #4
 8001ff4:	4770      	bx	lr
 8001ff6:	bf00      	nop
 8001ff8:	40023800 	.word	0x40023800

08001ffc <NMI_Handler>:
 8001ffc:	b480      	push	{r7}
 8001ffe:	af00      	add	r7, sp, #0
 8002000:	e7fe      	b.n	8002000 <NMI_Handler+0x4>

08002002 <HardFault_Handler>:
 8002002:	b480      	push	{r7}
 8002004:	af00      	add	r7, sp, #0
 8002006:	e7fe      	b.n	8002006 <HardFault_Handler+0x4>

08002008 <MemManage_Handler>:
 8002008:	b480      	push	{r7}
 800200a:	af00      	add	r7, sp, #0
 800200c:	e7fe      	b.n	800200c <MemManage_Handler+0x4>

0800200e <BusFault_Handler>:
 800200e:	b480      	push	{r7}
 8002010:	af00      	add	r7, sp, #0
 8002012:	e7fe      	b.n	8002012 <BusFault_Handler+0x4>

08002014 <UsageFault_Handler>:
 8002014:	b480      	push	{r7}
 8002016:	af00      	add	r7, sp, #0
 8002018:	e7fe      	b.n	8002018 <UsageFault_Handler+0x4>

0800201a <SVC_Handler>:
 800201a:	b480      	push	{r7}
 800201c:	af00      	add	r7, sp, #0
 800201e:	bf00      	nop
 8002020:	46bd      	mov	sp, r7
 8002022:	f85d 7b04 	ldr.w	r7, [sp], #4
 8002026:	4770      	bx	lr

08002028 <DebugMon_Handler>:
 8002028:	b480      	push	{r7}
 800202a:	af00      	add	r7, sp, #0
 800202c:	bf00      	nop
 800202e:	46bd      	mov	sp, r7
 8002030:	f85d 7b04 	ldr.w	r7, [sp], #4
 8002034:	4770      	bx	lr

08002036 <PendSV_Handler>:
 8002036:	b480      	push	{r7}
 8002038:	af00      	add	r7, sp, #0
 800203a:	bf00      	nop
 800203c:	46bd      	mov	sp, r7
 800203e:	f85d 7b04 	ldr.w	r7, [sp], #4
 8002042:	4770      	bx	lr

08002044 <SysTick_Handler>:
 8002044:	b580      	push	{r7, lr}
 8002046:	af00      	add	r7, sp, #0
 8002048:	f000 fbf0 	bl	800282c <HAL_IncTick>
 800204c:	bf00      	nop
 800204e:	bd80      	pop	{r7, pc}

08002050 <DMA1_Stream1_IRQHandler>:
 8002050:	b580      	push	{r7, lr}
 8002052:	af00      	add	r7, sp, #0
 8002054:	4802      	ldr	r0, [pc, #8]	; (8002060 <DMA1_Stream1_IRQHandler+0x10>)
 8002056:	f000 fe65 	bl	8002d24 <HAL_DMA_IRQHandler>
 800205a:	bf00      	nop
 800205c:	bd80      	pop	{r7, pc}
 800205e:	bf00      	nop
 8002060:	200004c8 	.word	0x200004c8

08002064 <DMA1_Stream3_IRQHandler>:
 8002064:	b580      	push	{r7, lr}
 8002066:	af00      	add	r7, sp, #0
 8002068:	4802      	ldr	r0, [pc, #8]	; (8002074 <DMA1_Stream3_IRQHandler+0x10>)
 800206a:	f000 fe5b 	bl	8002d24 <HAL_DMA_IRQHandler>
 800206e:	bf00      	nop
 8002070:	bd80      	pop	{r7, pc}
 8002072:	bf00      	nop
 8002074:	20000388 	.word	0x20000388

08002078 <DMA1_Stream4_IRQHandler>:
 8002078:	b580      	push	{r7, lr}
 800207a:	af00      	add	r7, sp, #0
 800207c:	4802      	ldr	r0, [pc, #8]	; (8002088 <DMA1_Stream4_IRQHandler+0x10>)
 800207e:	f000 fe51 	bl	8002d24 <HAL_DMA_IRQHandler>
 8002082:	bf00      	nop
 8002084:	bd80      	pop	{r7, pc}
 8002086:	bf00      	nop
 8002088:	20000468 	.word	0x20000468

0800208c <DMA1_Stream5_IRQHandler>:
 800208c:	b580      	push	{r7, lr}
 800208e:	af00      	add	r7, sp, #0
 8002090:	4802      	ldr	r0, [pc, #8]	; (800209c <DMA1_Stream5_IRQHandler+0x10>)
 8002092:	f000 fe47 	bl	8002d24 <HAL_DMA_IRQHandler>
 8002096:	bf00      	nop
 8002098:	bd80      	pop	{r7, pc}
 800209a:	bf00      	nop
 800209c:	20000328 	.word	0x20000328

080020a0 <TIM1_TRG_COM_TIM11_IRQHandler>:
 80020a0:	b580      	push	{r7, lr}
 80020a2:	af00      	add	r7, sp, #0
 80020a4:	4802      	ldr	r0, [pc, #8]	; (80020b0 <TIM1_TRG_COM_TIM11_IRQHandler+0x10>)
 80020a6:	f002 fd51 	bl	8004b4c <HAL_TIM_IRQHandler>
 80020aa:	bf00      	nop
 80020ac:	bd80      	pop	{r7, pc}
 80020ae:	bf00      	nop
 80020b0:	20000428 	.word	0x20000428

080020b4 <USART1_IRQHandler>:
 80020b4:	b580      	push	{r7, lr}
 80020b6:	af00      	add	r7, sp, #0
 80020b8:	4802      	ldr	r0, [pc, #8]	; (80020c4 <USART1_IRQHandler+0x10>)
 80020ba:	f003 fb7b 	bl	80057b4 <HAL_UART_IRQHandler>
 80020be:	bf00      	nop
 80020c0:	bd80      	pop	{r7, pc}
 80020c2:	bf00      	nop
 80020c4:	20000568 	.word	0x20000568

080020c8 <SystemInit>:
 80020c8:	b480      	push	{r7}
 80020ca:	af00      	add	r7, sp, #0
 80020cc:	4b08      	ldr	r3, [pc, #32]	; (80020f0 <SystemInit+0x28>)
 80020ce:	f8d3 3088 	ldr.w	r3, [r3, #136]	; 0x88
 80020d2:	4a07      	ldr	r2, [pc, #28]	; (80020f0 <SystemInit+0x28>)
 80020d4:	f443 0370 	orr.w	r3, r3, #15728640	; 0xf00000
 80020d8:	f8c2 3088 	str.w	r3, [r2, #136]	; 0x88
 80020dc:	4b04      	ldr	r3, [pc, #16]	; (80020f0 <SystemInit+0x28>)
 80020de:	f04f 6200 	mov.w	r2, #134217728	; 0x8000000
 80020e2:	609a      	str	r2, [r3, #8]
 80020e4:	bf00      	nop
 80020e6:	46bd      	mov	sp, r7
 80020e8:	f85d 7b04 	ldr.w	r7, [sp], #4
 80020ec:	4770      	bx	lr
 80020ee:	bf00      	nop
 80020f0:	e000ed00 	.word	0xe000ed00

080020f4 <MX_TIM2_Init>:
 80020f4:	b580      	push	{r7, lr}
 80020f6:	b08a      	sub	sp, #40	; 0x28
 80020f8:	af00      	add	r7, sp, #0
 80020fa:	f107 0320 	add.w	r3, r7, #32
 80020fe:	2200      	movs	r2, #0
 8002100:	601a      	str	r2, [r3, #0]
 8002102:	605a      	str	r2, [r3, #4]
 8002104:	1d3b      	adds	r3, r7, #4
 8002106:	2200      	movs	r2, #0
 8002108:	601a      	str	r2, [r3, #0]
 800210a:	605a      	str	r2, [r3, #4]
 800210c:	609a      	str	r2, [r3, #8]
 800210e:	60da      	str	r2, [r3, #12]
 8002110:	611a      	str	r2, [r3, #16]
 8002112:	615a      	str	r2, [r3, #20]
 8002114:	619a      	str	r2, [r3, #24]
 8002116:	4b27      	ldr	r3, [pc, #156]	; (80021b4 <MX_TIM2_Init+0xc0>)
 8002118:	f04f 4280 	mov.w	r2, #1073741824	; 0x40000000
 800211c:	601a      	str	r2, [r3, #0]
 800211e:	4b25      	ldr	r3, [pc, #148]	; (80021b4 <MX_TIM2_Init+0xc0>)
 8002120:	2207      	movs	r2, #7
 8002122:	605a      	str	r2, [r3, #4]
 8002124:	4b23      	ldr	r3, [pc, #140]	; (80021b4 <MX_TIM2_Init+0xc0>)
 8002126:	2200      	movs	r2, #0
 8002128:	609a      	str	r2, [r3, #8]
 800212a:	4b22      	ldr	r3, [pc, #136]	; (80021b4 <MX_TIM2_Init+0xc0>)
 800212c:	2214      	movs	r2, #20
 800212e:	60da      	str	r2, [r3, #12]
 8002130:	4b20      	ldr	r3, [pc, #128]	; (80021b4 <MX_TIM2_Init+0xc0>)
 8002132:	2200      	movs	r2, #0
 8002134:	611a      	str	r2, [r3, #16]
 8002136:	4b1f      	ldr	r3, [pc, #124]	; (80021b4 <MX_TIM2_Init+0xc0>)
 8002138:	2200      	movs	r2, #0
 800213a:	619a      	str	r2, [r3, #24]
 800213c:	481d      	ldr	r0, [pc, #116]	; (80021b4 <MX_TIM2_Init+0xc0>)
 800213e:	f002 fbd4 	bl	80048ea <HAL_TIM_PWM_Init>
 8002142:	4603      	mov	r3, r0
 8002144:	2b00      	cmp	r3, #0
 8002146:	d001      	beq.n	800214c <MX_TIM2_Init+0x58>
 8002148:	f7ff fdbe 	bl	8001cc8 <Error_Handler>
 800214c:	2300      	movs	r3, #0
 800214e:	623b      	str	r3, [r7, #32]
 8002150:	2300      	movs	r3, #0
 8002152:	627b      	str	r3, [r7, #36]	; 0x24
 8002154:	f107 0320 	add.w	r3, r7, #32
 8002158:	4619      	mov	r1, r3
 800215a:	4816      	ldr	r0, [pc, #88]	; (80021b4 <MX_TIM2_Init+0xc0>)
 800215c:	f003 f9b4 	bl	80054c8 <HAL_TIMEx_MasterConfigSynchronization>
 8002160:	4603      	mov	r3, r0
 8002162:	2b00      	cmp	r3, #0
 8002164:	d001      	beq.n	800216a <MX_TIM2_Init+0x76>
 8002166:	f7ff fdaf 	bl	8001cc8 <Error_Handler>
 800216a:	2360      	movs	r3, #96	; 0x60
 800216c:	607b      	str	r3, [r7, #4]
 800216e:	2300      	movs	r3, #0
 8002170:	60bb      	str	r3, [r7, #8]
 8002172:	2300      	movs	r3, #0
 8002174:	60fb      	str	r3, [r7, #12]
 8002176:	2300      	movs	r3, #0
 8002178:	617b      	str	r3, [r7, #20]
 800217a:	1d3b      	adds	r3, r7, #4
 800217c:	2200      	movs	r2, #0
 800217e:	4619      	mov	r1, r3
 8002180:	480c      	ldr	r0, [pc, #48]	; (80021b4 <MX_TIM2_Init+0xc0>)
 8002182:	f002 fdeb 	bl	8004d5c <HAL_TIM_PWM_ConfigChannel>
 8002186:	4603      	mov	r3, r0
 8002188:	2b00      	cmp	r3, #0
 800218a:	d001      	beq.n	8002190 <MX_TIM2_Init+0x9c>
 800218c:	f7ff fd9c 	bl	8001cc8 <Error_Handler>
 8002190:	1d3b      	adds	r3, r7, #4
 8002192:	2208      	movs	r2, #8
 8002194:	4619      	mov	r1, r3
 8002196:	4807      	ldr	r0, [pc, #28]	; (80021b4 <MX_TIM2_Init+0xc0>)
 8002198:	f002 fde0 	bl	8004d5c <HAL_TIM_PWM_ConfigChannel>
 800219c:	4603      	mov	r3, r0
 800219e:	2b00      	cmp	r3, #0
 80021a0:	d001      	beq.n	80021a6 <MX_TIM2_Init+0xb2>
 80021a2:	f7ff fd91 	bl	8001cc8 <Error_Handler>
 80021a6:	4803      	ldr	r0, [pc, #12]	; (80021b4 <MX_TIM2_Init+0xc0>)
 80021a8:	f000 f9ec 	bl	8002584 <HAL_TIM_MspPostInit>
 80021ac:	bf00      	nop
 80021ae:	3728      	adds	r7, #40	; 0x28
 80021b0:	46bd      	mov	sp, r7
 80021b2:	bd80      	pop	{r7, pc}
 80021b4:	20000528 	.word	0x20000528

080021b8 <MX_TIM5_Init>:
 80021b8:	b580      	push	{r7, lr}
 80021ba:	b08a      	sub	sp, #40	; 0x28
 80021bc:	af00      	add	r7, sp, #0
 80021be:	f107 0320 	add.w	r3, r7, #32
 80021c2:	2200      	movs	r2, #0
 80021c4:	601a      	str	r2, [r3, #0]
 80021c6:	605a      	str	r2, [r3, #4]
 80021c8:	1d3b      	adds	r3, r7, #4
 80021ca:	2200      	movs	r2, #0
 80021cc:	601a      	str	r2, [r3, #0]
 80021ce:	605a      	str	r2, [r3, #4]
 80021d0:	609a      	str	r2, [r3, #8]
 80021d2:	60da      	str	r2, [r3, #12]
 80021d4:	611a      	str	r2, [r3, #16]
 80021d6:	615a      	str	r2, [r3, #20]
 80021d8:	619a      	str	r2, [r3, #24]
 80021da:	4b27      	ldr	r3, [pc, #156]	; (8002278 <MX_TIM5_Init+0xc0>)
 80021dc:	4a27      	ldr	r2, [pc, #156]	; (800227c <MX_TIM5_Init+0xc4>)
 80021de:	601a      	str	r2, [r3, #0]
 80021e0:	4b25      	ldr	r3, [pc, #148]	; (8002278 <MX_TIM5_Init+0xc0>)
 80021e2:	2207      	movs	r2, #7
 80021e4:	605a      	str	r2, [r3, #4]
 80021e6:	4b24      	ldr	r3, [pc, #144]	; (8002278 <MX_TIM5_Init+0xc0>)
 80021e8:	2200      	movs	r2, #0
 80021ea:	609a      	str	r2, [r3, #8]
 80021ec:	4b22      	ldr	r3, [pc, #136]	; (8002278 <MX_TIM5_Init+0xc0>)
 80021ee:	2214      	movs	r2, #20
 80021f0:	60da      	str	r2, [r3, #12]
 80021f2:	4b21      	ldr	r3, [pc, #132]	; (8002278 <MX_TIM5_Init+0xc0>)
 80021f4:	2200      	movs	r2, #0
 80021f6:	611a      	str	r2, [r3, #16]
 80021f8:	4b1f      	ldr	r3, [pc, #124]	; (8002278 <MX_TIM5_Init+0xc0>)
 80021fa:	2200      	movs	r2, #0
 80021fc:	619a      	str	r2, [r3, #24]
 80021fe:	481e      	ldr	r0, [pc, #120]	; (8002278 <MX_TIM5_Init+0xc0>)
 8002200:	f002 fb73 	bl	80048ea <HAL_TIM_PWM_Init>
 8002204:	4603      	mov	r3, r0
 8002206:	2b00      	cmp	r3, #0
 8002208:	d001      	beq.n	800220e <MX_TIM5_Init+0x56>
 800220a:	f7ff fd5d 	bl	8001cc8 <Error_Handler>
 800220e:	2300      	movs	r3, #0
 8002210:	623b      	str	r3, [r7, #32]
 8002212:	2300      	movs	r3, #0
 8002214:	627b      	str	r3, [r7, #36]	; 0x24
 8002216:	f107 0320 	add.w	r3, r7, #32
 800221a:	4619      	mov	r1, r3
 800221c:	4816      	ldr	r0, [pc, #88]	; (8002278 <MX_TIM5_Init+0xc0>)
 800221e:	f003 f953 	bl	80054c8 <HAL_TIMEx_MasterConfigSynchronization>
 8002222:	4603      	mov	r3, r0
 8002224:	2b00      	cmp	r3, #0
 8002226:	d001      	beq.n	800222c <MX_TIM5_Init+0x74>
 8002228:	f7ff fd4e 	bl	8001cc8 <Error_Handler>
 800222c:	2360      	movs	r3, #96	; 0x60
 800222e:	607b      	str	r3, [r7, #4]
 8002230:	2300      	movs	r3, #0
 8002232:	60bb      	str	r3, [r7, #8]
 8002234:	2300      	movs	r3, #0
 8002236:	60fb      	str	r3, [r7, #12]
 8002238:	2300      	movs	r3, #0
 800223a:	617b      	str	r3, [r7, #20]
 800223c:	1d3b      	adds	r3, r7, #4
 800223e:	2204      	movs	r2, #4
 8002240:	4619      	mov	r1, r3
 8002242:	480d      	ldr	r0, [pc, #52]	; (8002278 <MX_TIM5_Init+0xc0>)
 8002244:	f002 fd8a 	bl	8004d5c <HAL_TIM_PWM_ConfigChannel>
 8002248:	4603      	mov	r3, r0
 800224a:	2b00      	cmp	r3, #0
 800224c:	d001      	beq.n	8002252 <MX_TIM5_Init+0x9a>
 800224e:	f7ff fd3b 	bl	8001cc8 <Error_Handler>
 8002252:	1d3b      	adds	r3, r7, #4
 8002254:	220c      	movs	r2, #12
 8002256:	4619      	mov	r1, r3
 8002258:	4807      	ldr	r0, [pc, #28]	; (8002278 <MX_TIM5_Init+0xc0>)
 800225a:	f002 fd7f 	bl	8004d5c <HAL_TIM_PWM_ConfigChannel>
 800225e:	4603      	mov	r3, r0
 8002260:	2b00      	cmp	r3, #0
 8002262:	d001      	beq.n	8002268 <MX_TIM5_Init+0xb0>
 8002264:	f7ff fd30 	bl	8001cc8 <Error_Handler>
 8002268:	4803      	ldr	r0, [pc, #12]	; (8002278 <MX_TIM5_Init+0xc0>)
 800226a:	f000 f98b 	bl	8002584 <HAL_TIM_MspPostInit>
 800226e:	bf00      	nop
 8002270:	3728      	adds	r7, #40	; 0x28
 8002272:	46bd      	mov	sp, r7
 8002274:	bd80      	pop	{r7, pc}
 8002276:	bf00      	nop
 8002278:	200003e8 	.word	0x200003e8
 800227c:	40000c00 	.word	0x40000c00

08002280 <MX_TIM11_Init>:
 8002280:	b580      	push	{r7, lr}
 8002282:	af00      	add	r7, sp, #0
 8002284:	4b0e      	ldr	r3, [pc, #56]	; (80022c0 <MX_TIM11_Init+0x40>)
 8002286:	4a0f      	ldr	r2, [pc, #60]	; (80022c4 <MX_TIM11_Init+0x44>)
 8002288:	601a      	str	r2, [r3, #0]
 800228a:	4b0d      	ldr	r3, [pc, #52]	; (80022c0 <MX_TIM11_Init+0x40>)
 800228c:	2263      	movs	r2, #99	; 0x63
 800228e:	605a      	str	r2, [r3, #4]
 8002290:	4b0b      	ldr	r3, [pc, #44]	; (80022c0 <MX_TIM11_Init+0x40>)
 8002292:	2200      	movs	r2, #0
 8002294:	609a      	str	r2, [r3, #8]
 8002296:	4b0a      	ldr	r3, [pc, #40]	; (80022c0 <MX_TIM11_Init+0x40>)
 8002298:	f240 4264 	movw	r2, #1124	; 0x464
 800229c:	60da      	str	r2, [r3, #12]
 800229e:	4b08      	ldr	r3, [pc, #32]	; (80022c0 <MX_TIM11_Init+0x40>)
 80022a0:	2200      	movs	r2, #0
 80022a2:	611a      	str	r2, [r3, #16]
 80022a4:	4b06      	ldr	r3, [pc, #24]	; (80022c0 <MX_TIM11_Init+0x40>)
 80022a6:	2200      	movs	r2, #0
 80022a8:	619a      	str	r2, [r3, #24]
 80022aa:	4805      	ldr	r0, [pc, #20]	; (80022c0 <MX_TIM11_Init+0x40>)
 80022ac:	f002 face 	bl	800484c <HAL_TIM_Base_Init>
 80022b0:	4603      	mov	r3, r0
 80022b2:	2b00      	cmp	r3, #0
 80022b4:	d001      	beq.n	80022ba <MX_TIM11_Init+0x3a>
 80022b6:	f7ff fd07 	bl	8001cc8 <Error_Handler>
 80022ba:	bf00      	nop
 80022bc:	bd80      	pop	{r7, pc}
 80022be:	bf00      	nop
 80022c0:	20000428 	.word	0x20000428
 80022c4:	40014800 	.word	0x40014800

080022c8 <HAL_TIM_PWM_MspInit>:
 80022c8:	b580      	push	{r7, lr}
 80022ca:	b084      	sub	sp, #16
 80022cc:	af00      	add	r7, sp, #0
 80022ce:	6078      	str	r0, [r7, #4]
 80022d0:	687b      	ldr	r3, [r7, #4]
 80022d2:	681b      	ldr	r3, [r3, #0]
 80022d4:	f1b3 4f80 	cmp.w	r3, #1073741824	; 0x40000000
 80022d8:	f040 8087 	bne.w	80023ea <HAL_TIM_PWM_MspInit+0x122>
 80022dc:	2300      	movs	r3, #0
 80022de:	60fb      	str	r3, [r7, #12]
 80022e0:	4b8a      	ldr	r3, [pc, #552]	; (800250c <HAL_TIM_PWM_MspInit+0x244>)
 80022e2:	6c1b      	ldr	r3, [r3, #64]	; 0x40
 80022e4:	4a89      	ldr	r2, [pc, #548]	; (800250c <HAL_TIM_PWM_MspInit+0x244>)
 80022e6:	f043 0301 	orr.w	r3, r3, #1
 80022ea:	6413      	str	r3, [r2, #64]	; 0x40
 80022ec:	4b87      	ldr	r3, [pc, #540]	; (800250c <HAL_TIM_PWM_MspInit+0x244>)
 80022ee:	6c1b      	ldr	r3, [r3, #64]	; 0x40
 80022f0:	f003 0301 	and.w	r3, r3, #1
 80022f4:	60fb      	str	r3, [r7, #12]
 80022f6:	68fb      	ldr	r3, [r7, #12]
 80022f8:	4b85      	ldr	r3, [pc, #532]	; (8002510 <HAL_TIM_PWM_MspInit+0x248>)
 80022fa:	4a86      	ldr	r2, [pc, #536]	; (8002514 <HAL_TIM_PWM_MspInit+0x24c>)
 80022fc:	601a      	str	r2, [r3, #0]
 80022fe:	4b84      	ldr	r3, [pc, #528]	; (8002510 <HAL_TIM_PWM_MspInit+0x248>)
 8002300:	f04f 62c0 	mov.w	r2, #100663296	; 0x6000000
 8002304:	605a      	str	r2, [r3, #4]
 8002306:	4b82      	ldr	r3, [pc, #520]	; (8002510 <HAL_TIM_PWM_MspInit+0x248>)
 8002308:	2240      	movs	r2, #64	; 0x40
 800230a:	609a      	str	r2, [r3, #8]
 800230c:	4b80      	ldr	r3, [pc, #512]	; (8002510 <HAL_TIM_PWM_MspInit+0x248>)
 800230e:	2200      	movs	r2, #0
 8002310:	60da      	str	r2, [r3, #12]
 8002312:	4b7f      	ldr	r3, [pc, #508]	; (8002510 <HAL_TIM_PWM_MspInit+0x248>)
 8002314:	f44f 6280 	mov.w	r2, #1024	; 0x400
 8002318:	611a      	str	r2, [r3, #16]
 800231a:	4b7d      	ldr	r3, [pc, #500]	; (8002510 <HAL_TIM_PWM_MspInit+0x248>)
 800231c:	f44f 5280 	mov.w	r2, #4096	; 0x1000
 8002320:	615a      	str	r2, [r3, #20]
 8002322:	4b7b      	ldr	r3, [pc, #492]	; (8002510 <HAL_TIM_PWM_MspInit+0x248>)
 8002324:	f44f 4280 	mov.w	r2, #16384	; 0x4000
 8002328:	619a      	str	r2, [r3, #24]
 800232a:	4b79      	ldr	r3, [pc, #484]	; (8002510 <HAL_TIM_PWM_MspInit+0x248>)
 800232c:	2200      	movs	r2, #0
 800232e:	61da      	str	r2, [r3, #28]
 8002330:	4b77      	ldr	r3, [pc, #476]	; (8002510 <HAL_TIM_PWM_MspInit+0x248>)
 8002332:	2200      	movs	r2, #0
 8002334:	621a      	str	r2, [r3, #32]
 8002336:	4b76      	ldr	r3, [pc, #472]	; (8002510 <HAL_TIM_PWM_MspInit+0x248>)
 8002338:	2204      	movs	r2, #4
 800233a:	625a      	str	r2, [r3, #36]	; 0x24
 800233c:	4b74      	ldr	r3, [pc, #464]	; (8002510 <HAL_TIM_PWM_MspInit+0x248>)
 800233e:	2200      	movs	r2, #0
 8002340:	629a      	str	r2, [r3, #40]	; 0x28
 8002342:	4b73      	ldr	r3, [pc, #460]	; (8002510 <HAL_TIM_PWM_MspInit+0x248>)
 8002344:	2200      	movs	r2, #0
 8002346:	62da      	str	r2, [r3, #44]	; 0x2c
 8002348:	4b71      	ldr	r3, [pc, #452]	; (8002510 <HAL_TIM_PWM_MspInit+0x248>)
 800234a:	2200      	movs	r2, #0
 800234c:	631a      	str	r2, [r3, #48]	; 0x30
 800234e:	4870      	ldr	r0, [pc, #448]	; (8002510 <HAL_TIM_PWM_MspInit+0x248>)
 8002350:	f000 fbc0 	bl	8002ad4 <HAL_DMA_Init>
 8002354:	4603      	mov	r3, r0
 8002356:	2b00      	cmp	r3, #0
 8002358:	d001      	beq.n	800235e <HAL_TIM_PWM_MspInit+0x96>
 800235a:	f7ff fcb5 	bl	8001cc8 <Error_Handler>
 800235e:	687b      	ldr	r3, [r7, #4]
 8002360:	4a6b      	ldr	r2, [pc, #428]	; (8002510 <HAL_TIM_PWM_MspInit+0x248>)
 8002362:	625a      	str	r2, [r3, #36]	; 0x24
 8002364:	4a6a      	ldr	r2, [pc, #424]	; (8002510 <HAL_TIM_PWM_MspInit+0x248>)
 8002366:	687b      	ldr	r3, [r7, #4]
 8002368:	6393      	str	r3, [r2, #56]	; 0x38
 800236a:	4b6b      	ldr	r3, [pc, #428]	; (8002518 <HAL_TIM_PWM_MspInit+0x250>)
 800236c:	4a6b      	ldr	r2, [pc, #428]	; (800251c <HAL_TIM_PWM_MspInit+0x254>)
 800236e:	601a      	str	r2, [r3, #0]
 8002370:	4b69      	ldr	r3, [pc, #420]	; (8002518 <HAL_TIM_PWM_MspInit+0x250>)
 8002372:	f04f 62c0 	mov.w	r2, #100663296	; 0x6000000
 8002376:	605a      	str	r2, [r3, #4]
 8002378:	4b67      	ldr	r3, [pc, #412]	; (8002518 <HAL_TIM_PWM_MspInit+0x250>)
 800237a:	2240      	movs	r2, #64	; 0x40
 800237c:	609a      	str	r2, [r3, #8]
 800237e:	4b66      	ldr	r3, [pc, #408]	; (8002518 <HAL_TIM_PWM_MspInit+0x250>)
 8002380:	2200      	movs	r2, #0
 8002382:	60da      	str	r2, [r3, #12]
 8002384:	4b64      	ldr	r3, [pc, #400]	; (8002518 <HAL_TIM_PWM_MspInit+0x250>)
 8002386:	f44f 6280 	mov.w	r2, #1024	; 0x400
 800238a:	611a      	str	r2, [r3, #16]
 800238c:	4b62      	ldr	r3, [pc, #392]	; (8002518 <HAL_TIM_PWM_MspInit+0x250>)
 800238e:	f44f 5280 	mov.w	r2, #4096	; 0x1000
 8002392:	615a      	str	r2, [r3, #20]
 8002394:	4b60      	ldr	r3, [pc, #384]	; (8002518 <HAL_TIM_PWM_MspInit+0x250>)
 8002396:	f44f 4280 	mov.w	r2, #16384	; 0x4000
 800239a:	619a      	str	r2, [r3, #24]
 800239c:	4b5e      	ldr	r3, [pc, #376]	; (8002518 <HAL_TIM_PWM_MspInit+0x250>)
 800239e:	2200      	movs	r2, #0
 80023a0:	61da      	str	r2, [r3, #28]
 80023a2:	4b5d      	ldr	r3, [pc, #372]	; (8002518 <HAL_TIM_PWM_MspInit+0x250>)
 80023a4:	2200      	movs	r2, #0
 80023a6:	621a      	str	r2, [r3, #32]
 80023a8:	4b5b      	ldr	r3, [pc, #364]	; (8002518 <HAL_TIM_PWM_MspInit+0x250>)
 80023aa:	2204      	movs	r2, #4
 80023ac:	625a      	str	r2, [r3, #36]	; 0x24
 80023ae:	4b5a      	ldr	r3, [pc, #360]	; (8002518 <HAL_TIM_PWM_MspInit+0x250>)
 80023b0:	2200      	movs	r2, #0
 80023b2:	629a      	str	r2, [r3, #40]	; 0x28
 80023b4:	4b58      	ldr	r3, [pc, #352]	; (8002518 <HAL_TIM_PWM_MspInit+0x250>)
 80023b6:	2200      	movs	r2, #0
 80023b8:	62da      	str	r2, [r3, #44]	; 0x2c
 80023ba:	4b57      	ldr	r3, [pc, #348]	; (8002518 <HAL_TIM_PWM_MspInit+0x250>)
 80023bc:	2200      	movs	r2, #0
 80023be:	631a      	str	r2, [r3, #48]	; 0x30
 80023c0:	4855      	ldr	r0, [pc, #340]	; (8002518 <HAL_TIM_PWM_MspInit+0x250>)
 80023c2:	f000 fb87 	bl	8002ad4 <HAL_DMA_Init>
 80023c6:	4603      	mov	r3, r0
 80023c8:	2b00      	cmp	r3, #0
 80023ca:	d001      	beq.n	80023d0 <HAL_TIM_PWM_MspInit+0x108>
 80023cc:	f7ff fc7c 	bl	8001cc8 <Error_Handler>
 80023d0:	687b      	ldr	r3, [r7, #4]
 80023d2:	4a51      	ldr	r2, [pc, #324]	; (8002518 <HAL_TIM_PWM_MspInit+0x250>)
 80023d4:	62da      	str	r2, [r3, #44]	; 0x2c
 80023d6:	4a50      	ldr	r2, [pc, #320]	; (8002518 <HAL_TIM_PWM_MspInit+0x250>)
 80023d8:	687b      	ldr	r3, [r7, #4]
 80023da:	6393      	str	r3, [r2, #56]	; 0x38
 80023dc:	687b      	ldr	r3, [r7, #4]
 80023de:	4a4e      	ldr	r2, [pc, #312]	; (8002518 <HAL_TIM_PWM_MspInit+0x250>)
 80023e0:	621a      	str	r2, [r3, #32]
 80023e2:	4a4d      	ldr	r2, [pc, #308]	; (8002518 <HAL_TIM_PWM_MspInit+0x250>)
 80023e4:	687b      	ldr	r3, [r7, #4]
 80023e6:	6393      	str	r3, [r2, #56]	; 0x38
 80023e8:	e08b      	b.n	8002502 <HAL_TIM_PWM_MspInit+0x23a>
 80023ea:	687b      	ldr	r3, [r7, #4]
 80023ec:	681b      	ldr	r3, [r3, #0]
 80023ee:	4a4c      	ldr	r2, [pc, #304]	; (8002520 <HAL_TIM_PWM_MspInit+0x258>)
 80023f0:	4293      	cmp	r3, r2
 80023f2:	f040 8086 	bne.w	8002502 <HAL_TIM_PWM_MspInit+0x23a>
 80023f6:	2300      	movs	r3, #0
 80023f8:	60bb      	str	r3, [r7, #8]
 80023fa:	4b44      	ldr	r3, [pc, #272]	; (800250c <HAL_TIM_PWM_MspInit+0x244>)
 80023fc:	6c1b      	ldr	r3, [r3, #64]	; 0x40
 80023fe:	4a43      	ldr	r2, [pc, #268]	; (800250c <HAL_TIM_PWM_MspInit+0x244>)
 8002400:	f043 0308 	orr.w	r3, r3, #8
 8002404:	6413      	str	r3, [r2, #64]	; 0x40
 8002406:	4b41      	ldr	r3, [pc, #260]	; (800250c <HAL_TIM_PWM_MspInit+0x244>)
 8002408:	6c1b      	ldr	r3, [r3, #64]	; 0x40
 800240a:	f003 0308 	and.w	r3, r3, #8
 800240e:	60bb      	str	r3, [r7, #8]
 8002410:	68bb      	ldr	r3, [r7, #8]
 8002412:	4b44      	ldr	r3, [pc, #272]	; (8002524 <HAL_TIM_PWM_MspInit+0x25c>)
 8002414:	4a44      	ldr	r2, [pc, #272]	; (8002528 <HAL_TIM_PWM_MspInit+0x260>)
 8002416:	601a      	str	r2, [r3, #0]
 8002418:	4b42      	ldr	r3, [pc, #264]	; (8002524 <HAL_TIM_PWM_MspInit+0x25c>)
 800241a:	f04f 6240 	mov.w	r2, #201326592	; 0xc000000
 800241e:	605a      	str	r2, [r3, #4]
 8002420:	4b40      	ldr	r3, [pc, #256]	; (8002524 <HAL_TIM_PWM_MspInit+0x25c>)
 8002422:	2240      	movs	r2, #64	; 0x40
 8002424:	609a      	str	r2, [r3, #8]
 8002426:	4b3f      	ldr	r3, [pc, #252]	; (8002524 <HAL_TIM_PWM_MspInit+0x25c>)
 8002428:	2200      	movs	r2, #0
 800242a:	60da      	str	r2, [r3, #12]
 800242c:	4b3d      	ldr	r3, [pc, #244]	; (8002524 <HAL_TIM_PWM_MspInit+0x25c>)
 800242e:	f44f 6280 	mov.w	r2, #1024	; 0x400
 8002432:	611a      	str	r2, [r3, #16]
 8002434:	4b3b      	ldr	r3, [pc, #236]	; (8002524 <HAL_TIM_PWM_MspInit+0x25c>)
 8002436:	f44f 5280 	mov.w	r2, #4096	; 0x1000
 800243a:	615a      	str	r2, [r3, #20]
 800243c:	4b39      	ldr	r3, [pc, #228]	; (8002524 <HAL_TIM_PWM_MspInit+0x25c>)
 800243e:	f44f 4280 	mov.w	r2, #16384	; 0x4000
 8002442:	619a      	str	r2, [r3, #24]
 8002444:	4b37      	ldr	r3, [pc, #220]	; (8002524 <HAL_TIM_PWM_MspInit+0x25c>)
 8002446:	2200      	movs	r2, #0
 8002448:	61da      	str	r2, [r3, #28]
 800244a:	4b36      	ldr	r3, [pc, #216]	; (8002524 <HAL_TIM_PWM_MspInit+0x25c>)
 800244c:	2200      	movs	r2, #0
 800244e:	621a      	str	r2, [r3, #32]
 8002450:	4b34      	ldr	r3, [pc, #208]	; (8002524 <HAL_TIM_PWM_MspInit+0x25c>)
 8002452:	2204      	movs	r2, #4
 8002454:	625a      	str	r2, [r3, #36]	; 0x24
 8002456:	4b33      	ldr	r3, [pc, #204]	; (8002524 <HAL_TIM_PWM_MspInit+0x25c>)
 8002458:	2200      	movs	r2, #0
 800245a:	629a      	str	r2, [r3, #40]	; 0x28
 800245c:	4b31      	ldr	r3, [pc, #196]	; (8002524 <HAL_TIM_PWM_MspInit+0x25c>)
 800245e:	2200      	movs	r2, #0
 8002460:	62da      	str	r2, [r3, #44]	; 0x2c
 8002462:	4b30      	ldr	r3, [pc, #192]	; (8002524 <HAL_TIM_PWM_MspInit+0x25c>)
 8002464:	2200      	movs	r2, #0
 8002466:	631a      	str	r2, [r3, #48]	; 0x30
 8002468:	482e      	ldr	r0, [pc, #184]	; (8002524 <HAL_TIM_PWM_MspInit+0x25c>)
 800246a:	f000 fb33 	bl	8002ad4 <HAL_DMA_Init>
 800246e:	4603      	mov	r3, r0
 8002470:	2b00      	cmp	r3, #0
 8002472:	d001      	beq.n	8002478 <HAL_TIM_PWM_MspInit+0x1b0>
 8002474:	f7ff fc28 	bl	8001cc8 <Error_Handler>
 8002478:	687b      	ldr	r3, [r7, #4]
 800247a:	4a2a      	ldr	r2, [pc, #168]	; (8002524 <HAL_TIM_PWM_MspInit+0x25c>)
 800247c:	629a      	str	r2, [r3, #40]	; 0x28
 800247e:	4a29      	ldr	r2, [pc, #164]	; (8002524 <HAL_TIM_PWM_MspInit+0x25c>)
 8002480:	687b      	ldr	r3, [r7, #4]
 8002482:	6393      	str	r3, [r2, #56]	; 0x38
 8002484:	4b29      	ldr	r3, [pc, #164]	; (800252c <HAL_TIM_PWM_MspInit+0x264>)
 8002486:	4a2a      	ldr	r2, [pc, #168]	; (8002530 <HAL_TIM_PWM_MspInit+0x268>)
 8002488:	601a      	str	r2, [r3, #0]
 800248a:	4b28      	ldr	r3, [pc, #160]	; (800252c <HAL_TIM_PWM_MspInit+0x264>)
 800248c:	f04f 6240 	mov.w	r2, #201326592	; 0xc000000
 8002490:	605a      	str	r2, [r3, #4]
 8002492:	4b26      	ldr	r3, [pc, #152]	; (800252c <HAL_TIM_PWM_MspInit+0x264>)
 8002494:	2240      	movs	r2, #64	; 0x40
 8002496:	609a      	str	r2, [r3, #8]
 8002498:	4b24      	ldr	r3, [pc, #144]	; (800252c <HAL_TIM_PWM_MspInit+0x264>)
 800249a:	2200      	movs	r2, #0
 800249c:	60da      	str	r2, [r3, #12]
 800249e:	4b23      	ldr	r3, [pc, #140]	; (800252c <HAL_TIM_PWM_MspInit+0x264>)
 80024a0:	f44f 6280 	mov.w	r2, #1024	; 0x400
 80024a4:	611a      	str	r2, [r3, #16]
 80024a6:	4b21      	ldr	r3, [pc, #132]	; (800252c <HAL_TIM_PWM_MspInit+0x264>)
 80024a8:	f44f 5280 	mov.w	r2, #4096	; 0x1000
 80024ac:	615a      	str	r2, [r3, #20]
 80024ae:	4b1f      	ldr	r3, [pc, #124]	; (800252c <HAL_TIM_PWM_MspInit+0x264>)
 80024b0:	f44f 4280 	mov.w	r2, #16384	; 0x4000
 80024b4:	619a      	str	r2, [r3, #24]
 80024b6:	4b1d      	ldr	r3, [pc, #116]	; (800252c <HAL_TIM_PWM_MspInit+0x264>)
 80024b8:	2200      	movs	r2, #0
 80024ba:	61da      	str	r2, [r3, #28]
 80024bc:	4b1b      	ldr	r3, [pc, #108]	; (800252c <HAL_TIM_PWM_MspInit+0x264>)
 80024be:	2200      	movs	r2, #0
 80024c0:	621a      	str	r2, [r3, #32]
 80024c2:	4b1a      	ldr	r3, [pc, #104]	; (800252c <HAL_TIM_PWM_MspInit+0x264>)
 80024c4:	2204      	movs	r2, #4
 80024c6:	625a      	str	r2, [r3, #36]	; 0x24
 80024c8:	4b18      	ldr	r3, [pc, #96]	; (800252c <HAL_TIM_PWM_MspInit+0x264>)
 80024ca:	2200      	movs	r2, #0
 80024cc:	629a      	str	r2, [r3, #40]	; 0x28
 80024ce:	4b17      	ldr	r3, [pc, #92]	; (800252c <HAL_TIM_PWM_MspInit+0x264>)
 80024d0:	2200      	movs	r2, #0
 80024d2:	62da      	str	r2, [r3, #44]	; 0x2c
 80024d4:	4b15      	ldr	r3, [pc, #84]	; (800252c <HAL_TIM_PWM_MspInit+0x264>)
 80024d6:	2200      	movs	r2, #0
 80024d8:	631a      	str	r2, [r3, #48]	; 0x30
 80024da:	4814      	ldr	r0, [pc, #80]	; (800252c <HAL_TIM_PWM_MspInit+0x264>)
 80024dc:	f000 fafa 	bl	8002ad4 <HAL_DMA_Init>
 80024e0:	4603      	mov	r3, r0
 80024e2:	2b00      	cmp	r3, #0
 80024e4:	d001      	beq.n	80024ea <HAL_TIM_PWM_MspInit+0x222>
 80024e6:	f7ff fbef 	bl	8001cc8 <Error_Handler>
 80024ea:	687b      	ldr	r3, [r7, #4]
 80024ec:	4a0f      	ldr	r2, [pc, #60]	; (800252c <HAL_TIM_PWM_MspInit+0x264>)
 80024ee:	631a      	str	r2, [r3, #48]	; 0x30
 80024f0:	4a0e      	ldr	r2, [pc, #56]	; (800252c <HAL_TIM_PWM_MspInit+0x264>)
 80024f2:	687b      	ldr	r3, [r7, #4]
 80024f4:	6393      	str	r3, [r2, #56]	; 0x38
 80024f6:	687b      	ldr	r3, [r7, #4]
 80024f8:	4a0c      	ldr	r2, [pc, #48]	; (800252c <HAL_TIM_PWM_MspInit+0x264>)
 80024fa:	639a      	str	r2, [r3, #56]	; 0x38
 80024fc:	4a0b      	ldr	r2, [pc, #44]	; (800252c <HAL_TIM_PWM_MspInit+0x264>)
 80024fe:	687b      	ldr	r3, [r7, #4]
 8002500:	6393      	str	r3, [r2, #56]	; 0x38
 8002502:	bf00      	nop
 8002504:	3710      	adds	r7, #16
 8002506:	46bd      	mov	sp, r7
 8002508:	bd80      	pop	{r7, pc}
 800250a:	bf00      	nop
 800250c:	40023800 	.word	0x40023800
 8002510:	20000328 	.word	0x20000328
 8002514:	40026088 	.word	0x40026088
 8002518:	200004c8 	.word	0x200004c8
 800251c:	40026028 	.word	0x40026028
 8002520:	40000c00 	.word	0x40000c00
 8002524:	20000468 	.word	0x20000468
 8002528:	40026070 	.word	0x40026070
 800252c:	20000388 	.word	0x20000388
 8002530:	40026058 	.word	0x40026058

08002534 <HAL_TIM_Base_MspInit>:
 8002534:	b580      	push	{r7, lr}
 8002536:	b084      	sub	sp, #16
 8002538:	af00      	add	r7, sp, #0
 800253a:	6078      	str	r0, [r7, #4]
 800253c:	687b      	ldr	r3, [r7, #4]
 800253e:	681b      	ldr	r3, [r3, #0]
 8002540:	4a0e      	ldr	r2, [pc, #56]	; (800257c <HAL_TIM_Base_MspInit+0x48>)
 8002542:	4293      	cmp	r3, r2
 8002544:	d115      	bne.n	8002572 <HAL_TIM_Base_MspInit+0x3e>
 8002546:	2300      	movs	r3, #0
 8002548:	60fb      	str	r3, [r7, #12]
 800254a:	4b0d      	ldr	r3, [pc, #52]	; (8002580 <HAL_TIM_Base_MspInit+0x4c>)
 800254c:	6c5b      	ldr	r3, [r3, #68]	; 0x44
 800254e:	4a0c      	ldr	r2, [pc, #48]	; (8002580 <HAL_TIM_Base_MspInit+0x4c>)
 8002550:	f443 2380 	orr.w	r3, r3, #262144	; 0x40000
 8002554:	6453      	str	r3, [r2, #68]	; 0x44
 8002556:	4b0a      	ldr	r3, [pc, #40]	; (8002580 <HAL_TIM_Base_MspInit+0x4c>)
 8002558:	6c5b      	ldr	r3, [r3, #68]	; 0x44
 800255a:	f403 2380 	and.w	r3, r3, #262144	; 0x40000
 800255e:	60fb      	str	r3, [r7, #12]
 8002560:	68fb      	ldr	r3, [r7, #12]
 8002562:	2200      	movs	r2, #0
 8002564:	2101      	movs	r1, #1
 8002566:	201a      	movs	r0, #26
 8002568:	f000 fa7d 	bl	8002a66 <HAL_NVIC_SetPriority>
 800256c:	201a      	movs	r0, #26
 800256e:	f000 fa96 	bl	8002a9e <HAL_NVIC_EnableIRQ>
 8002572:	bf00      	nop
 8002574:	3710      	adds	r7, #16
 8002576:	46bd      	mov	sp, r7
 8002578:	bd80      	pop	{r7, pc}
 800257a:	bf00      	nop
 800257c:	40014800 	.word	0x40014800
 8002580:	40023800 	.word	0x40023800

08002584 <HAL_TIM_MspPostInit>:
 8002584:	b580      	push	{r7, lr}
 8002586:	b08a      	sub	sp, #40	; 0x28
 8002588:	af00      	add	r7, sp, #0
 800258a:	6078      	str	r0, [r7, #4]
 800258c:	f107 0314 	add.w	r3, r7, #20
 8002590:	2200      	movs	r2, #0
 8002592:	601a      	str	r2, [r3, #0]
 8002594:	605a      	str	r2, [r3, #4]
 8002596:	609a      	str	r2, [r3, #8]
 8002598:	60da      	str	r2, [r3, #12]
 800259a:	611a      	str	r2, [r3, #16]
 800259c:	687b      	ldr	r3, [r7, #4]
 800259e:	681b      	ldr	r3, [r3, #0]
 80025a0:	f1b3 4f80 	cmp.w	r3, #1073741824	; 0x40000000
 80025a4:	d11e      	bne.n	80025e4 <HAL_TIM_MspPostInit+0x60>
 80025a6:	2300      	movs	r3, #0
 80025a8:	613b      	str	r3, [r7, #16]
 80025aa:	4b22      	ldr	r3, [pc, #136]	; (8002634 <HAL_TIM_MspPostInit+0xb0>)
 80025ac:	6b1b      	ldr	r3, [r3, #48]	; 0x30
 80025ae:	4a21      	ldr	r2, [pc, #132]	; (8002634 <HAL_TIM_MspPostInit+0xb0>)
 80025b0:	f043 0301 	orr.w	r3, r3, #1
 80025b4:	6313      	str	r3, [r2, #48]	; 0x30
 80025b6:	4b1f      	ldr	r3, [pc, #124]	; (8002634 <HAL_TIM_MspPostInit+0xb0>)
 80025b8:	6b1b      	ldr	r3, [r3, #48]	; 0x30
 80025ba:	f003 0301 	and.w	r3, r3, #1
 80025be:	613b      	str	r3, [r7, #16]
 80025c0:	693b      	ldr	r3, [r7, #16]
 80025c2:	2305      	movs	r3, #5
 80025c4:	617b      	str	r3, [r7, #20]
 80025c6:	2302      	movs	r3, #2
 80025c8:	61bb      	str	r3, [r7, #24]
 80025ca:	2300      	movs	r3, #0
 80025cc:	61fb      	str	r3, [r7, #28]
 80025ce:	2300      	movs	r3, #0
 80025d0:	623b      	str	r3, [r7, #32]
 80025d2:	2301      	movs	r3, #1
 80025d4:	627b      	str	r3, [r7, #36]	; 0x24
 80025d6:	f107 0314 	add.w	r3, r7, #20
 80025da:	4619      	mov	r1, r3
 80025dc:	4816      	ldr	r0, [pc, #88]	; (8002638 <HAL_TIM_MspPostInit+0xb4>)
 80025de:	f000 fe09 	bl	80031f4 <HAL_GPIO_Init>
 80025e2:	e022      	b.n	800262a <HAL_TIM_MspPostInit+0xa6>
 80025e4:	687b      	ldr	r3, [r7, #4]
 80025e6:	681b      	ldr	r3, [r3, #0]
 80025e8:	4a14      	ldr	r2, [pc, #80]	; (800263c <HAL_TIM_MspPostInit+0xb8>)
 80025ea:	4293      	cmp	r3, r2
 80025ec:	d11d      	bne.n	800262a <HAL_TIM_MspPostInit+0xa6>
 80025ee:	2300      	movs	r3, #0
 80025f0:	60fb      	str	r3, [r7, #12]
 80025f2:	4b10      	ldr	r3, [pc, #64]	; (8002634 <HAL_TIM_MspPostInit+0xb0>)
 80025f4:	6b1b      	ldr	r3, [r3, #48]	; 0x30
 80025f6:	4a0f      	ldr	r2, [pc, #60]	; (8002634 <HAL_TIM_MspPostInit+0xb0>)
 80025f8:	f043 0301 	orr.w	r3, r3, #1
 80025fc:	6313      	str	r3, [r2, #48]	; 0x30
 80025fe:	4b0d      	ldr	r3, [pc, #52]	; (8002634 <HAL_TIM_MspPostInit+0xb0>)
 8002600:	6b1b      	ldr	r3, [r3, #48]	; 0x30
 8002602:	f003 0301 	and.w	r3, r3, #1
 8002606:	60fb      	str	r3, [r7, #12]
 8002608:	68fb      	ldr	r3, [r7, #12]
 800260a:	230a      	movs	r3, #10
 800260c:	617b      	str	r3, [r7, #20]
 800260e:	2302      	movs	r3, #2
 8002610:	61bb      	str	r3, [r7, #24]
 8002612:	2300      	movs	r3, #0
 8002614:	61fb      	str	r3, [r7, #28]
 8002616:	2300      	movs	r3, #0
 8002618:	623b      	str	r3, [r7, #32]
 800261a:	2302      	movs	r3, #2
 800261c:	627b      	str	r3, [r7, #36]	; 0x24
 800261e:	f107 0314 	add.w	r3, r7, #20
 8002622:	4619      	mov	r1, r3
 8002624:	4804      	ldr	r0, [pc, #16]	; (8002638 <HAL_TIM_MspPostInit+0xb4>)
 8002626:	f000 fde5 	bl	80031f4 <HAL_GPIO_Init>
 800262a:	bf00      	nop
 800262c:	3728      	adds	r7, #40	; 0x28
 800262e:	46bd      	mov	sp, r7
 8002630:	bd80      	pop	{r7, pc}
 8002632:	bf00      	nop
 8002634:	40023800 	.word	0x40023800
 8002638:	40020000 	.word	0x40020000
 800263c:	40000c00 	.word	0x40000c00

08002640 <MX_USART1_UART_Init>:
 8002640:	b580      	push	{r7, lr}
 8002642:	af00      	add	r7, sp, #0
 8002644:	4b11      	ldr	r3, [pc, #68]	; (800268c <MX_USART1_UART_Init+0x4c>)
 8002646:	4a12      	ldr	r2, [pc, #72]	; (8002690 <MX_USART1_UART_Init+0x50>)
 8002648:	601a      	str	r2, [r3, #0]
 800264a:	4b10      	ldr	r3, [pc, #64]	; (800268c <MX_USART1_UART_Init+0x4c>)
 800264c:	f44f 32e1 	mov.w	r2, #115200	; 0x1c200
 8002650:	605a      	str	r2, [r3, #4]
 8002652:	4b0e      	ldr	r3, [pc, #56]	; (800268c <MX_USART1_UART_Init+0x4c>)
 8002654:	2200      	movs	r2, #0
 8002656:	609a      	str	r2, [r3, #8]
 8002658:	4b0c      	ldr	r3, [pc, #48]	; (800268c <MX_USART1_UART_Init+0x4c>)
 800265a:	2200      	movs	r2, #0
 800265c:	60da      	str	r2, [r3, #12]
 800265e:	4b0b      	ldr	r3, [pc, #44]	; (800268c <MX_USART1_UART_Init+0x4c>)
 8002660:	2200      	movs	r2, #0
 8002662:	611a      	str	r2, [r3, #16]
 8002664:	4b09      	ldr	r3, [pc, #36]	; (800268c <MX_USART1_UART_Init+0x4c>)
 8002666:	2204      	movs	r2, #4
 8002668:	615a      	str	r2, [r3, #20]
 800266a:	4b08      	ldr	r3, [pc, #32]	; (800268c <MX_USART1_UART_Init+0x4c>)
 800266c:	2200      	movs	r2, #0
 800266e:	619a      	str	r2, [r3, #24]
 8002670:	4b06      	ldr	r3, [pc, #24]	; (800268c <MX_USART1_UART_Init+0x4c>)
 8002672:	2200      	movs	r2, #0
 8002674:	61da      	str	r2, [r3, #28]
 8002676:	4805      	ldr	r0, [pc, #20]	; (800268c <MX_USART1_UART_Init+0x4c>)
 8002678:	f002 ffa8 	bl	80055cc <HAL_UART_Init>
 800267c:	4603      	mov	r3, r0
 800267e:	2b00      	cmp	r3, #0
 8002680:	d001      	beq.n	8002686 <MX_USART1_UART_Init+0x46>
 8002682:	f7ff fb21 	bl	8001cc8 <Error_Handler>
 8002686:	bf00      	nop
 8002688:	bd80      	pop	{r7, pc}
 800268a:	bf00      	nop
 800268c:	20000568 	.word	0x20000568
 8002690:	40011000 	.word	0x40011000

08002694 <HAL_UART_MspInit>:
 8002694:	b580      	push	{r7, lr}
 8002696:	b08a      	sub	sp, #40	; 0x28
 8002698:	af00      	add	r7, sp, #0
 800269a:	6078      	str	r0, [r7, #4]
 800269c:	f107 0314 	add.w	r3, r7, #20
 80026a0:	2200      	movs	r2, #0
 80026a2:	601a      	str	r2, [r3, #0]
 80026a4:	605a      	str	r2, [r3, #4]
 80026a6:	609a      	str	r2, [r3, #8]
 80026a8:	60da      	str	r2, [r3, #12]
 80026aa:	611a      	str	r2, [r3, #16]
 80026ac:	687b      	ldr	r3, [r7, #4]
 80026ae:	681b      	ldr	r3, [r3, #0]
 80026b0:	4a1d      	ldr	r2, [pc, #116]	; (8002728 <HAL_UART_MspInit+0x94>)
 80026b2:	4293      	cmp	r3, r2
 80026b4:	d134      	bne.n	8002720 <HAL_UART_MspInit+0x8c>
 80026b6:	2300      	movs	r3, #0
 80026b8:	613b      	str	r3, [r7, #16]
 80026ba:	4b1c      	ldr	r3, [pc, #112]	; (800272c <HAL_UART_MspInit+0x98>)
 80026bc:	6c5b      	ldr	r3, [r3, #68]	; 0x44
 80026be:	4a1b      	ldr	r2, [pc, #108]	; (800272c <HAL_UART_MspInit+0x98>)
 80026c0:	f043 0310 	orr.w	r3, r3, #16
 80026c4:	6453      	str	r3, [r2, #68]	; 0x44
 80026c6:	4b19      	ldr	r3, [pc, #100]	; (800272c <HAL_UART_MspInit+0x98>)
 80026c8:	6c5b      	ldr	r3, [r3, #68]	; 0x44
 80026ca:	f003 0310 	and.w	r3, r3, #16
 80026ce:	613b      	str	r3, [r7, #16]
 80026d0:	693b      	ldr	r3, [r7, #16]
 80026d2:	2300      	movs	r3, #0
 80026d4:	60fb      	str	r3, [r7, #12]
 80026d6:	4b15      	ldr	r3, [pc, #84]	; (800272c <HAL_UART_MspInit+0x98>)
 80026d8:	6b1b      	ldr	r3, [r3, #48]	; 0x30
 80026da:	4a14      	ldr	r2, [pc, #80]	; (800272c <HAL_UART_MspInit+0x98>)
 80026dc:	f043 0301 	orr.w	r3, r3, #1
 80026e0:	6313      	str	r3, [r2, #48]	; 0x30
 80026e2:	4b12      	ldr	r3, [pc, #72]	; (800272c <HAL_UART_MspInit+0x98>)
 80026e4:	6b1b      	ldr	r3, [r3, #48]	; 0x30
 80026e6:	f003 0301 	and.w	r3, r3, #1
 80026ea:	60fb      	str	r3, [r7, #12]
 80026ec:	68fb      	ldr	r3, [r7, #12]
 80026ee:	f44f 63c0 	mov.w	r3, #1536	; 0x600
 80026f2:	617b      	str	r3, [r7, #20]
 80026f4:	2302      	movs	r3, #2
 80026f6:	61bb      	str	r3, [r7, #24]
 80026f8:	2300      	movs	r3, #0
 80026fa:	61fb      	str	r3, [r7, #28]
 80026fc:	2303      	movs	r3, #3
 80026fe:	623b      	str	r3, [r7, #32]
 8002700:	2307      	movs	r3, #7
 8002702:	627b      	str	r3, [r7, #36]	; 0x24
 8002704:	f107 0314 	add.w	r3, r7, #20
 8002708:	4619      	mov	r1, r3
 800270a:	4809      	ldr	r0, [pc, #36]	; (8002730 <HAL_UART_MspInit+0x9c>)
 800270c:	f000 fd72 	bl	80031f4 <HAL_GPIO_Init>
 8002710:	2200      	movs	r2, #0
 8002712:	2100      	movs	r1, #0
 8002714:	2025      	movs	r0, #37	; 0x25
 8002716:	f000 f9a6 	bl	8002a66 <HAL_NVIC_SetPriority>
 800271a:	2025      	movs	r0, #37	; 0x25
 800271c:	f000 f9bf 	bl	8002a9e <HAL_NVIC_EnableIRQ>
 8002720:	bf00      	nop
 8002722:	3728      	adds	r7, #40	; 0x28
 8002724:	46bd      	mov	sp, r7
 8002726:	bd80      	pop	{r7, pc}
 8002728:	40011000 	.word	0x40011000
 800272c:	40023800 	.word	0x40023800
 8002730:	40020000 	.word	0x40020000

08002734 <Reset_Handler>:
 8002734:	f8df d034 	ldr.w	sp, [pc, #52]	; 800276c <LoopFillZerobss+0x14>
 8002738:	2100      	movs	r1, #0
 800273a:	e003      	b.n	8002744 <LoopCopyDataInit>

0800273c <CopyDataInit>:
 800273c:	4b0c      	ldr	r3, [pc, #48]	; (8002770 <LoopFillZerobss+0x18>)
 800273e:	585b      	ldr	r3, [r3, r1]
 8002740:	5043      	str	r3, [r0, r1]
 8002742:	3104      	adds	r1, #4

08002744 <LoopCopyDataInit>:
 8002744:	480b      	ldr	r0, [pc, #44]	; (8002774 <LoopFillZerobss+0x1c>)
 8002746:	4b0c      	ldr	r3, [pc, #48]	; (8002778 <LoopFillZerobss+0x20>)
 8002748:	1842      	adds	r2, r0, r1
 800274a:	429a      	cmp	r2, r3
 800274c:	d3f6      	bcc.n	800273c <CopyDataInit>
 800274e:	4a0b      	ldr	r2, [pc, #44]	; (800277c <LoopFillZerobss+0x24>)
 8002750:	e002      	b.n	8002758 <LoopFillZerobss>

08002752 <FillZerobss>:
 8002752:	2300      	movs	r3, #0
 8002754:	f842 3b04 	str.w	r3, [r2], #4

08002758 <LoopFillZerobss>:
 8002758:	4b09      	ldr	r3, [pc, #36]	; (8002780 <LoopFillZerobss+0x28>)
 800275a:	429a      	cmp	r2, r3
 800275c:	d3f9      	bcc.n	8002752 <FillZerobss>
 800275e:	f7ff fcb3 	bl	80020c8 <SystemInit>
 8002762:	f003 fe29 	bl	80063b8 <__libc_init_array>
 8002766:	f7ff fa11 	bl	8001b8c <main>
 800276a:	4770      	bx	lr
 800276c:	20020000 	.word	0x20020000
 8002770:	08007988 	.word	0x08007988
 8002774:	20000000 	.word	0x20000000
 8002778:	20000074 	.word	0x20000074
 800277c:	20000078 	.word	0x20000078
 8002780:	200005ac 	.word	0x200005ac

08002784 <ADC_IRQHandler>:
 8002784:	e7fe      	b.n	8002784 <ADC_IRQHandler>
	...

08002788 <HAL_Init>:
 8002788:	b580      	push	{r7, lr}
 800278a:	af00      	add	r7, sp, #0
 800278c:	4b0e      	ldr	r3, [pc, #56]	; (80027c8 <HAL_Init+0x40>)
 800278e:	681b      	ldr	r3, [r3, #0]
 8002790:	4a0d      	ldr	r2, [pc, #52]	; (80027c8 <HAL_Init+0x40>)
 8002792:	f443 7300 	orr.w	r3, r3, #512	; 0x200
 8002796:	6013      	str	r3, [r2, #0]
 8002798:	4b0b      	ldr	r3, [pc, #44]	; (80027c8 <HAL_Init+0x40>)
 800279a:	681b      	ldr	r3, [r3, #0]
 800279c:	4a0a      	ldr	r2, [pc, #40]	; (80027c8 <HAL_Init+0x40>)
 800279e:	f443 6380 	orr.w	r3, r3, #1024	; 0x400
 80027a2:	6013      	str	r3, [r2, #0]
 80027a4:	4b08      	ldr	r3, [pc, #32]	; (80027c8 <HAL_Init+0x40>)
 80027a6:	681b      	ldr	r3, [r3, #0]
 80027a8:	4a07      	ldr	r2, [pc, #28]	; (80027c8 <HAL_Init+0x40>)
 80027aa:	f443 7380 	orr.w	r3, r3, #256	; 0x100
 80027ae:	6013      	str	r3, [r2, #0]
 80027b0:	2003      	movs	r0, #3
 80027b2:	f000 f94d 	bl	8002a50 <HAL_NVIC_SetPriorityGrouping>
 80027b6:	2000      	movs	r0, #0
 80027b8:	f000 f808 	bl	80027cc <HAL_InitTick>
 80027bc:	f7ff fbf6 	bl	8001fac <HAL_MspInit>
 80027c0:	2300      	movs	r3, #0
 80027c2:	4618      	mov	r0, r3
 80027c4:	bd80      	pop	{r7, pc}
 80027c6:	bf00      	nop
 80027c8:	40023c00 	.word	0x40023c00

080027cc <HAL_InitTick>:
 80027cc:	b580      	push	{r7, lr}
 80027ce:	b082      	sub	sp, #8
 80027d0:	af00      	add	r7, sp, #0
 80027d2:	6078      	str	r0, [r7, #4]
 80027d4:	4b12      	ldr	r3, [pc, #72]	; (8002820 <HAL_InitTick+0x54>)
 80027d6:	681a      	ldr	r2, [r3, #0]
 80027d8:	4b12      	ldr	r3, [pc, #72]	; (8002824 <HAL_InitTick+0x58>)
 80027da:	781b      	ldrb	r3, [r3, #0]
 80027dc:	4619      	mov	r1, r3
 80027de:	f44f 737a 	mov.w	r3, #1000	; 0x3e8
 80027e2:	fbb3 f3f1 	udiv	r3, r3, r1
 80027e6:	fbb2 f3f3 	udiv	r3, r2, r3
 80027ea:	4618      	mov	r0, r3
 80027ec:	f000 f965 	bl	8002aba <HAL_SYSTICK_Config>
 80027f0:	4603      	mov	r3, r0
 80027f2:	2b00      	cmp	r3, #0
 80027f4:	d001      	beq.n	80027fa <HAL_InitTick+0x2e>
 80027f6:	2301      	movs	r3, #1
 80027f8:	e00e      	b.n	8002818 <HAL_InitTick+0x4c>
 80027fa:	687b      	ldr	r3, [r7, #4]
 80027fc:	2b0f      	cmp	r3, #15
 80027fe:	d80a      	bhi.n	8002816 <HAL_InitTick+0x4a>
 8002800:	2200      	movs	r2, #0
 8002802:	6879      	ldr	r1, [r7, #4]
 8002804:	f04f 30ff 	mov.w	r0, #4294967295
 8002808:	f000 f92d 	bl	8002a66 <HAL_NVIC_SetPriority>
 800280c:	4a06      	ldr	r2, [pc, #24]	; (8002828 <HAL_InitTick+0x5c>)
 800280e:	687b      	ldr	r3, [r7, #4]
 8002810:	6013      	str	r3, [r2, #0]
 8002812:	2300      	movs	r3, #0
 8002814:	e000      	b.n	8002818 <HAL_InitTick+0x4c>
 8002816:	2301      	movs	r3, #1
 8002818:	4618      	mov	r0, r3
 800281a:	3708      	adds	r7, #8
 800281c:	46bd      	mov	sp, r7
 800281e:	bd80      	pop	{r7, pc}
 8002820:	20000000 	.word	0x20000000
 8002824:	20000008 	.word	0x20000008
 8002828:	20000004 	.word	0x20000004

0800282c <HAL_IncTick>:
 800282c:	b480      	push	{r7}
 800282e:	af00      	add	r7, sp, #0
 8002830:	4b06      	ldr	r3, [pc, #24]	; (800284c <HAL_IncTick+0x20>)
 8002832:	781b      	ldrb	r3, [r3, #0]
 8002834:	461a      	mov	r2, r3
 8002836:	4b06      	ldr	r3, [pc, #24]	; (8002850 <HAL_IncTick+0x24>)
 8002838:	681b      	ldr	r3, [r3, #0]
 800283a:	4413      	add	r3, r2
 800283c:	4a04      	ldr	r2, [pc, #16]	; (8002850 <HAL_IncTick+0x24>)
 800283e:	6013      	str	r3, [r2, #0]
 8002840:	bf00      	nop
 8002842:	46bd      	mov	sp, r7
 8002844:	f85d 7b04 	ldr.w	r7, [sp], #4
 8002848:	4770      	bx	lr
 800284a:	bf00      	nop
 800284c:	20000008 	.word	0x20000008
 8002850:	200005a8 	.word	0x200005a8

08002854 <HAL_GetTick>:
 8002854:	b480      	push	{r7}
 8002856:	af00      	add	r7, sp, #0
 8002858:	4b03      	ldr	r3, [pc, #12]	; (8002868 <HAL_GetTick+0x14>)
 800285a:	681b      	ldr	r3, [r3, #0]
 800285c:	4618      	mov	r0, r3
 800285e:	46bd      	mov	sp, r7
 8002860:	f85d 7b04 	ldr.w	r7, [sp], #4
 8002864:	4770      	bx	lr
 8002866:	bf00      	nop
 8002868:	200005a8 	.word	0x200005a8

0800286c <HAL_Delay>:
 800286c:	b580      	push	{r7, lr}
 800286e:	b084      	sub	sp, #16
 8002870:	af00      	add	r7, sp, #0
 8002872:	6078      	str	r0, [r7, #4]
 8002874:	f7ff ffee 	bl	8002854 <HAL_GetTick>
 8002878:	60b8      	str	r0, [r7, #8]
 800287a:	687b      	ldr	r3, [r7, #4]
 800287c:	60fb      	str	r3, [r7, #12]
 800287e:	68fb      	ldr	r3, [r7, #12]
 8002880:	f1b3 3fff 	cmp.w	r3, #4294967295
 8002884:	d005      	beq.n	8002892 <HAL_Delay+0x26>
 8002886:	4b09      	ldr	r3, [pc, #36]	; (80028ac <HAL_Delay+0x40>)
 8002888:	781b      	ldrb	r3, [r3, #0]
 800288a:	461a      	mov	r2, r3
 800288c:	68fb      	ldr	r3, [r7, #12]
 800288e:	4413      	add	r3, r2
 8002890:	60fb      	str	r3, [r7, #12]
 8002892:	bf00      	nop
 8002894:	f7ff ffde 	bl	8002854 <HAL_GetTick>
 8002898:	4602      	mov	r2, r0
 800289a:	68bb      	ldr	r3, [r7, #8]
 800289c:	1ad3      	subs	r3, r2, r3
 800289e:	68fa      	ldr	r2, [r7, #12]
 80028a0:	429a      	cmp	r2, r3
 80028a2:	d8f7      	bhi.n	8002894 <HAL_Delay+0x28>
 80028a4:	bf00      	nop
 80028a6:	3710      	adds	r7, #16
 80028a8:	46bd      	mov	sp, r7
 80028aa:	bd80      	pop	{r7, pc}
 80028ac:	20000008 	.word	0x20000008

080028b0 <__NVIC_SetPriorityGrouping>:
 80028b0:	b480      	push	{r7}
 80028b2:	b085      	sub	sp, #20
 80028b4:	af00      	add	r7, sp, #0
 80028b6:	6078      	str	r0, [r7, #4]
 80028b8:	687b      	ldr	r3, [r7, #4]
 80028ba:	f003 0307 	and.w	r3, r3, #7
 80028be:	60fb      	str	r3, [r7, #12]
 80028c0:	4b0c      	ldr	r3, [pc, #48]	; (80028f4 <__NVIC_SetPriorityGrouping+0x44>)
 80028c2:	68db      	ldr	r3, [r3, #12]
 80028c4:	60bb      	str	r3, [r7, #8]
 80028c6:	68ba      	ldr	r2, [r7, #8]
 80028c8:	f64f 03ff 	movw	r3, #63743	; 0xf8ff
 80028cc:	4013      	ands	r3, r2
 80028ce:	60bb      	str	r3, [r7, #8]
 80028d0:	68fb      	ldr	r3, [r7, #12]
 80028d2:	021a      	lsls	r2, r3, #8
 80028d4:	68bb      	ldr	r3, [r7, #8]
 80028d6:	4313      	orrs	r3, r2
 80028d8:	f043 63bf 	orr.w	r3, r3, #100139008	; 0x5f80000
 80028dc:	f443 3300 	orr.w	r3, r3, #131072	; 0x20000
 80028e0:	60bb      	str	r3, [r7, #8]
 80028e2:	4a04      	ldr	r2, [pc, #16]	; (80028f4 <__NVIC_SetPriorityGrouping+0x44>)
 80028e4:	68bb      	ldr	r3, [r7, #8]
 80028e6:	60d3      	str	r3, [r2, #12]
 80028e8:	bf00      	nop
 80028ea:	3714      	adds	r7, #20
 80028ec:	46bd      	mov	sp, r7
 80028ee:	f85d 7b04 	ldr.w	r7, [sp], #4
 80028f2:	4770      	bx	lr
 80028f4:	e000ed00 	.word	0xe000ed00

080028f8 <__NVIC_GetPriorityGrouping>:
 80028f8:	b480      	push	{r7}
 80028fa:	af00      	add	r7, sp, #0
 80028fc:	4b04      	ldr	r3, [pc, #16]	; (8002910 <__NVIC_GetPriorityGrouping+0x18>)
 80028fe:	68db      	ldr	r3, [r3, #12]
 8002900:	0a1b      	lsrs	r3, r3, #8
 8002902:	f003 0307 	and.w	r3, r3, #7
 8002906:	4618      	mov	r0, r3
 8002908:	46bd      	mov	sp, r7
 800290a:	f85d 7b04 	ldr.w	r7, [sp], #4
 800290e:	4770      	bx	lr
 8002910:	e000ed00 	.word	0xe000ed00

08002914 <__NVIC_EnableIRQ>:
 8002914:	b480      	push	{r7}
 8002916:	b083      	sub	sp, #12
 8002918:	af00      	add	r7, sp, #0
 800291a:	4603      	mov	r3, r0
 800291c:	71fb      	strb	r3, [r7, #7]
 800291e:	f997 3007 	ldrsb.w	r3, [r7, #7]
 8002922:	2b00      	cmp	r3, #0
 8002924:	db0b      	blt.n	800293e <__NVIC_EnableIRQ+0x2a>
 8002926:	79fb      	ldrb	r3, [r7, #7]
 8002928:	f003 021f 	and.w	r2, r3, #31
 800292c:	4907      	ldr	r1, [pc, #28]	; (800294c <__NVIC_EnableIRQ+0x38>)
 800292e:	f997 3007 	ldrsb.w	r3, [r7, #7]
 8002932:	095b      	lsrs	r3, r3, #5
 8002934:	2001      	movs	r0, #1
 8002936:	fa00 f202 	lsl.w	r2, r0, r2
 800293a:	f841 2023 	str.w	r2, [r1, r3, lsl #2]
 800293e:	bf00      	nop
 8002940:	370c      	adds	r7, #12
 8002942:	46bd      	mov	sp, r7
 8002944:	f85d 7b04 	ldr.w	r7, [sp], #4
 8002948:	4770      	bx	lr
 800294a:	bf00      	nop
 800294c:	e000e100 	.word	0xe000e100

08002950 <__NVIC_SetPriority>:
 8002950:	b480      	push	{r7}
 8002952:	b083      	sub	sp, #12
 8002954:	af00      	add	r7, sp, #0
 8002956:	4603      	mov	r3, r0
 8002958:	6039      	str	r1, [r7, #0]
 800295a:	71fb      	strb	r3, [r7, #7]
 800295c:	f997 3007 	ldrsb.w	r3, [r7, #7]
 8002960:	2b00      	cmp	r3, #0
 8002962:	db0a      	blt.n	800297a <__NVIC_SetPriority+0x2a>
 8002964:	683b      	ldr	r3, [r7, #0]
 8002966:	b2da      	uxtb	r2, r3
 8002968:	490c      	ldr	r1, [pc, #48]	; (800299c <__NVIC_SetPriority+0x4c>)
 800296a:	f997 3007 	ldrsb.w	r3, [r7, #7]
 800296e:	0112      	lsls	r2, r2, #4
 8002970:	b2d2      	uxtb	r2, r2
 8002972:	440b      	add	r3, r1
 8002974:	f883 2300 	strb.w	r2, [r3, #768]	; 0x300
 8002978:	e00a      	b.n	8002990 <__NVIC_SetPriority+0x40>
 800297a:	683b      	ldr	r3, [r7, #0]
 800297c:	b2da      	uxtb	r2, r3
 800297e:	4908      	ldr	r1, [pc, #32]	; (80029a0 <__NVIC_SetPriority+0x50>)
 8002980:	79fb      	ldrb	r3, [r7, #7]
 8002982:	f003 030f 	and.w	r3, r3, #15
 8002986:	3b04      	subs	r3, #4
 8002988:	0112      	lsls	r2, r2, #4
 800298a:	b2d2      	uxtb	r2, r2
 800298c:	440b      	add	r3, r1
 800298e:	761a      	strb	r2, [r3, #24]
 8002990:	bf00      	nop
 8002992:	370c      	adds	r7, #12
 8002994:	46bd      	mov	sp, r7
 8002996:	f85d 7b04 	ldr.w	r7, [sp], #4
 800299a:	4770      	bx	lr
 800299c:	e000e100 	.word	0xe000e100
 80029a0:	e000ed00 	.word	0xe000ed00

080029a4 <NVIC_EncodePriority>:
 80029a4:	b480      	push	{r7}
 80029a6:	b089      	sub	sp, #36	; 0x24
 80029a8:	af00      	add	r7, sp, #0
 80029aa:	60f8      	str	r0, [r7, #12]
 80029ac:	60b9      	str	r1, [r7, #8]
 80029ae:	607a      	str	r2, [r7, #4]
 80029b0:	68fb      	ldr	r3, [r7, #12]
 80029b2:	f003 0307 	and.w	r3, r3, #7
 80029b6:	61fb      	str	r3, [r7, #28]
 80029b8:	69fb      	ldr	r3, [r7, #28]
 80029ba:	f1c3 0307 	rsb	r3, r3, #7
 80029be:	2b04      	cmp	r3, #4
 80029c0:	bf28      	it	cs
 80029c2:	2304      	movcs	r3, #4
 80029c4:	61bb      	str	r3, [r7, #24]
 80029c6:	69fb      	ldr	r3, [r7, #28]
 80029c8:	3304      	adds	r3, #4
 80029ca:	2b06      	cmp	r3, #6
 80029cc:	d902      	bls.n	80029d4 <NVIC_EncodePriority+0x30>
 80029ce:	69fb      	ldr	r3, [r7, #28]
 80029d0:	3b03      	subs	r3, #3
 80029d2:	e000      	b.n	80029d6 <NVIC_EncodePriority+0x32>
 80029d4:	2300      	movs	r3, #0
 80029d6:	617b      	str	r3, [r7, #20]
 80029d8:	f04f 32ff 	mov.w	r2, #4294967295
 80029dc:	69bb      	ldr	r3, [r7, #24]
 80029de:	fa02 f303 	lsl.w	r3, r2, r3
 80029e2:	43da      	mvns	r2, r3
 80029e4:	68bb      	ldr	r3, [r7, #8]
 80029e6:	401a      	ands	r2, r3
 80029e8:	697b      	ldr	r3, [r7, #20]
 80029ea:	409a      	lsls	r2, r3
 80029ec:	f04f 31ff 	mov.w	r1, #4294967295
 80029f0:	697b      	ldr	r3, [r7, #20]
 80029f2:	fa01 f303 	lsl.w	r3, r1, r3
 80029f6:	43d9      	mvns	r1, r3
 80029f8:	687b      	ldr	r3, [r7, #4]
 80029fa:	400b      	ands	r3, r1
 80029fc:	4313      	orrs	r3, r2
 80029fe:	4618      	mov	r0, r3
 8002a00:	3724      	adds	r7, #36	; 0x24
 8002a02:	46bd      	mov	sp, r7
 8002a04:	f85d 7b04 	ldr.w	r7, [sp], #4
 8002a08:	4770      	bx	lr
	...

08002a0c <SysTick_Config>:
 8002a0c:	b580      	push	{r7, lr}
 8002a0e:	b082      	sub	sp, #8
 8002a10:	af00      	add	r7, sp, #0
 8002a12:	6078      	str	r0, [r7, #4]
 8002a14:	687b      	ldr	r3, [r7, #4]
 8002a16:	3b01      	subs	r3, #1
 8002a18:	f1b3 7f80 	cmp.w	r3, #16777216	; 0x1000000
 8002a1c:	d301      	bcc.n	8002a22 <SysTick_Config+0x16>
 8002a1e:	2301      	movs	r3, #1
 8002a20:	e00f      	b.n	8002a42 <SysTick_Config+0x36>
 8002a22:	4a0a      	ldr	r2, [pc, #40]	; (8002a4c <SysTick_Config+0x40>)
 8002a24:	687b      	ldr	r3, [r7, #4]
 8002a26:	3b01      	subs	r3, #1
 8002a28:	6053      	str	r3, [r2, #4]
 8002a2a:	210f      	movs	r1, #15
 8002a2c:	f04f 30ff 	mov.w	r0, #4294967295
 8002a30:	f7ff ff8e 	bl	8002950 <__NVIC_SetPriority>
 8002a34:	4b05      	ldr	r3, [pc, #20]	; (8002a4c <SysTick_Config+0x40>)
 8002a36:	2200      	movs	r2, #0
 8002a38:	609a      	str	r2, [r3, #8]
 8002a3a:	4b04      	ldr	r3, [pc, #16]	; (8002a4c <SysTick_Config+0x40>)
 8002a3c:	2207      	movs	r2, #7
 8002a3e:	601a      	str	r2, [r3, #0]
 8002a40:	2300      	movs	r3, #0
 8002a42:	4618      	mov	r0, r3
 8002a44:	3708      	adds	r7, #8
 8002a46:	46bd      	mov	sp, r7
 8002a48:	bd80      	pop	{r7, pc}
 8002a4a:	bf00      	nop
 8002a4c:	e000e010 	.word	0xe000e010

08002a50 <HAL_NVIC_SetPriorityGrouping>:
 8002a50:	b580      	push	{r7, lr}
 8002a52:	b082      	sub	sp, #8
 8002a54:	af00      	add	r7, sp, #0
 8002a56:	6078      	str	r0, [r7, #4]
 8002a58:	6878      	ldr	r0, [r7, #4]
 8002a5a:	f7ff ff29 	bl	80028b0 <__NVIC_SetPriorityGrouping>
 8002a5e:	bf00      	nop
 8002a60:	3708      	adds	r7, #8
 8002a62:	46bd      	mov	sp, r7
 8002a64:	bd80      	pop	{r7, pc}

08002a66 <HAL_NVIC_SetPriority>:
 8002a66:	b580      	push	{r7, lr}
 8002a68:	b086      	sub	sp, #24
 8002a6a:	af00      	add	r7, sp, #0
 8002a6c:	4603      	mov	r3, r0
 8002a6e:	60b9      	str	r1, [r7, #8]
 8002a70:	607a      	str	r2, [r7, #4]
 8002a72:	73fb      	strb	r3, [r7, #15]
 8002a74:	2300      	movs	r3, #0
 8002a76:	617b      	str	r3, [r7, #20]
 8002a78:	f7ff ff3e 	bl	80028f8 <__NVIC_GetPriorityGrouping>
 8002a7c:	6178      	str	r0, [r7, #20]
 8002a7e:	687a      	ldr	r2, [r7, #4]
 8002a80:	68b9      	ldr	r1, [r7, #8]
 8002a82:	6978      	ldr	r0, [r7, #20]
 8002a84:	f7ff ff8e 	bl	80029a4 <NVIC_EncodePriority>
 8002a88:	4602      	mov	r2, r0
 8002a8a:	f997 300f 	ldrsb.w	r3, [r7, #15]
 8002a8e:	4611      	mov	r1, r2
 8002a90:	4618      	mov	r0, r3
 8002a92:	f7ff ff5d 	bl	8002950 <__NVIC_SetPriority>
 8002a96:	bf00      	nop
 8002a98:	3718      	adds	r7, #24
 8002a9a:	46bd      	mov	sp, r7
 8002a9c:	bd80      	pop	{r7, pc}

08002a9e <HAL_NVIC_EnableIRQ>:
 8002a9e:	b580      	push	{r7, lr}
 8002aa0:	b082      	sub	sp, #8
 8002aa2:	af00      	add	r7, sp, #0
 8002aa4:	4603      	mov	r3, r0
 8002aa6:	71fb      	strb	r3, [r7, #7]
 8002aa8:	f997 3007 	ldrsb.w	r3, [r7, #7]
 8002aac:	4618      	mov	r0, r3
 8002aae:	f7ff ff31 	bl	8002914 <__NVIC_EnableIRQ>
 8002ab2:	bf00      	nop
 8002ab4:	3708      	adds	r7, #8
 8002ab6:	46bd      	mov	sp, r7
 8002ab8:	bd80      	pop	{r7, pc}

08002aba <HAL_SYSTICK_Config>:
 8002aba:	b580      	push	{r7, lr}
 8002abc:	b082      	sub	sp, #8
 8002abe:	af00      	add	r7, sp, #0
 8002ac0:	6078      	str	r0, [r7, #4]
 8002ac2:	6878      	ldr	r0, [r7, #4]
 8002ac4:	f7ff ffa2 	bl	8002a0c <SysTick_Config>
 8002ac8:	4603      	mov	r3, r0
 8002aca:	4618      	mov	r0, r3
 8002acc:	3708      	adds	r7, #8
 8002ace:	46bd      	mov	sp, r7
 8002ad0:	bd80      	pop	{r7, pc}
	...

08002ad4 <HAL_DMA_Init>:
 8002ad4:	b580      	push	{r7, lr}
 8002ad6:	b086      	sub	sp, #24
 8002ad8:	af00      	add	r7, sp, #0
 8002ada:	6078      	str	r0, [r7, #4]
 8002adc:	2300      	movs	r3, #0
 8002ade:	617b      	str	r3, [r7, #20]
 8002ae0:	f7ff feb8 	bl	8002854 <HAL_GetTick>
 8002ae4:	6138      	str	r0, [r7, #16]
 8002ae6:	687b      	ldr	r3, [r7, #4]
 8002ae8:	2b00      	cmp	r3, #0
 8002aea:	d101      	bne.n	8002af0 <HAL_DMA_Init+0x1c>
 8002aec:	2301      	movs	r3, #1
 8002aee:	e099      	b.n	8002c24 <HAL_DMA_Init+0x150>
 8002af0:	687b      	ldr	r3, [r7, #4]
 8002af2:	2200      	movs	r2, #0
 8002af4:	f883 2034 	strb.w	r2, [r3, #52]	; 0x34
 8002af8:	687b      	ldr	r3, [r7, #4]
 8002afa:	2202      	movs	r2, #2
 8002afc:	f883 2035 	strb.w	r2, [r3, #53]	; 0x35
 8002b00:	687b      	ldr	r3, [r7, #4]
 8002b02:	681b      	ldr	r3, [r3, #0]
 8002b04:	681a      	ldr	r2, [r3, #0]
 8002b06:	687b      	ldr	r3, [r7, #4]
 8002b08:	681b      	ldr	r3, [r3, #0]
 8002b0a:	f022 0201 	bic.w	r2, r2, #1
 8002b0e:	601a      	str	r2, [r3, #0]
 8002b10:	e00f      	b.n	8002b32 <HAL_DMA_Init+0x5e>
 8002b12:	f7ff fe9f 	bl	8002854 <HAL_GetTick>
 8002b16:	4602      	mov	r2, r0
 8002b18:	693b      	ldr	r3, [r7, #16]
 8002b1a:	1ad3      	subs	r3, r2, r3
 8002b1c:	2b05      	cmp	r3, #5
 8002b1e:	d908      	bls.n	8002b32 <HAL_DMA_Init+0x5e>
 8002b20:	687b      	ldr	r3, [r7, #4]
 8002b22:	2220      	movs	r2, #32
 8002b24:	655a      	str	r2, [r3, #84]	; 0x54
 8002b26:	687b      	ldr	r3, [r7, #4]
 8002b28:	2203      	movs	r2, #3
 8002b2a:	f883 2035 	strb.w	r2, [r3, #53]	; 0x35
 8002b2e:	2303      	movs	r3, #3
 8002b30:	e078      	b.n	8002c24 <HAL_DMA_Init+0x150>
 8002b32:	687b      	ldr	r3, [r7, #4]
 8002b34:	681b      	ldr	r3, [r3, #0]
 8002b36:	681b      	ldr	r3, [r3, #0]
 8002b38:	f003 0301 	and.w	r3, r3, #1
 8002b3c:	2b00      	cmp	r3, #0
 8002b3e:	d1e8      	bne.n	8002b12 <HAL_DMA_Init+0x3e>
 8002b40:	687b      	ldr	r3, [r7, #4]
 8002b42:	681b      	ldr	r3, [r3, #0]
 8002b44:	681b      	ldr	r3, [r3, #0]
 8002b46:	617b      	str	r3, [r7, #20]
 8002b48:	697a      	ldr	r2, [r7, #20]
 8002b4a:	4b38      	ldr	r3, [pc, #224]	; (8002c2c <HAL_DMA_Init+0x158>)
 8002b4c:	4013      	ands	r3, r2
 8002b4e:	617b      	str	r3, [r7, #20]
 8002b50:	687b      	ldr	r3, [r7, #4]
 8002b52:	685a      	ldr	r2, [r3, #4]
 8002b54:	687b      	ldr	r3, [r7, #4]
 8002b56:	689b      	ldr	r3, [r3, #8]
 8002b58:	431a      	orrs	r2, r3
 8002b5a:	687b      	ldr	r3, [r7, #4]
 8002b5c:	68db      	ldr	r3, [r3, #12]
 8002b5e:	431a      	orrs	r2, r3
 8002b60:	687b      	ldr	r3, [r7, #4]
 8002b62:	691b      	ldr	r3, [r3, #16]
 8002b64:	431a      	orrs	r2, r3
 8002b66:	687b      	ldr	r3, [r7, #4]
 8002b68:	695b      	ldr	r3, [r3, #20]
 8002b6a:	431a      	orrs	r2, r3
 8002b6c:	687b      	ldr	r3, [r7, #4]
 8002b6e:	699b      	ldr	r3, [r3, #24]
 8002b70:	431a      	orrs	r2, r3
 8002b72:	687b      	ldr	r3, [r7, #4]
 8002b74:	69db      	ldr	r3, [r3, #28]
 8002b76:	431a      	orrs	r2, r3
 8002b78:	687b      	ldr	r3, [r7, #4]
 8002b7a:	6a1b      	ldr	r3, [r3, #32]
 8002b7c:	4313      	orrs	r3, r2
 8002b7e:	697a      	ldr	r2, [r7, #20]
 8002b80:	4313      	orrs	r3, r2
 8002b82:	617b      	str	r3, [r7, #20]
 8002b84:	687b      	ldr	r3, [r7, #4]
 8002b86:	6a5b      	ldr	r3, [r3, #36]	; 0x24
 8002b88:	2b04      	cmp	r3, #4
 8002b8a:	d107      	bne.n	8002b9c <HAL_DMA_Init+0xc8>
 8002b8c:	687b      	ldr	r3, [r7, #4]
 8002b8e:	6ada      	ldr	r2, [r3, #44]	; 0x2c
 8002b90:	687b      	ldr	r3, [r7, #4]
 8002b92:	6b1b      	ldr	r3, [r3, #48]	; 0x30
 8002b94:	4313      	orrs	r3, r2
 8002b96:	697a      	ldr	r2, [r7, #20]
 8002b98:	4313      	orrs	r3, r2
 8002b9a:	617b      	str	r3, [r7, #20]
 8002b9c:	687b      	ldr	r3, [r7, #4]
 8002b9e:	681b      	ldr	r3, [r3, #0]
 8002ba0:	697a      	ldr	r2, [r7, #20]
 8002ba2:	601a      	str	r2, [r3, #0]
 8002ba4:	687b      	ldr	r3, [r7, #4]
 8002ba6:	681b      	ldr	r3, [r3, #0]
 8002ba8:	695b      	ldr	r3, [r3, #20]
 8002baa:	617b      	str	r3, [r7, #20]
 8002bac:	697b      	ldr	r3, [r7, #20]
 8002bae:	f023 0307 	bic.w	r3, r3, #7
 8002bb2:	617b      	str	r3, [r7, #20]
 8002bb4:	687b      	ldr	r3, [r7, #4]
 8002bb6:	6a5b      	ldr	r3, [r3, #36]	; 0x24
 8002bb8:	697a      	ldr	r2, [r7, #20]
 8002bba:	4313      	orrs	r3, r2
 8002bbc:	617b      	str	r3, [r7, #20]
 8002bbe:	687b      	ldr	r3, [r7, #4]
 8002bc0:	6a5b      	ldr	r3, [r3, #36]	; 0x24
 8002bc2:	2b04      	cmp	r3, #4
 8002bc4:	d117      	bne.n	8002bf6 <HAL_DMA_Init+0x122>
 8002bc6:	687b      	ldr	r3, [r7, #4]
 8002bc8:	6a9b      	ldr	r3, [r3, #40]	; 0x28
 8002bca:	697a      	ldr	r2, [r7, #20]
 8002bcc:	4313      	orrs	r3, r2
 8002bce:	617b      	str	r3, [r7, #20]
 8002bd0:	687b      	ldr	r3, [r7, #4]
 8002bd2:	6adb      	ldr	r3, [r3, #44]	; 0x2c
 8002bd4:	2b00      	cmp	r3, #0
 8002bd6:	d00e      	beq.n	8002bf6 <HAL_DMA_Init+0x122>
 8002bd8:	6878      	ldr	r0, [r7, #4]
 8002bda:	f000 fa91 	bl	8003100 <DMA_CheckFifoParam>
 8002bde:	4603      	mov	r3, r0
 8002be0:	2b00      	cmp	r3, #0
 8002be2:	d008      	beq.n	8002bf6 <HAL_DMA_Init+0x122>
 8002be4:	687b      	ldr	r3, [r7, #4]
 8002be6:	2240      	movs	r2, #64	; 0x40
 8002be8:	655a      	str	r2, [r3, #84]	; 0x54
 8002bea:	687b      	ldr	r3, [r7, #4]
 8002bec:	2201      	movs	r2, #1
 8002bee:	f883 2035 	strb.w	r2, [r3, #53]	; 0x35
 8002bf2:	2301      	movs	r3, #1
 8002bf4:	e016      	b.n	8002c24 <HAL_DMA_Init+0x150>
 8002bf6:	687b      	ldr	r3, [r7, #4]
 8002bf8:	681b      	ldr	r3, [r3, #0]
 8002bfa:	697a      	ldr	r2, [r7, #20]
 8002bfc:	615a      	str	r2, [r3, #20]
 8002bfe:	6878      	ldr	r0, [r7, #4]
 8002c00:	f000 fa48 	bl	8003094 <DMA_CalcBaseAndBitshift>
 8002c04:	4603      	mov	r3, r0
 8002c06:	60fb      	str	r3, [r7, #12]
 8002c08:	687b      	ldr	r3, [r7, #4]
 8002c0a:	6ddb      	ldr	r3, [r3, #92]	; 0x5c
 8002c0c:	223f      	movs	r2, #63	; 0x3f
 8002c0e:	409a      	lsls	r2, r3
 8002c10:	68fb      	ldr	r3, [r7, #12]
 8002c12:	609a      	str	r2, [r3, #8]
 8002c14:	687b      	ldr	r3, [r7, #4]
 8002c16:	2200      	movs	r2, #0
 8002c18:	655a      	str	r2, [r3, #84]	; 0x54
 8002c1a:	687b      	ldr	r3, [r7, #4]
 8002c1c:	2201      	movs	r2, #1
 8002c1e:	f883 2035 	strb.w	r2, [r3, #53]	; 0x35
 8002c22:	2300      	movs	r3, #0
 8002c24:	4618      	mov	r0, r3
 8002c26:	3718      	adds	r7, #24
 8002c28:	46bd      	mov	sp, r7
 8002c2a:	bd80      	pop	{r7, pc}
 8002c2c:	f010803f 	.word	0xf010803f

08002c30 <HAL_DMA_Start_IT>:
 8002c30:	b580      	push	{r7, lr}
 8002c32:	b086      	sub	sp, #24
 8002c34:	af00      	add	r7, sp, #0
 8002c36:	60f8      	str	r0, [r7, #12]
 8002c38:	60b9      	str	r1, [r7, #8]
 8002c3a:	607a      	str	r2, [r7, #4]
 8002c3c:	603b      	str	r3, [r7, #0]
 8002c3e:	2300      	movs	r3, #0
 8002c40:	75fb      	strb	r3, [r7, #23]
 8002c42:	68fb      	ldr	r3, [r7, #12]
 8002c44:	6d9b      	ldr	r3, [r3, #88]	; 0x58
 8002c46:	613b      	str	r3, [r7, #16]
 8002c48:	68fb      	ldr	r3, [r7, #12]
 8002c4a:	f893 3034 	ldrb.w	r3, [r3, #52]	; 0x34
 8002c4e:	2b01      	cmp	r3, #1
 8002c50:	d101      	bne.n	8002c56 <HAL_DMA_Start_IT+0x26>
 8002c52:	2302      	movs	r3, #2
 8002c54:	e040      	b.n	8002cd8 <HAL_DMA_Start_IT+0xa8>
 8002c56:	68fb      	ldr	r3, [r7, #12]
 8002c58:	2201      	movs	r2, #1
 8002c5a:	f883 2034 	strb.w	r2, [r3, #52]	; 0x34
 8002c5e:	68fb      	ldr	r3, [r7, #12]
 8002c60:	f893 3035 	ldrb.w	r3, [r3, #53]	; 0x35
 8002c64:	b2db      	uxtb	r3, r3
 8002c66:	2b01      	cmp	r3, #1
 8002c68:	d12f      	bne.n	8002cca <HAL_DMA_Start_IT+0x9a>
 8002c6a:	68fb      	ldr	r3, [r7, #12]
 8002c6c:	2202      	movs	r2, #2
 8002c6e:	f883 2035 	strb.w	r2, [r3, #53]	; 0x35
 8002c72:	68fb      	ldr	r3, [r7, #12]
 8002c74:	2200      	movs	r2, #0
 8002c76:	655a      	str	r2, [r3, #84]	; 0x54
 8002c78:	683b      	ldr	r3, [r7, #0]
 8002c7a:	687a      	ldr	r2, [r7, #4]
 8002c7c:	68b9      	ldr	r1, [r7, #8]
 8002c7e:	68f8      	ldr	r0, [r7, #12]
 8002c80:	f000 f9da 	bl	8003038 <DMA_SetConfig>
 8002c84:	68fb      	ldr	r3, [r7, #12]
 8002c86:	6ddb      	ldr	r3, [r3, #92]	; 0x5c
 8002c88:	223f      	movs	r2, #63	; 0x3f
 8002c8a:	409a      	lsls	r2, r3
 8002c8c:	693b      	ldr	r3, [r7, #16]
 8002c8e:	609a      	str	r2, [r3, #8]
 8002c90:	68fb      	ldr	r3, [r7, #12]
 8002c92:	681b      	ldr	r3, [r3, #0]
 8002c94:	681a      	ldr	r2, [r3, #0]
 8002c96:	68fb      	ldr	r3, [r7, #12]
 8002c98:	681b      	ldr	r3, [r3, #0]
 8002c9a:	f042 0216 	orr.w	r2, r2, #22
 8002c9e:	601a      	str	r2, [r3, #0]
 8002ca0:	68fb      	ldr	r3, [r7, #12]
 8002ca2:	6c1b      	ldr	r3, [r3, #64]	; 0x40
 8002ca4:	2b00      	cmp	r3, #0
 8002ca6:	d007      	beq.n	8002cb8 <HAL_DMA_Start_IT+0x88>
 8002ca8:	68fb      	ldr	r3, [r7, #12]
 8002caa:	681b      	ldr	r3, [r3, #0]
 8002cac:	681a      	ldr	r2, [r3, #0]
 8002cae:	68fb      	ldr	r3, [r7, #12]
 8002cb0:	681b      	ldr	r3, [r3, #0]
 8002cb2:	f042 0208 	orr.w	r2, r2, #8
 8002cb6:	601a      	str	r2, [r3, #0]
 8002cb8:	68fb      	ldr	r3, [r7, #12]
 8002cba:	681b      	ldr	r3, [r3, #0]
 8002cbc:	681a      	ldr	r2, [r3, #0]
 8002cbe:	68fb      	ldr	r3, [r7, #12]
 8002cc0:	681b      	ldr	r3, [r3, #0]
 8002cc2:	f042 0201 	orr.w	r2, r2, #1
 8002cc6:	601a      	str	r2, [r3, #0]
 8002cc8:	e005      	b.n	8002cd6 <HAL_DMA_Start_IT+0xa6>
 8002cca:	68fb      	ldr	r3, [r7, #12]
 8002ccc:	2200      	movs	r2, #0
 8002cce:	f883 2034 	strb.w	r2, [r3, #52]	; 0x34
 8002cd2:	2302      	movs	r3, #2
 8002cd4:	75fb      	strb	r3, [r7, #23]
 8002cd6:	7dfb      	ldrb	r3, [r7, #23]
 8002cd8:	4618      	mov	r0, r3
 8002cda:	3718      	adds	r7, #24
 8002cdc:	46bd      	mov	sp, r7
 8002cde:	bd80      	pop	{r7, pc}

08002ce0 <HAL_DMA_Abort_IT>:
 8002ce0:	b480      	push	{r7}
 8002ce2:	b083      	sub	sp, #12
 8002ce4:	af00      	add	r7, sp, #0
 8002ce6:	6078      	str	r0, [r7, #4]
 8002ce8:	687b      	ldr	r3, [r7, #4]
 8002cea:	f893 3035 	ldrb.w	r3, [r3, #53]	; 0x35
 8002cee:	b2db      	uxtb	r3, r3
 8002cf0:	2b02      	cmp	r3, #2
 8002cf2:	d004      	beq.n	8002cfe <HAL_DMA_Abort_IT+0x1e>
 8002cf4:	687b      	ldr	r3, [r7, #4]
 8002cf6:	2280      	movs	r2, #128	; 0x80
 8002cf8:	655a      	str	r2, [r3, #84]	; 0x54
 8002cfa:	2301      	movs	r3, #1
 8002cfc:	e00c      	b.n	8002d18 <HAL_DMA_Abort_IT+0x38>
 8002cfe:	687b      	ldr	r3, [r7, #4]
 8002d00:	2205      	movs	r2, #5
 8002d02:	f883 2035 	strb.w	r2, [r3, #53]	; 0x35
 8002d06:	687b      	ldr	r3, [r7, #4]
 8002d08:	681b      	ldr	r3, [r3, #0]
 8002d0a:	681a      	ldr	r2, [r3, #0]
 8002d0c:	687b      	ldr	r3, [r7, #4]
 8002d0e:	681b      	ldr	r3, [r3, #0]
 8002d10:	f022 0201 	bic.w	r2, r2, #1
 8002d14:	601a      	str	r2, [r3, #0]
 8002d16:	2300      	movs	r3, #0
 8002d18:	4618      	mov	r0, r3
 8002d1a:	370c      	adds	r7, #12
 8002d1c:	46bd      	mov	sp, r7
 8002d1e:	f85d 7b04 	ldr.w	r7, [sp], #4
 8002d22:	4770      	bx	lr

08002d24 <HAL_DMA_IRQHandler>:
 8002d24:	b580      	push	{r7, lr}
 8002d26:	b086      	sub	sp, #24
 8002d28:	af00      	add	r7, sp, #0
 8002d2a:	6078      	str	r0, [r7, #4]
 8002d2c:	2300      	movs	r3, #0
 8002d2e:	60bb      	str	r3, [r7, #8]
 8002d30:	4b92      	ldr	r3, [pc, #584]	; (8002f7c <HAL_DMA_IRQHandler+0x258>)
 8002d32:	681b      	ldr	r3, [r3, #0]
 8002d34:	4a92      	ldr	r2, [pc, #584]	; (8002f80 <HAL_DMA_IRQHandler+0x25c>)
 8002d36:	fba2 2303 	umull	r2, r3, r2, r3
 8002d3a:	0a9b      	lsrs	r3, r3, #10
 8002d3c:	617b      	str	r3, [r7, #20]
 8002d3e:	687b      	ldr	r3, [r7, #4]
 8002d40:	6d9b      	ldr	r3, [r3, #88]	; 0x58
 8002d42:	613b      	str	r3, [r7, #16]
 8002d44:	693b      	ldr	r3, [r7, #16]
 8002d46:	681b      	ldr	r3, [r3, #0]
 8002d48:	60fb      	str	r3, [r7, #12]
 8002d4a:	687b      	ldr	r3, [r7, #4]
 8002d4c:	6ddb      	ldr	r3, [r3, #92]	; 0x5c
 8002d4e:	2208      	movs	r2, #8
 8002d50:	409a      	lsls	r2, r3
 8002d52:	68fb      	ldr	r3, [r7, #12]
 8002d54:	4013      	ands	r3, r2
 8002d56:	2b00      	cmp	r3, #0
 8002d58:	d01a      	beq.n	8002d90 <HAL_DMA_IRQHandler+0x6c>
 8002d5a:	687b      	ldr	r3, [r7, #4]
 8002d5c:	681b      	ldr	r3, [r3, #0]
 8002d5e:	681b      	ldr	r3, [r3, #0]
 8002d60:	f003 0304 	and.w	r3, r3, #4
 8002d64:	2b00      	cmp	r3, #0
 8002d66:	d013      	beq.n	8002d90 <HAL_DMA_IRQHandler+0x6c>
 8002d68:	687b      	ldr	r3, [r7, #4]
 8002d6a:	681b      	ldr	r3, [r3, #0]
 8002d6c:	681a      	ldr	r2, [r3, #0]
 8002d6e:	687b      	ldr	r3, [r7, #4]
 8002d70:	681b      	ldr	r3, [r3, #0]
 8002d72:	f022 0204 	bic.w	r2, r2, #4
 8002d76:	601a      	str	r2, [r3, #0]
 8002d78:	687b      	ldr	r3, [r7, #4]
 8002d7a:	6ddb      	ldr	r3, [r3, #92]	; 0x5c
 8002d7c:	2208      	movs	r2, #8
 8002d7e:	409a      	lsls	r2, r3
 8002d80:	693b      	ldr	r3, [r7, #16]
 8002d82:	609a      	str	r2, [r3, #8]
 8002d84:	687b      	ldr	r3, [r7, #4]
 8002d86:	6d5b      	ldr	r3, [r3, #84]	; 0x54
 8002d88:	f043 0201 	orr.w	r2, r3, #1
 8002d8c:	687b      	ldr	r3, [r7, #4]
 8002d8e:	655a      	str	r2, [r3, #84]	; 0x54
 8002d90:	687b      	ldr	r3, [r7, #4]
 8002d92:	6ddb      	ldr	r3, [r3, #92]	; 0x5c
 8002d94:	2201      	movs	r2, #1
 8002d96:	409a      	lsls	r2, r3
 8002d98:	68fb      	ldr	r3, [r7, #12]
 8002d9a:	4013      	ands	r3, r2
 8002d9c:	2b00      	cmp	r3, #0
 8002d9e:	d012      	beq.n	8002dc6 <HAL_DMA_IRQHandler+0xa2>
 8002da0:	687b      	ldr	r3, [r7, #4]
 8002da2:	681b      	ldr	r3, [r3, #0]
 8002da4:	695b      	ldr	r3, [r3, #20]
 8002da6:	f003 0380 	and.w	r3, r3, #128	; 0x80
 8002daa:	2b00      	cmp	r3, #0
 8002dac:	d00b      	beq.n	8002dc6 <HAL_DMA_IRQHandler+0xa2>
 8002dae:	687b      	ldr	r3, [r7, #4]
 8002db0:	6ddb      	ldr	r3, [r3, #92]	; 0x5c
 8002db2:	2201      	movs	r2, #1
 8002db4:	409a      	lsls	r2, r3
 8002db6:	693b      	ldr	r3, [r7, #16]
 8002db8:	609a      	str	r2, [r3, #8]
 8002dba:	687b      	ldr	r3, [r7, #4]
 8002dbc:	6d5b      	ldr	r3, [r3, #84]	; 0x54
 8002dbe:	f043 0202 	orr.w	r2, r3, #2
 8002dc2:	687b      	ldr	r3, [r7, #4]
 8002dc4:	655a      	str	r2, [r3, #84]	; 0x54
 8002dc6:	687b      	ldr	r3, [r7, #4]
 8002dc8:	6ddb      	ldr	r3, [r3, #92]	; 0x5c
 8002dca:	2204      	movs	r2, #4
 8002dcc:	409a      	lsls	r2, r3
 8002dce:	68fb      	ldr	r3, [r7, #12]
 8002dd0:	4013      	ands	r3, r2
 8002dd2:	2b00      	cmp	r3, #0
 8002dd4:	d012      	beq.n	8002dfc <HAL_DMA_IRQHandler+0xd8>
 8002dd6:	687b      	ldr	r3, [r7, #4]
 8002dd8:	681b      	ldr	r3, [r3, #0]
 8002dda:	681b      	ldr	r3, [r3, #0]
 8002ddc:	f003 0302 	and.w	r3, r3, #2
 8002de0:	2b00      	cmp	r3, #0
 8002de2:	d00b      	beq.n	8002dfc <HAL_DMA_IRQHandler+0xd8>
 8002de4:	687b      	ldr	r3, [r7, #4]
 8002de6:	6ddb      	ldr	r3, [r3, #92]	; 0x5c
 8002de8:	2204      	movs	r2, #4
 8002dea:	409a      	lsls	r2, r3
 8002dec:	693b      	ldr	r3, [r7, #16]
 8002dee:	609a      	str	r2, [r3, #8]
 8002df0:	687b      	ldr	r3, [r7, #4]
 8002df2:	6d5b      	ldr	r3, [r3, #84]	; 0x54
 8002df4:	f043 0204 	orr.w	r2, r3, #4
 8002df8:	687b      	ldr	r3, [r7, #4]
 8002dfa:	655a      	str	r2, [r3, #84]	; 0x54
 8002dfc:	687b      	ldr	r3, [r7, #4]
 8002dfe:	6ddb      	ldr	r3, [r3, #92]	; 0x5c
 8002e00:	2210      	movs	r2, #16
 8002e02:	409a      	lsls	r2, r3
 8002e04:	68fb      	ldr	r3, [r7, #12]
 8002e06:	4013      	ands	r3, r2
 8002e08:	2b00      	cmp	r3, #0
 8002e0a:	d043      	beq.n	8002e94 <HAL_DMA_IRQHandler+0x170>
 8002e0c:	687b      	ldr	r3, [r7, #4]
 8002e0e:	681b      	ldr	r3, [r3, #0]
 8002e10:	681b      	ldr	r3, [r3, #0]
 8002e12:	f003 0308 	and.w	r3, r3, #8
 8002e16:	2b00      	cmp	r3, #0
 8002e18:	d03c      	beq.n	8002e94 <HAL_DMA_IRQHandler+0x170>
 8002e1a:	687b      	ldr	r3, [r7, #4]
 8002e1c:	6ddb      	ldr	r3, [r3, #92]	; 0x5c
 8002e1e:	2210      	movs	r2, #16
 8002e20:	409a      	lsls	r2, r3
 8002e22:	693b      	ldr	r3, [r7, #16]
 8002e24:	609a      	str	r2, [r3, #8]
 8002e26:	687b      	ldr	r3, [r7, #4]
 8002e28:	681b      	ldr	r3, [r3, #0]
 8002e2a:	681b      	ldr	r3, [r3, #0]
 8002e2c:	f403 2380 	and.w	r3, r3, #262144	; 0x40000
 8002e30:	2b00      	cmp	r3, #0
 8002e32:	d018      	beq.n	8002e66 <HAL_DMA_IRQHandler+0x142>
 8002e34:	687b      	ldr	r3, [r7, #4]
 8002e36:	681b      	ldr	r3, [r3, #0]
 8002e38:	681b      	ldr	r3, [r3, #0]
 8002e3a:	f403 2300 	and.w	r3, r3, #524288	; 0x80000
 8002e3e:	2b00      	cmp	r3, #0
 8002e40:	d108      	bne.n	8002e54 <HAL_DMA_IRQHandler+0x130>
 8002e42:	687b      	ldr	r3, [r7, #4]
 8002e44:	6c1b      	ldr	r3, [r3, #64]	; 0x40
 8002e46:	2b00      	cmp	r3, #0
 8002e48:	d024      	beq.n	8002e94 <HAL_DMA_IRQHandler+0x170>
 8002e4a:	687b      	ldr	r3, [r7, #4]
 8002e4c:	6c1b      	ldr	r3, [r3, #64]	; 0x40
 8002e4e:	6878      	ldr	r0, [r7, #4]
 8002e50:	4798      	blx	r3
 8002e52:	e01f      	b.n	8002e94 <HAL_DMA_IRQHandler+0x170>
 8002e54:	687b      	ldr	r3, [r7, #4]
 8002e56:	6c9b      	ldr	r3, [r3, #72]	; 0x48
 8002e58:	2b00      	cmp	r3, #0
 8002e5a:	d01b      	beq.n	8002e94 <HAL_DMA_IRQHandler+0x170>
 8002e5c:	687b      	ldr	r3, [r7, #4]
 8002e5e:	6c9b      	ldr	r3, [r3, #72]	; 0x48
 8002e60:	6878      	ldr	r0, [r7, #4]
 8002e62:	4798      	blx	r3
 8002e64:	e016      	b.n	8002e94 <HAL_DMA_IRQHandler+0x170>
 8002e66:	687b      	ldr	r3, [r7, #4]
 8002e68:	681b      	ldr	r3, [r3, #0]
 8002e6a:	681b      	ldr	r3, [r3, #0]
 8002e6c:	f403 7380 	and.w	r3, r3, #256	; 0x100
 8002e70:	2b00      	cmp	r3, #0
 8002e72:	d107      	bne.n	8002e84 <HAL_DMA_IRQHandler+0x160>
 8002e74:	687b      	ldr	r3, [r7, #4]
 8002e76:	681b      	ldr	r3, [r3, #0]
 8002e78:	681a      	ldr	r2, [r3, #0]
 8002e7a:	687b      	ldr	r3, [r7, #4]
 8002e7c:	681b      	ldr	r3, [r3, #0]
 8002e7e:	f022 0208 	bic.w	r2, r2, #8
 8002e82:	601a      	str	r2, [r3, #0]
 8002e84:	687b      	ldr	r3, [r7, #4]
 8002e86:	6c1b      	ldr	r3, [r3, #64]	; 0x40
 8002e88:	2b00      	cmp	r3, #0
 8002e8a:	d003      	beq.n	8002e94 <HAL_DMA_IRQHandler+0x170>
 8002e8c:	687b      	ldr	r3, [r7, #4]
 8002e8e:	6c1b      	ldr	r3, [r3, #64]	; 0x40
 8002e90:	6878      	ldr	r0, [r7, #4]
 8002e92:	4798      	blx	r3
 8002e94:	687b      	ldr	r3, [r7, #4]
 8002e96:	6ddb      	ldr	r3, [r3, #92]	; 0x5c
 8002e98:	2220      	movs	r2, #32
 8002e9a:	409a      	lsls	r2, r3
 8002e9c:	68fb      	ldr	r3, [r7, #12]
 8002e9e:	4013      	ands	r3, r2
 8002ea0:	2b00      	cmp	r3, #0
 8002ea2:	f000 808e 	beq.w	8002fc2 <HAL_DMA_IRQHandler+0x29e>
 8002ea6:	687b      	ldr	r3, [r7, #4]
 8002ea8:	681b      	ldr	r3, [r3, #0]
 8002eaa:	681b      	ldr	r3, [r3, #0]
 8002eac:	f003 0310 	and.w	r3, r3, #16
 8002eb0:	2b00      	cmp	r3, #0
 8002eb2:	f000 8086 	beq.w	8002fc2 <HAL_DMA_IRQHandler+0x29e>
 8002eb6:	687b      	ldr	r3, [r7, #4]
 8002eb8:	6ddb      	ldr	r3, [r3, #92]	; 0x5c
 8002eba:	2220      	movs	r2, #32
 8002ebc:	409a      	lsls	r2, r3
 8002ebe:	693b      	ldr	r3, [r7, #16]
 8002ec0:	609a      	str	r2, [r3, #8]
 8002ec2:	687b      	ldr	r3, [r7, #4]
 8002ec4:	f893 3035 	ldrb.w	r3, [r3, #53]	; 0x35
 8002ec8:	b2db      	uxtb	r3, r3
 8002eca:	2b05      	cmp	r3, #5
 8002ecc:	d136      	bne.n	8002f3c <HAL_DMA_IRQHandler+0x218>
 8002ece:	687b      	ldr	r3, [r7, #4]
 8002ed0:	681b      	ldr	r3, [r3, #0]
 8002ed2:	681a      	ldr	r2, [r3, #0]
 8002ed4:	687b      	ldr	r3, [r7, #4]
 8002ed6:	681b      	ldr	r3, [r3, #0]
 8002ed8:	f022 0216 	bic.w	r2, r2, #22
 8002edc:	601a      	str	r2, [r3, #0]
 8002ede:	687b      	ldr	r3, [r7, #4]
 8002ee0:	681b      	ldr	r3, [r3, #0]
 8002ee2:	695a      	ldr	r2, [r3, #20]
 8002ee4:	687b      	ldr	r3, [r7, #4]
 8002ee6:	681b      	ldr	r3, [r3, #0]
 8002ee8:	f022 0280 	bic.w	r2, r2, #128	; 0x80
 8002eec:	615a      	str	r2, [r3, #20]
 8002eee:	687b      	ldr	r3, [r7, #4]
 8002ef0:	6c1b      	ldr	r3, [r3, #64]	; 0x40
 8002ef2:	2b00      	cmp	r3, #0
 8002ef4:	d103      	bne.n	8002efe <HAL_DMA_IRQHandler+0x1da>
 8002ef6:	687b      	ldr	r3, [r7, #4]
 8002ef8:	6c9b      	ldr	r3, [r3, #72]	; 0x48
 8002efa:	2b00      	cmp	r3, #0
 8002efc:	d007      	beq.n	8002f0e <HAL_DMA_IRQHandler+0x1ea>
 8002efe:	687b      	ldr	r3, [r7, #4]
 8002f00:	681b      	ldr	r3, [r3, #0]
 8002f02:	681a      	ldr	r2, [r3, #0]
 8002f04:	687b      	ldr	r3, [r7, #4]
 8002f06:	681b      	ldr	r3, [r3, #0]
 8002f08:	f022 0208 	bic.w	r2, r2, #8
 8002f0c:	601a      	str	r2, [r3, #0]
 8002f0e:	687b      	ldr	r3, [r7, #4]
 8002f10:	6ddb      	ldr	r3, [r3, #92]	; 0x5c
 8002f12:	223f      	movs	r2, #63	; 0x3f
 8002f14:	409a      	lsls	r2, r3
 8002f16:	693b      	ldr	r3, [r7, #16]
 8002f18:	609a      	str	r2, [r3, #8]
 8002f1a:	687b      	ldr	r3, [r7, #4]
 8002f1c:	2200      	movs	r2, #0
 8002f1e:	f883 2034 	strb.w	r2, [r3, #52]	; 0x34
 8002f22:	687b      	ldr	r3, [r7, #4]
 8002f24:	2201      	movs	r2, #1
 8002f26:	f883 2035 	strb.w	r2, [r3, #53]	; 0x35
 8002f2a:	687b      	ldr	r3, [r7, #4]
 8002f2c:	6d1b      	ldr	r3, [r3, #80]	; 0x50
 8002f2e:	2b00      	cmp	r3, #0
 8002f30:	d07d      	beq.n	800302e <HAL_DMA_IRQHandler+0x30a>
 8002f32:	687b      	ldr	r3, [r7, #4]
 8002f34:	6d1b      	ldr	r3, [r3, #80]	; 0x50
 8002f36:	6878      	ldr	r0, [r7, #4]
 8002f38:	4798      	blx	r3
 8002f3a:	e078      	b.n	800302e <HAL_DMA_IRQHandler+0x30a>
 8002f3c:	687b      	ldr	r3, [r7, #4]
 8002f3e:	681b      	ldr	r3, [r3, #0]
 8002f40:	681b      	ldr	r3, [r3, #0]
 8002f42:	f403 2380 	and.w	r3, r3, #262144	; 0x40000
 8002f46:	2b00      	cmp	r3, #0
 8002f48:	d01c      	beq.n	8002f84 <HAL_DMA_IRQHandler+0x260>
 8002f4a:	687b      	ldr	r3, [r7, #4]
 8002f4c:	681b      	ldr	r3, [r3, #0]
 8002f4e:	681b      	ldr	r3, [r3, #0]
 8002f50:	f403 2300 	and.w	r3, r3, #524288	; 0x80000
 8002f54:	2b00      	cmp	r3, #0
 8002f56:	d108      	bne.n	8002f6a <HAL_DMA_IRQHandler+0x246>
 8002f58:	687b      	ldr	r3, [r7, #4]
 8002f5a:	6c5b      	ldr	r3, [r3, #68]	; 0x44
 8002f5c:	2b00      	cmp	r3, #0
 8002f5e:	d030      	beq.n	8002fc2 <HAL_DMA_IRQHandler+0x29e>
 8002f60:	687b      	ldr	r3, [r7, #4]
 8002f62:	6c5b      	ldr	r3, [r3, #68]	; 0x44
 8002f64:	6878      	ldr	r0, [r7, #4]
 8002f66:	4798      	blx	r3
 8002f68:	e02b      	b.n	8002fc2 <HAL_DMA_IRQHandler+0x29e>
 8002f6a:	687b      	ldr	r3, [r7, #4]
 8002f6c:	6bdb      	ldr	r3, [r3, #60]	; 0x3c
 8002f6e:	2b00      	cmp	r3, #0
 8002f70:	d027      	beq.n	8002fc2 <HAL_DMA_IRQHandler+0x29e>
 8002f72:	687b      	ldr	r3, [r7, #4]
 8002f74:	6bdb      	ldr	r3, [r3, #60]	; 0x3c
 8002f76:	6878      	ldr	r0, [r7, #4]
 8002f78:	4798      	blx	r3
 8002f7a:	e022      	b.n	8002fc2 <HAL_DMA_IRQHandler+0x29e>
 8002f7c:	20000000 	.word	0x20000000
 8002f80:	1b4e81b5 	.word	0x1b4e81b5
 8002f84:	687b      	ldr	r3, [r7, #4]
 8002f86:	681b      	ldr	r3, [r3, #0]
 8002f88:	681b      	ldr	r3, [r3, #0]
 8002f8a:	f403 7380 	and.w	r3, r3, #256	; 0x100
 8002f8e:	2b00      	cmp	r3, #0
 8002f90:	d10f      	bne.n	8002fb2 <HAL_DMA_IRQHandler+0x28e>
 8002f92:	687b      	ldr	r3, [r7, #4]
 8002f94:	681b      	ldr	r3, [r3, #0]
 8002f96:	681a      	ldr	r2, [r3, #0]
 8002f98:	687b      	ldr	r3, [r7, #4]
 8002f9a:	681b      	ldr	r3, [r3, #0]
 8002f9c:	f022 0210 	bic.w	r2, r2, #16
 8002fa0:	601a      	str	r2, [r3, #0]
 8002fa2:	687b      	ldr	r3, [r7, #4]
 8002fa4:	2200      	movs	r2, #0
 8002fa6:	f883 2034 	strb.w	r2, [r3, #52]	; 0x34
 8002faa:	687b      	ldr	r3, [r7, #4]
 8002fac:	2201      	movs	r2, #1
 8002fae:	f883 2035 	strb.w	r2, [r3, #53]	; 0x35
 8002fb2:	687b      	ldr	r3, [r7, #4]
 8002fb4:	6bdb      	ldr	r3, [r3, #60]	; 0x3c
 8002fb6:	2b00      	cmp	r3, #0
 8002fb8:	d003      	beq.n	8002fc2 <HAL_DMA_IRQHandler+0x29e>
 8002fba:	687b      	ldr	r3, [r7, #4]
 8002fbc:	6bdb      	ldr	r3, [r3, #60]	; 0x3c
 8002fbe:	6878      	ldr	r0, [r7, #4]
 8002fc0:	4798      	blx	r3
 8002fc2:	687b      	ldr	r3, [r7, #4]
 8002fc4:	6d5b      	ldr	r3, [r3, #84]	; 0x54
 8002fc6:	2b00      	cmp	r3, #0
 8002fc8:	d032      	beq.n	8003030 <HAL_DMA_IRQHandler+0x30c>
 8002fca:	687b      	ldr	r3, [r7, #4]
 8002fcc:	6d5b      	ldr	r3, [r3, #84]	; 0x54
 8002fce:	f003 0301 	and.w	r3, r3, #1
 8002fd2:	2b00      	cmp	r3, #0
 8002fd4:	d022      	beq.n	800301c <HAL_DMA_IRQHandler+0x2f8>
 8002fd6:	687b      	ldr	r3, [r7, #4]
 8002fd8:	2205      	movs	r2, #5
 8002fda:	f883 2035 	strb.w	r2, [r3, #53]	; 0x35
 8002fde:	687b      	ldr	r3, [r7, #4]
 8002fe0:	681b      	ldr	r3, [r3, #0]
 8002fe2:	681a      	ldr	r2, [r3, #0]
 8002fe4:	687b      	ldr	r3, [r7, #4]
 8002fe6:	681b      	ldr	r3, [r3, #0]
 8002fe8:	f022 0201 	bic.w	r2, r2, #1
 8002fec:	601a      	str	r2, [r3, #0]
 8002fee:	68bb      	ldr	r3, [r7, #8]
 8002ff0:	3301      	adds	r3, #1
 8002ff2:	60bb      	str	r3, [r7, #8]
 8002ff4:	697a      	ldr	r2, [r7, #20]
 8002ff6:	429a      	cmp	r2, r3
 8002ff8:	d307      	bcc.n	800300a <HAL_DMA_IRQHandler+0x2e6>
 8002ffa:	687b      	ldr	r3, [r7, #4]
 8002ffc:	681b      	ldr	r3, [r3, #0]
 8002ffe:	681b      	ldr	r3, [r3, #0]
 8003000:	f003 0301 	and.w	r3, r3, #1
 8003004:	2b00      	cmp	r3, #0
 8003006:	d1f2      	bne.n	8002fee <HAL_DMA_IRQHandler+0x2ca>
 8003008:	e000      	b.n	800300c <HAL_DMA_IRQHandler+0x2e8>
 800300a:	bf00      	nop
 800300c:	687b      	ldr	r3, [r7, #4]
 800300e:	2200      	movs	r2, #0
 8003010:	f883 2034 	strb.w	r2, [r3, #52]	; 0x34
 8003014:	687b      	ldr	r3, [r7, #4]
 8003016:	2201      	movs	r2, #1
 8003018:	f883 2035 	strb.w	r2, [r3, #53]	; 0x35
 800301c:	687b      	ldr	r3, [r7, #4]
 800301e:	6cdb      	ldr	r3, [r3, #76]	; 0x4c
 8003020:	2b00      	cmp	r3, #0
 8003022:	d005      	beq.n	8003030 <HAL_DMA_IRQHandler+0x30c>
 8003024:	687b      	ldr	r3, [r7, #4]
 8003026:	6cdb      	ldr	r3, [r3, #76]	; 0x4c
 8003028:	6878      	ldr	r0, [r7, #4]
 800302a:	4798      	blx	r3
 800302c:	e000      	b.n	8003030 <HAL_DMA_IRQHandler+0x30c>
 800302e:	bf00      	nop
 8003030:	3718      	adds	r7, #24
 8003032:	46bd      	mov	sp, r7
 8003034:	bd80      	pop	{r7, pc}
 8003036:	bf00      	nop

08003038 <DMA_SetConfig>:
 8003038:	b480      	push	{r7}
 800303a:	b085      	sub	sp, #20
 800303c:	af00      	add	r7, sp, #0
 800303e:	60f8      	str	r0, [r7, #12]
 8003040:	60b9      	str	r1, [r7, #8]
 8003042:	607a      	str	r2, [r7, #4]
 8003044:	603b      	str	r3, [r7, #0]
 8003046:	68fb      	ldr	r3, [r7, #12]
 8003048:	681b      	ldr	r3, [r3, #0]
 800304a:	681a      	ldr	r2, [r3, #0]
 800304c:	68fb      	ldr	r3, [r7, #12]
 800304e:	681b      	ldr	r3, [r3, #0]
 8003050:	f422 2280 	bic.w	r2, r2, #262144	; 0x40000
 8003054:	601a      	str	r2, [r3, #0]
 8003056:	68fb      	ldr	r3, [r7, #12]
 8003058:	681b      	ldr	r3, [r3, #0]
 800305a:	683a      	ldr	r2, [r7, #0]
 800305c:	605a      	str	r2, [r3, #4]
 800305e:	68fb      	ldr	r3, [r7, #12]
 8003060:	689b      	ldr	r3, [r3, #8]
 8003062:	2b40      	cmp	r3, #64	; 0x40
 8003064:	d108      	bne.n	8003078 <DMA_SetConfig+0x40>
 8003066:	68fb      	ldr	r3, [r7, #12]
 8003068:	681b      	ldr	r3, [r3, #0]
 800306a:	687a      	ldr	r2, [r7, #4]
 800306c:	609a      	str	r2, [r3, #8]
 800306e:	68fb      	ldr	r3, [r7, #12]
 8003070:	681b      	ldr	r3, [r3, #0]
 8003072:	68ba      	ldr	r2, [r7, #8]
 8003074:	60da      	str	r2, [r3, #12]
 8003076:	e007      	b.n	8003088 <DMA_SetConfig+0x50>
 8003078:	68fb      	ldr	r3, [r7, #12]
 800307a:	681b      	ldr	r3, [r3, #0]
 800307c:	68ba      	ldr	r2, [r7, #8]
 800307e:	609a      	str	r2, [r3, #8]
 8003080:	68fb      	ldr	r3, [r7, #12]
 8003082:	681b      	ldr	r3, [r3, #0]
 8003084:	687a      	ldr	r2, [r7, #4]
 8003086:	60da      	str	r2, [r3, #12]
 8003088:	bf00      	nop
 800308a:	3714      	adds	r7, #20
 800308c:	46bd      	mov	sp, r7
 800308e:	f85d 7b04 	ldr.w	r7, [sp], #4
 8003092:	4770      	bx	lr

08003094 <DMA_CalcBaseAndBitshift>:
 8003094:	b480      	push	{r7}
 8003096:	b085      	sub	sp, #20
 8003098:	af00      	add	r7, sp, #0
 800309a:	6078      	str	r0, [r7, #4]
 800309c:	687b      	ldr	r3, [r7, #4]
 800309e:	681b      	ldr	r3, [r3, #0]
 80030a0:	b2db      	uxtb	r3, r3
 80030a2:	3b10      	subs	r3, #16
 80030a4:	4a14      	ldr	r2, [pc, #80]	; (80030f8 <DMA_CalcBaseAndBitshift+0x64>)
 80030a6:	fba2 2303 	umull	r2, r3, r2, r3
 80030aa:	091b      	lsrs	r3, r3, #4
 80030ac:	60fb      	str	r3, [r7, #12]
 80030ae:	4a13      	ldr	r2, [pc, #76]	; (80030fc <DMA_CalcBaseAndBitshift+0x68>)
 80030b0:	68fb      	ldr	r3, [r7, #12]
 80030b2:	4413      	add	r3, r2
 80030b4:	781b      	ldrb	r3, [r3, #0]
 80030b6:	461a      	mov	r2, r3
 80030b8:	687b      	ldr	r3, [r7, #4]
 80030ba:	65da      	str	r2, [r3, #92]	; 0x5c
 80030bc:	68fb      	ldr	r3, [r7, #12]
 80030be:	2b03      	cmp	r3, #3
 80030c0:	d909      	bls.n	80030d6 <DMA_CalcBaseAndBitshift+0x42>
 80030c2:	687b      	ldr	r3, [r7, #4]
 80030c4:	681b      	ldr	r3, [r3, #0]
 80030c6:	f423 737f 	bic.w	r3, r3, #1020	; 0x3fc
 80030ca:	f023 0303 	bic.w	r3, r3, #3
 80030ce:	1d1a      	adds	r2, r3, #4
 80030d0:	687b      	ldr	r3, [r7, #4]
 80030d2:	659a      	str	r2, [r3, #88]	; 0x58
 80030d4:	e007      	b.n	80030e6 <DMA_CalcBaseAndBitshift+0x52>
 80030d6:	687b      	ldr	r3, [r7, #4]
 80030d8:	681b      	ldr	r3, [r3, #0]
 80030da:	f423 737f 	bic.w	r3, r3, #1020	; 0x3fc
 80030de:	f023 0303 	bic.w	r3, r3, #3
 80030e2:	687a      	ldr	r2, [r7, #4]
 80030e4:	6593      	str	r3, [r2, #88]	; 0x58
 80030e6:	687b      	ldr	r3, [r7, #4]
 80030e8:	6d9b      	ldr	r3, [r3, #88]	; 0x58
 80030ea:	4618      	mov	r0, r3
 80030ec:	3714      	adds	r7, #20
 80030ee:	46bd      	mov	sp, r7
 80030f0:	f85d 7b04 	ldr.w	r7, [sp], #4
 80030f4:	4770      	bx	lr
 80030f6:	bf00      	nop
 80030f8:	aaaaaaab 	.word	0xaaaaaaab
 80030fc:	080078e0 	.word	0x080078e0

08003100 <DMA_CheckFifoParam>:
 8003100:	b480      	push	{r7}
 8003102:	b085      	sub	sp, #20
 8003104:	af00      	add	r7, sp, #0
 8003106:	6078      	str	r0, [r7, #4]
 8003108:	2300      	movs	r3, #0
 800310a:	73fb      	strb	r3, [r7, #15]
 800310c:	687b      	ldr	r3, [r7, #4]
 800310e:	6a9b      	ldr	r3, [r3, #40]	; 0x28
 8003110:	60bb      	str	r3, [r7, #8]
 8003112:	687b      	ldr	r3, [r7, #4]
 8003114:	699b      	ldr	r3, [r3, #24]
 8003116:	2b00      	cmp	r3, #0
 8003118:	d11f      	bne.n	800315a <DMA_CheckFifoParam+0x5a>
 800311a:	68bb      	ldr	r3, [r7, #8]
 800311c:	2b03      	cmp	r3, #3
 800311e:	d855      	bhi.n	80031cc <DMA_CheckFifoParam+0xcc>
 8003120:	a201      	add	r2, pc, #4	; (adr r2, 8003128 <DMA_CheckFifoParam+0x28>)
 8003122:	f852 f023 	ldr.w	pc, [r2, r3, lsl #2]
 8003126:	bf00      	nop
 8003128:	08003139 	.word	0x08003139
 800312c:	0800314b 	.word	0x0800314b
 8003130:	08003139 	.word	0x08003139
 8003134:	080031cd 	.word	0x080031cd
 8003138:	687b      	ldr	r3, [r7, #4]
 800313a:	6adb      	ldr	r3, [r3, #44]	; 0x2c
 800313c:	f003 7380 	and.w	r3, r3, #16777216	; 0x1000000
 8003140:	2b00      	cmp	r3, #0
 8003142:	d045      	beq.n	80031d0 <DMA_CheckFifoParam+0xd0>
 8003144:	2301      	movs	r3, #1
 8003146:	73fb      	strb	r3, [r7, #15]
 8003148:	e042      	b.n	80031d0 <DMA_CheckFifoParam+0xd0>
 800314a:	687b      	ldr	r3, [r7, #4]
 800314c:	6adb      	ldr	r3, [r3, #44]	; 0x2c
 800314e:	f1b3 7fc0 	cmp.w	r3, #25165824	; 0x1800000
 8003152:	d13f      	bne.n	80031d4 <DMA_CheckFifoParam+0xd4>
 8003154:	2301      	movs	r3, #1
 8003156:	73fb      	strb	r3, [r7, #15]
 8003158:	e03c      	b.n	80031d4 <DMA_CheckFifoParam+0xd4>
 800315a:	687b      	ldr	r3, [r7, #4]
 800315c:	699b      	ldr	r3, [r3, #24]
 800315e:	f5b3 5f00 	cmp.w	r3, #8192	; 0x2000
 8003162:	d121      	bne.n	80031a8 <DMA_CheckFifoParam+0xa8>
 8003164:	68bb      	ldr	r3, [r7, #8]
 8003166:	2b03      	cmp	r3, #3
 8003168:	d836      	bhi.n	80031d8 <DMA_CheckFifoParam+0xd8>
 800316a:	a201      	add	r2, pc, #4	; (adr r2, 8003170 <DMA_CheckFifoParam+0x70>)
 800316c:	f852 f023 	ldr.w	pc, [r2, r3, lsl #2]
 8003170:	08003181 	.word	0x08003181
 8003174:	08003187 	.word	0x08003187
 8003178:	08003181 	.word	0x08003181
 800317c:	08003199 	.word	0x08003199
 8003180:	2301      	movs	r3, #1
 8003182:	73fb      	strb	r3, [r7, #15]
 8003184:	e02f      	b.n	80031e6 <DMA_CheckFifoParam+0xe6>
 8003186:	687b      	ldr	r3, [r7, #4]
 8003188:	6adb      	ldr	r3, [r3, #44]	; 0x2c
 800318a:	f003 7380 	and.w	r3, r3, #16777216	; 0x1000000
 800318e:	2b00      	cmp	r3, #0
 8003190:	d024      	beq.n	80031dc <DMA_CheckFifoParam+0xdc>
 8003192:	2301      	movs	r3, #1
 8003194:	73fb      	strb	r3, [r7, #15]
 8003196:	e021      	b.n	80031dc <DMA_CheckFifoParam+0xdc>
 8003198:	687b      	ldr	r3, [r7, #4]
 800319a:	6adb      	ldr	r3, [r3, #44]	; 0x2c
 800319c:	f1b3 7fc0 	cmp.w	r3, #25165824	; 0x1800000
 80031a0:	d11e      	bne.n	80031e0 <DMA_CheckFifoParam+0xe0>
 80031a2:	2301      	movs	r3, #1
 80031a4:	73fb      	strb	r3, [r7, #15]
 80031a6:	e01b      	b.n	80031e0 <DMA_CheckFifoParam+0xe0>
 80031a8:	68bb      	ldr	r3, [r7, #8]
 80031aa:	2b02      	cmp	r3, #2
 80031ac:	d902      	bls.n	80031b4 <DMA_CheckFifoParam+0xb4>
 80031ae:	2b03      	cmp	r3, #3
 80031b0:	d003      	beq.n	80031ba <DMA_CheckFifoParam+0xba>
 80031b2:	e018      	b.n	80031e6 <DMA_CheckFifoParam+0xe6>
 80031b4:	2301      	movs	r3, #1
 80031b6:	73fb      	strb	r3, [r7, #15]
 80031b8:	e015      	b.n	80031e6 <DMA_CheckFifoParam+0xe6>
 80031ba:	687b      	ldr	r3, [r7, #4]
 80031bc:	6adb      	ldr	r3, [r3, #44]	; 0x2c
 80031be:	f003 7380 	and.w	r3, r3, #16777216	; 0x1000000
 80031c2:	2b00      	cmp	r3, #0
 80031c4:	d00e      	beq.n	80031e4 <DMA_CheckFifoParam+0xe4>
 80031c6:	2301      	movs	r3, #1
 80031c8:	73fb      	strb	r3, [r7, #15]
 80031ca:	e00b      	b.n	80031e4 <DMA_CheckFifoParam+0xe4>
 80031cc:	bf00      	nop
 80031ce:	e00a      	b.n	80031e6 <DMA_CheckFifoParam+0xe6>
 80031d0:	bf00      	nop
 80031d2:	e008      	b.n	80031e6 <DMA_CheckFifoParam+0xe6>
 80031d4:	bf00      	nop
 80031d6:	e006      	b.n	80031e6 <DMA_CheckFifoParam+0xe6>
 80031d8:	bf00      	nop
 80031da:	e004      	b.n	80031e6 <DMA_CheckFifoParam+0xe6>
 80031dc:	bf00      	nop
 80031de:	e002      	b.n	80031e6 <DMA_CheckFifoParam+0xe6>
 80031e0:	bf00      	nop
 80031e2:	e000      	b.n	80031e6 <DMA_CheckFifoParam+0xe6>
 80031e4:	bf00      	nop
 80031e6:	7bfb      	ldrb	r3, [r7, #15]
 80031e8:	4618      	mov	r0, r3
 80031ea:	3714      	adds	r7, #20
 80031ec:	46bd      	mov	sp, r7
 80031ee:	f85d 7b04 	ldr.w	r7, [sp], #4
 80031f2:	4770      	bx	lr

080031f4 <HAL_GPIO_Init>:
 80031f4:	b480      	push	{r7}
 80031f6:	b089      	sub	sp, #36	; 0x24
 80031f8:	af00      	add	r7, sp, #0
 80031fa:	6078      	str	r0, [r7, #4]
 80031fc:	6039      	str	r1, [r7, #0]
 80031fe:	2300      	movs	r3, #0
 8003200:	617b      	str	r3, [r7, #20]
 8003202:	2300      	movs	r3, #0
 8003204:	613b      	str	r3, [r7, #16]
 8003206:	2300      	movs	r3, #0
 8003208:	61bb      	str	r3, [r7, #24]
 800320a:	2300      	movs	r3, #0
 800320c:	61fb      	str	r3, [r7, #28]
 800320e:	e159      	b.n	80034c4 <HAL_GPIO_Init+0x2d0>
 8003210:	2201      	movs	r2, #1
 8003212:	69fb      	ldr	r3, [r7, #28]
 8003214:	fa02 f303 	lsl.w	r3, r2, r3
 8003218:	617b      	str	r3, [r7, #20]
 800321a:	683b      	ldr	r3, [r7, #0]
 800321c:	681b      	ldr	r3, [r3, #0]
 800321e:	697a      	ldr	r2, [r7, #20]
 8003220:	4013      	ands	r3, r2
 8003222:	613b      	str	r3, [r7, #16]
 8003224:	693a      	ldr	r2, [r7, #16]
 8003226:	697b      	ldr	r3, [r7, #20]
 8003228:	429a      	cmp	r2, r3
 800322a:	f040 8148 	bne.w	80034be <HAL_GPIO_Init+0x2ca>
 800322e:	683b      	ldr	r3, [r7, #0]
 8003230:	685b      	ldr	r3, [r3, #4]
 8003232:	2b01      	cmp	r3, #1
 8003234:	d00b      	beq.n	800324e <HAL_GPIO_Init+0x5a>
 8003236:	683b      	ldr	r3, [r7, #0]
 8003238:	685b      	ldr	r3, [r3, #4]
 800323a:	2b02      	cmp	r3, #2
 800323c:	d007      	beq.n	800324e <HAL_GPIO_Init+0x5a>
 800323e:	683b      	ldr	r3, [r7, #0]
 8003240:	685b      	ldr	r3, [r3, #4]
 8003242:	2b11      	cmp	r3, #17
 8003244:	d003      	beq.n	800324e <HAL_GPIO_Init+0x5a>
 8003246:	683b      	ldr	r3, [r7, #0]
 8003248:	685b      	ldr	r3, [r3, #4]
 800324a:	2b12      	cmp	r3, #18
 800324c:	d130      	bne.n	80032b0 <HAL_GPIO_Init+0xbc>
 800324e:	687b      	ldr	r3, [r7, #4]
 8003250:	689b      	ldr	r3, [r3, #8]
 8003252:	61bb      	str	r3, [r7, #24]
 8003254:	69fb      	ldr	r3, [r7, #28]
 8003256:	005b      	lsls	r3, r3, #1
 8003258:	2203      	movs	r2, #3
 800325a:	fa02 f303 	lsl.w	r3, r2, r3
 800325e:	43db      	mvns	r3, r3
 8003260:	69ba      	ldr	r2, [r7, #24]
 8003262:	4013      	ands	r3, r2
 8003264:	61bb      	str	r3, [r7, #24]
 8003266:	683b      	ldr	r3, [r7, #0]
 8003268:	68da      	ldr	r2, [r3, #12]
 800326a:	69fb      	ldr	r3, [r7, #28]
 800326c:	005b      	lsls	r3, r3, #1
 800326e:	fa02 f303 	lsl.w	r3, r2, r3
 8003272:	69ba      	ldr	r2, [r7, #24]
 8003274:	4313      	orrs	r3, r2
 8003276:	61bb      	str	r3, [r7, #24]
 8003278:	687b      	ldr	r3, [r7, #4]
 800327a:	69ba      	ldr	r2, [r7, #24]
 800327c:	609a      	str	r2, [r3, #8]
 800327e:	687b      	ldr	r3, [r7, #4]
 8003280:	685b      	ldr	r3, [r3, #4]
 8003282:	61bb      	str	r3, [r7, #24]
 8003284:	2201      	movs	r2, #1
 8003286:	69fb      	ldr	r3, [r7, #28]
 8003288:	fa02 f303 	lsl.w	r3, r2, r3
 800328c:	43db      	mvns	r3, r3
 800328e:	69ba      	ldr	r2, [r7, #24]
 8003290:	4013      	ands	r3, r2
 8003292:	61bb      	str	r3, [r7, #24]
 8003294:	683b      	ldr	r3, [r7, #0]
 8003296:	685b      	ldr	r3, [r3, #4]
 8003298:	091b      	lsrs	r3, r3, #4
 800329a:	f003 0201 	and.w	r2, r3, #1
 800329e:	69fb      	ldr	r3, [r7, #28]
 80032a0:	fa02 f303 	lsl.w	r3, r2, r3
 80032a4:	69ba      	ldr	r2, [r7, #24]
 80032a6:	4313      	orrs	r3, r2
 80032a8:	61bb      	str	r3, [r7, #24]
 80032aa:	687b      	ldr	r3, [r7, #4]
 80032ac:	69ba      	ldr	r2, [r7, #24]
 80032ae:	605a      	str	r2, [r3, #4]
 80032b0:	687b      	ldr	r3, [r7, #4]
 80032b2:	68db      	ldr	r3, [r3, #12]
 80032b4:	61bb      	str	r3, [r7, #24]
 80032b6:	69fb      	ldr	r3, [r7, #28]
 80032b8:	005b      	lsls	r3, r3, #1
 80032ba:	2203      	movs	r2, #3
 80032bc:	fa02 f303 	lsl.w	r3, r2, r3
 80032c0:	43db      	mvns	r3, r3
 80032c2:	69ba      	ldr	r2, [r7, #24]
 80032c4:	4013      	ands	r3, r2
 80032c6:	61bb      	str	r3, [r7, #24]
 80032c8:	683b      	ldr	r3, [r7, #0]
 80032ca:	689a      	ldr	r2, [r3, #8]
 80032cc:	69fb      	ldr	r3, [r7, #28]
 80032ce:	005b      	lsls	r3, r3, #1
 80032d0:	fa02 f303 	lsl.w	r3, r2, r3
 80032d4:	69ba      	ldr	r2, [r7, #24]
 80032d6:	4313      	orrs	r3, r2
 80032d8:	61bb      	str	r3, [r7, #24]
 80032da:	687b      	ldr	r3, [r7, #4]
 80032dc:	69ba      	ldr	r2, [r7, #24]
 80032de:	60da      	str	r2, [r3, #12]
 80032e0:	683b      	ldr	r3, [r7, #0]
 80032e2:	685b      	ldr	r3, [r3, #4]
 80032e4:	2b02      	cmp	r3, #2
 80032e6:	d003      	beq.n	80032f0 <HAL_GPIO_Init+0xfc>
 80032e8:	683b      	ldr	r3, [r7, #0]
 80032ea:	685b      	ldr	r3, [r3, #4]
 80032ec:	2b12      	cmp	r3, #18
 80032ee:	d123      	bne.n	8003338 <HAL_GPIO_Init+0x144>
 80032f0:	69fb      	ldr	r3, [r7, #28]
 80032f2:	08da      	lsrs	r2, r3, #3
 80032f4:	687b      	ldr	r3, [r7, #4]
 80032f6:	3208      	adds	r2, #8
 80032f8:	f853 3022 	ldr.w	r3, [r3, r2, lsl #2]
 80032fc:	61bb      	str	r3, [r7, #24]
 80032fe:	69fb      	ldr	r3, [r7, #28]
 8003300:	f003 0307 	and.w	r3, r3, #7
 8003304:	009b      	lsls	r3, r3, #2
 8003306:	220f      	movs	r2, #15
 8003308:	fa02 f303 	lsl.w	r3, r2, r3
 800330c:	43db      	mvns	r3, r3
 800330e:	69ba      	ldr	r2, [r7, #24]
 8003310:	4013      	ands	r3, r2
 8003312:	61bb      	str	r3, [r7, #24]
 8003314:	683b      	ldr	r3, [r7, #0]
 8003316:	691a      	ldr	r2, [r3, #16]
 8003318:	69fb      	ldr	r3, [r7, #28]
 800331a:	f003 0307 	and.w	r3, r3, #7
 800331e:	009b      	lsls	r3, r3, #2
 8003320:	fa02 f303 	lsl.w	r3, r2, r3
 8003324:	69ba      	ldr	r2, [r7, #24]
 8003326:	4313      	orrs	r3, r2
 8003328:	61bb      	str	r3, [r7, #24]
 800332a:	69fb      	ldr	r3, [r7, #28]
 800332c:	08da      	lsrs	r2, r3, #3
 800332e:	687b      	ldr	r3, [r7, #4]
 8003330:	3208      	adds	r2, #8
 8003332:	69b9      	ldr	r1, [r7, #24]
 8003334:	f843 1022 	str.w	r1, [r3, r2, lsl #2]
 8003338:	687b      	ldr	r3, [r7, #4]
 800333a:	681b      	ldr	r3, [r3, #0]
 800333c:	61bb      	str	r3, [r7, #24]
 800333e:	69fb      	ldr	r3, [r7, #28]
 8003340:	005b      	lsls	r3, r3, #1
 8003342:	2203      	movs	r2, #3
 8003344:	fa02 f303 	lsl.w	r3, r2, r3
 8003348:	43db      	mvns	r3, r3
 800334a:	69ba      	ldr	r2, [r7, #24]
 800334c:	4013      	ands	r3, r2
 800334e:	61bb      	str	r3, [r7, #24]
 8003350:	683b      	ldr	r3, [r7, #0]
 8003352:	685b      	ldr	r3, [r3, #4]
 8003354:	f003 0203 	and.w	r2, r3, #3
 8003358:	69fb      	ldr	r3, [r7, #28]
 800335a:	005b      	lsls	r3, r3, #1
 800335c:	fa02 f303 	lsl.w	r3, r2, r3
 8003360:	69ba      	ldr	r2, [r7, #24]
 8003362:	4313      	orrs	r3, r2
 8003364:	61bb      	str	r3, [r7, #24]
 8003366:	687b      	ldr	r3, [r7, #4]
 8003368:	69ba      	ldr	r2, [r7, #24]
 800336a:	601a      	str	r2, [r3, #0]
 800336c:	683b      	ldr	r3, [r7, #0]
 800336e:	685b      	ldr	r3, [r3, #4]
 8003370:	f003 5380 	and.w	r3, r3, #268435456	; 0x10000000
 8003374:	2b00      	cmp	r3, #0
 8003376:	f000 80a2 	beq.w	80034be <HAL_GPIO_Init+0x2ca>
 800337a:	2300      	movs	r3, #0
 800337c:	60fb      	str	r3, [r7, #12]
 800337e:	4b56      	ldr	r3, [pc, #344]	; (80034d8 <HAL_GPIO_Init+0x2e4>)
 8003380:	6c5b      	ldr	r3, [r3, #68]	; 0x44
 8003382:	4a55      	ldr	r2, [pc, #340]	; (80034d8 <HAL_GPIO_Init+0x2e4>)
 8003384:	f443 4380 	orr.w	r3, r3, #16384	; 0x4000
 8003388:	6453      	str	r3, [r2, #68]	; 0x44
 800338a:	4b53      	ldr	r3, [pc, #332]	; (80034d8 <HAL_GPIO_Init+0x2e4>)
 800338c:	6c5b      	ldr	r3, [r3, #68]	; 0x44
 800338e:	f403 4380 	and.w	r3, r3, #16384	; 0x4000
 8003392:	60fb      	str	r3, [r7, #12]
 8003394:	68fb      	ldr	r3, [r7, #12]
 8003396:	4a51      	ldr	r2, [pc, #324]	; (80034dc <HAL_GPIO_Init+0x2e8>)
 8003398:	69fb      	ldr	r3, [r7, #28]
 800339a:	089b      	lsrs	r3, r3, #2
 800339c:	3302      	adds	r3, #2
 800339e:	f852 3023 	ldr.w	r3, [r2, r3, lsl #2]
 80033a2:	61bb      	str	r3, [r7, #24]
 80033a4:	69fb      	ldr	r3, [r7, #28]
 80033a6:	f003 0303 	and.w	r3, r3, #3
 80033aa:	009b      	lsls	r3, r3, #2
 80033ac:	220f      	movs	r2, #15
 80033ae:	fa02 f303 	lsl.w	r3, r2, r3
 80033b2:	43db      	mvns	r3, r3
 80033b4:	69ba      	ldr	r2, [r7, #24]
 80033b6:	4013      	ands	r3, r2
 80033b8:	61bb      	str	r3, [r7, #24]
 80033ba:	687b      	ldr	r3, [r7, #4]
 80033bc:	4a48      	ldr	r2, [pc, #288]	; (80034e0 <HAL_GPIO_Init+0x2ec>)
 80033be:	4293      	cmp	r3, r2
 80033c0:	d019      	beq.n	80033f6 <HAL_GPIO_Init+0x202>
 80033c2:	687b      	ldr	r3, [r7, #4]
 80033c4:	4a47      	ldr	r2, [pc, #284]	; (80034e4 <HAL_GPIO_Init+0x2f0>)
 80033c6:	4293      	cmp	r3, r2
 80033c8:	d013      	beq.n	80033f2 <HAL_GPIO_Init+0x1fe>
 80033ca:	687b      	ldr	r3, [r7, #4]
 80033cc:	4a46      	ldr	r2, [pc, #280]	; (80034e8 <HAL_GPIO_Init+0x2f4>)
 80033ce:	4293      	cmp	r3, r2
 80033d0:	d00d      	beq.n	80033ee <HAL_GPIO_Init+0x1fa>
 80033d2:	687b      	ldr	r3, [r7, #4]
 80033d4:	4a45      	ldr	r2, [pc, #276]	; (80034ec <HAL_GPIO_Init+0x2f8>)
 80033d6:	4293      	cmp	r3, r2
 80033d8:	d007      	beq.n	80033ea <HAL_GPIO_Init+0x1f6>
 80033da:	687b      	ldr	r3, [r7, #4]
 80033dc:	4a44      	ldr	r2, [pc, #272]	; (80034f0 <HAL_GPIO_Init+0x2fc>)
 80033de:	4293      	cmp	r3, r2
 80033e0:	d101      	bne.n	80033e6 <HAL_GPIO_Init+0x1f2>
 80033e2:	2304      	movs	r3, #4
 80033e4:	e008      	b.n	80033f8 <HAL_GPIO_Init+0x204>
 80033e6:	2307      	movs	r3, #7
 80033e8:	e006      	b.n	80033f8 <HAL_GPIO_Init+0x204>
 80033ea:	2303      	movs	r3, #3
 80033ec:	e004      	b.n	80033f8 <HAL_GPIO_Init+0x204>
 80033ee:	2302      	movs	r3, #2
 80033f0:	e002      	b.n	80033f8 <HAL_GPIO_Init+0x204>
 80033f2:	2301      	movs	r3, #1
 80033f4:	e000      	b.n	80033f8 <HAL_GPIO_Init+0x204>
 80033f6:	2300      	movs	r3, #0
 80033f8:	69fa      	ldr	r2, [r7, #28]
 80033fa:	f002 0203 	and.w	r2, r2, #3
 80033fe:	0092      	lsls	r2, r2, #2
 8003400:	4093      	lsls	r3, r2
 8003402:	69ba      	ldr	r2, [r7, #24]
 8003404:	4313      	orrs	r3, r2
 8003406:	61bb      	str	r3, [r7, #24]
 8003408:	4934      	ldr	r1, [pc, #208]	; (80034dc <HAL_GPIO_Init+0x2e8>)
 800340a:	69fb      	ldr	r3, [r7, #28]
 800340c:	089b      	lsrs	r3, r3, #2
 800340e:	3302      	adds	r3, #2
 8003410:	69ba      	ldr	r2, [r7, #24]
 8003412:	f841 2023 	str.w	r2, [r1, r3, lsl #2]
 8003416:	4b37      	ldr	r3, [pc, #220]	; (80034f4 <HAL_GPIO_Init+0x300>)
 8003418:	681b      	ldr	r3, [r3, #0]
 800341a:	61bb      	str	r3, [r7, #24]
 800341c:	693b      	ldr	r3, [r7, #16]
 800341e:	43db      	mvns	r3, r3
 8003420:	69ba      	ldr	r2, [r7, #24]
 8003422:	4013      	ands	r3, r2
 8003424:	61bb      	str	r3, [r7, #24]
 8003426:	683b      	ldr	r3, [r7, #0]
 8003428:	685b      	ldr	r3, [r3, #4]
 800342a:	f403 3380 	and.w	r3, r3, #65536	; 0x10000
 800342e:	2b00      	cmp	r3, #0
 8003430:	d003      	beq.n	800343a <HAL_GPIO_Init+0x246>
 8003432:	69ba      	ldr	r2, [r7, #24]
 8003434:	693b      	ldr	r3, [r7, #16]
 8003436:	4313      	orrs	r3, r2
 8003438:	61bb      	str	r3, [r7, #24]
 800343a:	4a2e      	ldr	r2, [pc, #184]	; (80034f4 <HAL_GPIO_Init+0x300>)
 800343c:	69bb      	ldr	r3, [r7, #24]
 800343e:	6013      	str	r3, [r2, #0]
 8003440:	4b2c      	ldr	r3, [pc, #176]	; (80034f4 <HAL_GPIO_Init+0x300>)
 8003442:	685b      	ldr	r3, [r3, #4]
 8003444:	61bb      	str	r3, [r7, #24]
 8003446:	693b      	ldr	r3, [r7, #16]
 8003448:	43db      	mvns	r3, r3
 800344a:	69ba      	ldr	r2, [r7, #24]
 800344c:	4013      	ands	r3, r2
 800344e:	61bb      	str	r3, [r7, #24]
 8003450:	683b      	ldr	r3, [r7, #0]
 8003452:	685b      	ldr	r3, [r3, #4]
 8003454:	f403 3300 	and.w	r3, r3, #131072	; 0x20000
 8003458:	2b00      	cmp	r3, #0
 800345a:	d003      	beq.n	8003464 <HAL_GPIO_Init+0x270>
 800345c:	69ba      	ldr	r2, [r7, #24]
 800345e:	693b      	ldr	r3, [r7, #16]
 8003460:	4313      	orrs	r3, r2
 8003462:	61bb      	str	r3, [r7, #24]
 8003464:	4a23      	ldr	r2, [pc, #140]	; (80034f4 <HAL_GPIO_Init+0x300>)
 8003466:	69bb      	ldr	r3, [r7, #24]
 8003468:	6053      	str	r3, [r2, #4]
 800346a:	4b22      	ldr	r3, [pc, #136]	; (80034f4 <HAL_GPIO_Init+0x300>)
 800346c:	689b      	ldr	r3, [r3, #8]
 800346e:	61bb      	str	r3, [r7, #24]
 8003470:	693b      	ldr	r3, [r7, #16]
 8003472:	43db      	mvns	r3, r3
 8003474:	69ba      	ldr	r2, [r7, #24]
 8003476:	4013      	ands	r3, r2
 8003478:	61bb      	str	r3, [r7, #24]
 800347a:	683b      	ldr	r3, [r7, #0]
 800347c:	685b      	ldr	r3, [r3, #4]
 800347e:	f403 1380 	and.w	r3, r3, #1048576	; 0x100000
 8003482:	2b00      	cmp	r3, #0
 8003484:	d003      	beq.n	800348e <HAL_GPIO_Init+0x29a>
 8003486:	69ba      	ldr	r2, [r7, #24]
 8003488:	693b      	ldr	r3, [r7, #16]
 800348a:	4313      	orrs	r3, r2
 800348c:	61bb      	str	r3, [r7, #24]
 800348e:	4a19      	ldr	r2, [pc, #100]	; (80034f4 <HAL_GPIO_Init+0x300>)
 8003490:	69bb      	ldr	r3, [r7, #24]
 8003492:	6093      	str	r3, [r2, #8]
 8003494:	4b17      	ldr	r3, [pc, #92]	; (80034f4 <HAL_GPIO_Init+0x300>)
 8003496:	68db      	ldr	r3, [r3, #12]
 8003498:	61bb      	str	r3, [r7, #24]
 800349a:	693b      	ldr	r3, [r7, #16]
 800349c:	43db      	mvns	r3, r3
 800349e:	69ba      	ldr	r2, [r7, #24]
 80034a0:	4013      	ands	r3, r2
 80034a2:	61bb      	str	r3, [r7, #24]
 80034a4:	683b      	ldr	r3, [r7, #0]
 80034a6:	685b      	ldr	r3, [r3, #4]
 80034a8:	f403 1300 	and.w	r3, r3, #2097152	; 0x200000
 80034ac:	2b00      	cmp	r3, #0
 80034ae:	d003      	beq.n	80034b8 <HAL_GPIO_Init+0x2c4>
 80034b0:	69ba      	ldr	r2, [r7, #24]
 80034b2:	693b      	ldr	r3, [r7, #16]
 80034b4:	4313      	orrs	r3, r2
 80034b6:	61bb      	str	r3, [r7, #24]
 80034b8:	4a0e      	ldr	r2, [pc, #56]	; (80034f4 <HAL_GPIO_Init+0x300>)
 80034ba:	69bb      	ldr	r3, [r7, #24]
 80034bc:	60d3      	str	r3, [r2, #12]
 80034be:	69fb      	ldr	r3, [r7, #28]
 80034c0:	3301      	adds	r3, #1
 80034c2:	61fb      	str	r3, [r7, #28]
 80034c4:	69fb      	ldr	r3, [r7, #28]
 80034c6:	2b0f      	cmp	r3, #15
 80034c8:	f67f aea2 	bls.w	8003210 <HAL_GPIO_Init+0x1c>
 80034cc:	bf00      	nop
 80034ce:	3724      	adds	r7, #36	; 0x24
 80034d0:	46bd      	mov	sp, r7
 80034d2:	f85d 7b04 	ldr.w	r7, [sp], #4
 80034d6:	4770      	bx	lr
 80034d8:	40023800 	.word	0x40023800
 80034dc:	40013800 	.word	0x40013800
 80034e0:	40020000 	.word	0x40020000
 80034e4:	40020400 	.word	0x40020400
 80034e8:	40020800 	.word	0x40020800
 80034ec:	40020c00 	.word	0x40020c00
 80034f0:	40021000 	.word	0x40021000
 80034f4:	40013c00 	.word	0x40013c00

080034f8 <HAL_GPIO_WritePin>:
 80034f8:	b480      	push	{r7}
 80034fa:	b083      	sub	sp, #12
 80034fc:	af00      	add	r7, sp, #0
 80034fe:	6078      	str	r0, [r7, #4]
 8003500:	460b      	mov	r3, r1
 8003502:	807b      	strh	r3, [r7, #2]
 8003504:	4613      	mov	r3, r2
 8003506:	707b      	strb	r3, [r7, #1]
 8003508:	787b      	ldrb	r3, [r7, #1]
 800350a:	2b00      	cmp	r3, #0
 800350c:	d003      	beq.n	8003516 <HAL_GPIO_WritePin+0x1e>
 800350e:	887a      	ldrh	r2, [r7, #2]
 8003510:	687b      	ldr	r3, [r7, #4]
 8003512:	619a      	str	r2, [r3, #24]
 8003514:	e003      	b.n	800351e <HAL_GPIO_WritePin+0x26>
 8003516:	887b      	ldrh	r3, [r7, #2]
 8003518:	041a      	lsls	r2, r3, #16
 800351a:	687b      	ldr	r3, [r7, #4]
 800351c:	619a      	str	r2, [r3, #24]
 800351e:	bf00      	nop
 8003520:	370c      	adds	r7, #12
 8003522:	46bd      	mov	sp, r7
 8003524:	f85d 7b04 	ldr.w	r7, [sp], #4
 8003528:	4770      	bx	lr
	...

0800352c <HAL_RCC_OscConfig>:
 800352c:	b580      	push	{r7, lr}
 800352e:	b086      	sub	sp, #24
 8003530:	af00      	add	r7, sp, #0
 8003532:	6078      	str	r0, [r7, #4]
 8003534:	687b      	ldr	r3, [r7, #4]
 8003536:	2b00      	cmp	r3, #0
 8003538:	d101      	bne.n	800353e <HAL_RCC_OscConfig+0x12>
 800353a:	2301      	movs	r3, #1
 800353c:	e25b      	b.n	80039f6 <HAL_RCC_OscConfig+0x4ca>
 800353e:	687b      	ldr	r3, [r7, #4]
 8003540:	681b      	ldr	r3, [r3, #0]
 8003542:	f003 0301 	and.w	r3, r3, #1
 8003546:	2b00      	cmp	r3, #0
 8003548:	d075      	beq.n	8003636 <HAL_RCC_OscConfig+0x10a>
 800354a:	4ba3      	ldr	r3, [pc, #652]	; (80037d8 <HAL_RCC_OscConfig+0x2ac>)
 800354c:	689b      	ldr	r3, [r3, #8]
 800354e:	f003 030c 	and.w	r3, r3, #12
 8003552:	2b04      	cmp	r3, #4
 8003554:	d00c      	beq.n	8003570 <HAL_RCC_OscConfig+0x44>
 8003556:	4ba0      	ldr	r3, [pc, #640]	; (80037d8 <HAL_RCC_OscConfig+0x2ac>)
 8003558:	689b      	ldr	r3, [r3, #8]
 800355a:	f003 030c 	and.w	r3, r3, #12
 800355e:	2b08      	cmp	r3, #8
 8003560:	d112      	bne.n	8003588 <HAL_RCC_OscConfig+0x5c>
 8003562:	4b9d      	ldr	r3, [pc, #628]	; (80037d8 <HAL_RCC_OscConfig+0x2ac>)
 8003564:	685b      	ldr	r3, [r3, #4]
 8003566:	f403 0380 	and.w	r3, r3, #4194304	; 0x400000
 800356a:	f5b3 0f80 	cmp.w	r3, #4194304	; 0x400000
 800356e:	d10b      	bne.n	8003588 <HAL_RCC_OscConfig+0x5c>
 8003570:	4b99      	ldr	r3, [pc, #612]	; (80037d8 <HAL_RCC_OscConfig+0x2ac>)
 8003572:	681b      	ldr	r3, [r3, #0]
 8003574:	f403 3300 	and.w	r3, r3, #131072	; 0x20000
 8003578:	2b00      	cmp	r3, #0
 800357a:	d05b      	beq.n	8003634 <HAL_RCC_OscConfig+0x108>
 800357c:	687b      	ldr	r3, [r7, #4]
 800357e:	685b      	ldr	r3, [r3, #4]
 8003580:	2b00      	cmp	r3, #0
 8003582:	d157      	bne.n	8003634 <HAL_RCC_OscConfig+0x108>
 8003584:	2301      	movs	r3, #1
 8003586:	e236      	b.n	80039f6 <HAL_RCC_OscConfig+0x4ca>
 8003588:	687b      	ldr	r3, [r7, #4]
 800358a:	685b      	ldr	r3, [r3, #4]
 800358c:	f5b3 3f80 	cmp.w	r3, #65536	; 0x10000
 8003590:	d106      	bne.n	80035a0 <HAL_RCC_OscConfig+0x74>
 8003592:	4b91      	ldr	r3, [pc, #580]	; (80037d8 <HAL_RCC_OscConfig+0x2ac>)
 8003594:	681b      	ldr	r3, [r3, #0]
 8003596:	4a90      	ldr	r2, [pc, #576]	; (80037d8 <HAL_RCC_OscConfig+0x2ac>)
 8003598:	f443 3380 	orr.w	r3, r3, #65536	; 0x10000
 800359c:	6013      	str	r3, [r2, #0]
 800359e:	e01d      	b.n	80035dc <HAL_RCC_OscConfig+0xb0>
 80035a0:	687b      	ldr	r3, [r7, #4]
 80035a2:	685b      	ldr	r3, [r3, #4]
 80035a4:	f5b3 2fa0 	cmp.w	r3, #327680	; 0x50000
 80035a8:	d10c      	bne.n	80035c4 <HAL_RCC_OscConfig+0x98>
 80035aa:	4b8b      	ldr	r3, [pc, #556]	; (80037d8 <HAL_RCC_OscConfig+0x2ac>)
 80035ac:	681b      	ldr	r3, [r3, #0]
 80035ae:	4a8a      	ldr	r2, [pc, #552]	; (80037d8 <HAL_RCC_OscConfig+0x2ac>)
 80035b0:	f443 2380 	orr.w	r3, r3, #262144	; 0x40000
 80035b4:	6013      	str	r3, [r2, #0]
 80035b6:	4b88      	ldr	r3, [pc, #544]	; (80037d8 <HAL_RCC_OscConfig+0x2ac>)
 80035b8:	681b      	ldr	r3, [r3, #0]
 80035ba:	4a87      	ldr	r2, [pc, #540]	; (80037d8 <HAL_RCC_OscConfig+0x2ac>)
 80035bc:	f443 3380 	orr.w	r3, r3, #65536	; 0x10000
 80035c0:	6013      	str	r3, [r2, #0]
 80035c2:	e00b      	b.n	80035dc <HAL_RCC_OscConfig+0xb0>
 80035c4:	4b84      	ldr	r3, [pc, #528]	; (80037d8 <HAL_RCC_OscConfig+0x2ac>)
 80035c6:	681b      	ldr	r3, [r3, #0]
 80035c8:	4a83      	ldr	r2, [pc, #524]	; (80037d8 <HAL_RCC_OscConfig+0x2ac>)
 80035ca:	f423 3380 	bic.w	r3, r3, #65536	; 0x10000
 80035ce:	6013      	str	r3, [r2, #0]
 80035d0:	4b81      	ldr	r3, [pc, #516]	; (80037d8 <HAL_RCC_OscConfig+0x2ac>)
 80035d2:	681b      	ldr	r3, [r3, #0]
 80035d4:	4a80      	ldr	r2, [pc, #512]	; (80037d8 <HAL_RCC_OscConfig+0x2ac>)
 80035d6:	f423 2380 	bic.w	r3, r3, #262144	; 0x40000
 80035da:	6013      	str	r3, [r2, #0]
 80035dc:	687b      	ldr	r3, [r7, #4]
 80035de:	685b      	ldr	r3, [r3, #4]
 80035e0:	2b00      	cmp	r3, #0
 80035e2:	d013      	beq.n	800360c <HAL_RCC_OscConfig+0xe0>
 80035e4:	f7ff f936 	bl	8002854 <HAL_GetTick>
 80035e8:	6138      	str	r0, [r7, #16]
 80035ea:	e008      	b.n	80035fe <HAL_RCC_OscConfig+0xd2>
 80035ec:	f7ff f932 	bl	8002854 <HAL_GetTick>
 80035f0:	4602      	mov	r2, r0
 80035f2:	693b      	ldr	r3, [r7, #16]
 80035f4:	1ad3      	subs	r3, r2, r3
 80035f6:	2b64      	cmp	r3, #100	; 0x64
 80035f8:	d901      	bls.n	80035fe <HAL_RCC_OscConfig+0xd2>
 80035fa:	2303      	movs	r3, #3
 80035fc:	e1fb      	b.n	80039f6 <HAL_RCC_OscConfig+0x4ca>
 80035fe:	4b76      	ldr	r3, [pc, #472]	; (80037d8 <HAL_RCC_OscConfig+0x2ac>)
 8003600:	681b      	ldr	r3, [r3, #0]
 8003602:	f403 3300 	and.w	r3, r3, #131072	; 0x20000
 8003606:	2b00      	cmp	r3, #0
 8003608:	d0f0      	beq.n	80035ec <HAL_RCC_OscConfig+0xc0>
 800360a:	e014      	b.n	8003636 <HAL_RCC_OscConfig+0x10a>
 800360c:	f7ff f922 	bl	8002854 <HAL_GetTick>
 8003610:	6138      	str	r0, [r7, #16]
 8003612:	e008      	b.n	8003626 <HAL_RCC_OscConfig+0xfa>
 8003614:	f7ff f91e 	bl	8002854 <HAL_GetTick>
 8003618:	4602      	mov	r2, r0
 800361a:	693b      	ldr	r3, [r7, #16]
 800361c:	1ad3      	subs	r3, r2, r3
 800361e:	2b64      	cmp	r3, #100	; 0x64
 8003620:	d901      	bls.n	8003626 <HAL_RCC_OscConfig+0xfa>
 8003622:	2303      	movs	r3, #3
 8003624:	e1e7      	b.n	80039f6 <HAL_RCC_OscConfig+0x4ca>
 8003626:	4b6c      	ldr	r3, [pc, #432]	; (80037d8 <HAL_RCC_OscConfig+0x2ac>)
 8003628:	681b      	ldr	r3, [r3, #0]
 800362a:	f403 3300 	and.w	r3, r3, #131072	; 0x20000
 800362e:	2b00      	cmp	r3, #0
 8003630:	d1f0      	bne.n	8003614 <HAL_RCC_OscConfig+0xe8>
 8003632:	e000      	b.n	8003636 <HAL_RCC_OscConfig+0x10a>
 8003634:	bf00      	nop
 8003636:	687b      	ldr	r3, [r7, #4]
 8003638:	681b      	ldr	r3, [r3, #0]
 800363a:	f003 0302 	and.w	r3, r3, #2
 800363e:	2b00      	cmp	r3, #0
 8003640:	d063      	beq.n	800370a <HAL_RCC_OscConfig+0x1de>
 8003642:	4b65      	ldr	r3, [pc, #404]	; (80037d8 <HAL_RCC_OscConfig+0x2ac>)
 8003644:	689b      	ldr	r3, [r3, #8]
 8003646:	f003 030c 	and.w	r3, r3, #12
 800364a:	2b00      	cmp	r3, #0
 800364c:	d00b      	beq.n	8003666 <HAL_RCC_OscConfig+0x13a>
 800364e:	4b62      	ldr	r3, [pc, #392]	; (80037d8 <HAL_RCC_OscConfig+0x2ac>)
 8003650:	689b      	ldr	r3, [r3, #8]
 8003652:	f003 030c 	and.w	r3, r3, #12
 8003656:	2b08      	cmp	r3, #8
 8003658:	d11c      	bne.n	8003694 <HAL_RCC_OscConfig+0x168>
 800365a:	4b5f      	ldr	r3, [pc, #380]	; (80037d8 <HAL_RCC_OscConfig+0x2ac>)
 800365c:	685b      	ldr	r3, [r3, #4]
 800365e:	f403 0380 	and.w	r3, r3, #4194304	; 0x400000
 8003662:	2b00      	cmp	r3, #0
 8003664:	d116      	bne.n	8003694 <HAL_RCC_OscConfig+0x168>
 8003666:	4b5c      	ldr	r3, [pc, #368]	; (80037d8 <HAL_RCC_OscConfig+0x2ac>)
 8003668:	681b      	ldr	r3, [r3, #0]
 800366a:	f003 0302 	and.w	r3, r3, #2
 800366e:	2b00      	cmp	r3, #0
 8003670:	d005      	beq.n	800367e <HAL_RCC_OscConfig+0x152>
 8003672:	687b      	ldr	r3, [r7, #4]
 8003674:	68db      	ldr	r3, [r3, #12]
 8003676:	2b01      	cmp	r3, #1
 8003678:	d001      	beq.n	800367e <HAL_RCC_OscConfig+0x152>
 800367a:	2301      	movs	r3, #1
 800367c:	e1bb      	b.n	80039f6 <HAL_RCC_OscConfig+0x4ca>
 800367e:	4b56      	ldr	r3, [pc, #344]	; (80037d8 <HAL_RCC_OscConfig+0x2ac>)
 8003680:	681b      	ldr	r3, [r3, #0]
 8003682:	f023 02f8 	bic.w	r2, r3, #248	; 0xf8
 8003686:	687b      	ldr	r3, [r7, #4]
 8003688:	691b      	ldr	r3, [r3, #16]
 800368a:	00db      	lsls	r3, r3, #3
 800368c:	4952      	ldr	r1, [pc, #328]	; (80037d8 <HAL_RCC_OscConfig+0x2ac>)
 800368e:	4313      	orrs	r3, r2
 8003690:	600b      	str	r3, [r1, #0]
 8003692:	e03a      	b.n	800370a <HAL_RCC_OscConfig+0x1de>
 8003694:	687b      	ldr	r3, [r7, #4]
 8003696:	68db      	ldr	r3, [r3, #12]
 8003698:	2b00      	cmp	r3, #0
 800369a:	d020      	beq.n	80036de <HAL_RCC_OscConfig+0x1b2>
 800369c:	4b4f      	ldr	r3, [pc, #316]	; (80037dc <HAL_RCC_OscConfig+0x2b0>)
 800369e:	2201      	movs	r2, #1
 80036a0:	601a      	str	r2, [r3, #0]
 80036a2:	f7ff f8d7 	bl	8002854 <HAL_GetTick>
 80036a6:	6138      	str	r0, [r7, #16]
 80036a8:	e008      	b.n	80036bc <HAL_RCC_OscConfig+0x190>
 80036aa:	f7ff f8d3 	bl	8002854 <HAL_GetTick>
 80036ae:	4602      	mov	r2, r0
 80036b0:	693b      	ldr	r3, [r7, #16]
 80036b2:	1ad3      	subs	r3, r2, r3
 80036b4:	2b02      	cmp	r3, #2
 80036b6:	d901      	bls.n	80036bc <HAL_RCC_OscConfig+0x190>
 80036b8:	2303      	movs	r3, #3
 80036ba:	e19c      	b.n	80039f6 <HAL_RCC_OscConfig+0x4ca>
 80036bc:	4b46      	ldr	r3, [pc, #280]	; (80037d8 <HAL_RCC_OscConfig+0x2ac>)
 80036be:	681b      	ldr	r3, [r3, #0]
 80036c0:	f003 0302 	and.w	r3, r3, #2
 80036c4:	2b00      	cmp	r3, #0
 80036c6:	d0f0      	beq.n	80036aa <HAL_RCC_OscConfig+0x17e>
 80036c8:	4b43      	ldr	r3, [pc, #268]	; (80037d8 <HAL_RCC_OscConfig+0x2ac>)
 80036ca:	681b      	ldr	r3, [r3, #0]
 80036cc:	f023 02f8 	bic.w	r2, r3, #248	; 0xf8
 80036d0:	687b      	ldr	r3, [r7, #4]
 80036d2:	691b      	ldr	r3, [r3, #16]
 80036d4:	00db      	lsls	r3, r3, #3
 80036d6:	4940      	ldr	r1, [pc, #256]	; (80037d8 <HAL_RCC_OscConfig+0x2ac>)
 80036d8:	4313      	orrs	r3, r2
 80036da:	600b      	str	r3, [r1, #0]
 80036dc:	e015      	b.n	800370a <HAL_RCC_OscConfig+0x1de>
 80036de:	4b3f      	ldr	r3, [pc, #252]	; (80037dc <HAL_RCC_OscConfig+0x2b0>)
 80036e0:	2200      	movs	r2, #0
 80036e2:	601a      	str	r2, [r3, #0]
 80036e4:	f7ff f8b6 	bl	8002854 <HAL_GetTick>
 80036e8:	6138      	str	r0, [r7, #16]
 80036ea:	e008      	b.n	80036fe <HAL_RCC_OscConfig+0x1d2>
 80036ec:	f7ff f8b2 	bl	8002854 <HAL_GetTick>
 80036f0:	4602      	mov	r2, r0
 80036f2:	693b      	ldr	r3, [r7, #16]
 80036f4:	1ad3      	subs	r3, r2, r3
 80036f6:	2b02      	cmp	r3, #2
 80036f8:	d901      	bls.n	80036fe <HAL_RCC_OscConfig+0x1d2>
 80036fa:	2303      	movs	r3, #3
 80036fc:	e17b      	b.n	80039f6 <HAL_RCC_OscConfig+0x4ca>
 80036fe:	4b36      	ldr	r3, [pc, #216]	; (80037d8 <HAL_RCC_OscConfig+0x2ac>)
 8003700:	681b      	ldr	r3, [r3, #0]
 8003702:	f003 0302 	and.w	r3, r3, #2
 8003706:	2b00      	cmp	r3, #0
 8003708:	d1f0      	bne.n	80036ec <HAL_RCC_OscConfig+0x1c0>
 800370a:	687b      	ldr	r3, [r7, #4]
 800370c:	681b      	ldr	r3, [r3, #0]
 800370e:	f003 0308 	and.w	r3, r3, #8
 8003712:	2b00      	cmp	r3, #0
 8003714:	d030      	beq.n	8003778 <HAL_RCC_OscConfig+0x24c>
 8003716:	687b      	ldr	r3, [r7, #4]
 8003718:	695b      	ldr	r3, [r3, #20]
 800371a:	2b00      	cmp	r3, #0
 800371c:	d016      	beq.n	800374c <HAL_RCC_OscConfig+0x220>
 800371e:	4b30      	ldr	r3, [pc, #192]	; (80037e0 <HAL_RCC_OscConfig+0x2b4>)
 8003720:	2201      	movs	r2, #1
 8003722:	601a      	str	r2, [r3, #0]
 8003724:	f7ff f896 	bl	8002854 <HAL_GetTick>
 8003728:	6138      	str	r0, [r7, #16]
 800372a:	e008      	b.n	800373e <HAL_RCC_OscConfig+0x212>
 800372c:	f7ff f892 	bl	8002854 <HAL_GetTick>
 8003730:	4602      	mov	r2, r0
 8003732:	693b      	ldr	r3, [r7, #16]
 8003734:	1ad3      	subs	r3, r2, r3
 8003736:	2b02      	cmp	r3, #2
 8003738:	d901      	bls.n	800373e <HAL_RCC_OscConfig+0x212>
 800373a:	2303      	movs	r3, #3
 800373c:	e15b      	b.n	80039f6 <HAL_RCC_OscConfig+0x4ca>
 800373e:	4b26      	ldr	r3, [pc, #152]	; (80037d8 <HAL_RCC_OscConfig+0x2ac>)
 8003740:	6f5b      	ldr	r3, [r3, #116]	; 0x74
 8003742:	f003 0302 	and.w	r3, r3, #2
 8003746:	2b00      	cmp	r3, #0
 8003748:	d0f0      	beq.n	800372c <HAL_RCC_OscConfig+0x200>
 800374a:	e015      	b.n	8003778 <HAL_RCC_OscConfig+0x24c>
 800374c:	4b24      	ldr	r3, [pc, #144]	; (80037e0 <HAL_RCC_OscConfig+0x2b4>)
 800374e:	2200      	movs	r2, #0
 8003750:	601a      	str	r2, [r3, #0]
 8003752:	f7ff f87f 	bl	8002854 <HAL_GetTick>
 8003756:	6138      	str	r0, [r7, #16]
 8003758:	e008      	b.n	800376c <HAL_RCC_OscConfig+0x240>
 800375a:	f7ff f87b 	bl	8002854 <HAL_GetTick>
 800375e:	4602      	mov	r2, r0
 8003760:	693b      	ldr	r3, [r7, #16]
 8003762:	1ad3      	subs	r3, r2, r3
 8003764:	2b02      	cmp	r3, #2
 8003766:	d901      	bls.n	800376c <HAL_RCC_OscConfig+0x240>
 8003768:	2303      	movs	r3, #3
 800376a:	e144      	b.n	80039f6 <HAL_RCC_OscConfig+0x4ca>
 800376c:	4b1a      	ldr	r3, [pc, #104]	; (80037d8 <HAL_RCC_OscConfig+0x2ac>)
 800376e:	6f5b      	ldr	r3, [r3, #116]	; 0x74
 8003770:	f003 0302 	and.w	r3, r3, #2
 8003774:	2b00      	cmp	r3, #0
 8003776:	d1f0      	bne.n	800375a <HAL_RCC_OscConfig+0x22e>
 8003778:	687b      	ldr	r3, [r7, #4]
 800377a:	681b      	ldr	r3, [r3, #0]
 800377c:	f003 0304 	and.w	r3, r3, #4
 8003780:	2b00      	cmp	r3, #0
 8003782:	f000 80a0 	beq.w	80038c6 <HAL_RCC_OscConfig+0x39a>
 8003786:	2300      	movs	r3, #0
 8003788:	75fb      	strb	r3, [r7, #23]
 800378a:	4b13      	ldr	r3, [pc, #76]	; (80037d8 <HAL_RCC_OscConfig+0x2ac>)
 800378c:	6c1b      	ldr	r3, [r3, #64]	; 0x40
 800378e:	f003 5380 	and.w	r3, r3, #268435456	; 0x10000000
 8003792:	2b00      	cmp	r3, #0
 8003794:	d10f      	bne.n	80037b6 <HAL_RCC_OscConfig+0x28a>
 8003796:	2300      	movs	r3, #0
 8003798:	60bb      	str	r3, [r7, #8]
 800379a:	4b0f      	ldr	r3, [pc, #60]	; (80037d8 <HAL_RCC_OscConfig+0x2ac>)
 800379c:	6c1b      	ldr	r3, [r3, #64]	; 0x40
 800379e:	4a0e      	ldr	r2, [pc, #56]	; (80037d8 <HAL_RCC_OscConfig+0x2ac>)
 80037a0:	f043 5380 	orr.w	r3, r3, #268435456	; 0x10000000
 80037a4:	6413      	str	r3, [r2, #64]	; 0x40
 80037a6:	4b0c      	ldr	r3, [pc, #48]	; (80037d8 <HAL_RCC_OscConfig+0x2ac>)
 80037a8:	6c1b      	ldr	r3, [r3, #64]	; 0x40
 80037aa:	f003 5380 	and.w	r3, r3, #268435456	; 0x10000000
 80037ae:	60bb      	str	r3, [r7, #8]
 80037b0:	68bb      	ldr	r3, [r7, #8]
 80037b2:	2301      	movs	r3, #1
 80037b4:	75fb      	strb	r3, [r7, #23]
 80037b6:	4b0b      	ldr	r3, [pc, #44]	; (80037e4 <HAL_RCC_OscConfig+0x2b8>)
 80037b8:	681b      	ldr	r3, [r3, #0]
 80037ba:	f403 7380 	and.w	r3, r3, #256	; 0x100
 80037be:	2b00      	cmp	r3, #0
 80037c0:	d121      	bne.n	8003806 <HAL_RCC_OscConfig+0x2da>
 80037c2:	4b08      	ldr	r3, [pc, #32]	; (80037e4 <HAL_RCC_OscConfig+0x2b8>)
 80037c4:	681b      	ldr	r3, [r3, #0]
 80037c6:	4a07      	ldr	r2, [pc, #28]	; (80037e4 <HAL_RCC_OscConfig+0x2b8>)
 80037c8:	f443 7380 	orr.w	r3, r3, #256	; 0x100
 80037cc:	6013      	str	r3, [r2, #0]
 80037ce:	f7ff f841 	bl	8002854 <HAL_GetTick>
 80037d2:	6138      	str	r0, [r7, #16]
 80037d4:	e011      	b.n	80037fa <HAL_RCC_OscConfig+0x2ce>
 80037d6:	bf00      	nop
 80037d8:	40023800 	.word	0x40023800
 80037dc:	42470000 	.word	0x42470000
 80037e0:	42470e80 	.word	0x42470e80
 80037e4:	40007000 	.word	0x40007000
 80037e8:	f7ff f834 	bl	8002854 <HAL_GetTick>
 80037ec:	4602      	mov	r2, r0
 80037ee:	693b      	ldr	r3, [r7, #16]
 80037f0:	1ad3      	subs	r3, r2, r3
 80037f2:	2b02      	cmp	r3, #2
 80037f4:	d901      	bls.n	80037fa <HAL_RCC_OscConfig+0x2ce>
 80037f6:	2303      	movs	r3, #3
 80037f8:	e0fd      	b.n	80039f6 <HAL_RCC_OscConfig+0x4ca>
 80037fa:	4b81      	ldr	r3, [pc, #516]	; (8003a00 <HAL_RCC_OscConfig+0x4d4>)
 80037fc:	681b      	ldr	r3, [r3, #0]
 80037fe:	f403 7380 	and.w	r3, r3, #256	; 0x100
 8003802:	2b00      	cmp	r3, #0
 8003804:	d0f0      	beq.n	80037e8 <HAL_RCC_OscConfig+0x2bc>
 8003806:	687b      	ldr	r3, [r7, #4]
 8003808:	689b      	ldr	r3, [r3, #8]
 800380a:	2b01      	cmp	r3, #1
 800380c:	d106      	bne.n	800381c <HAL_RCC_OscConfig+0x2f0>
 800380e:	4b7d      	ldr	r3, [pc, #500]	; (8003a04 <HAL_RCC_OscConfig+0x4d8>)
 8003810:	6f1b      	ldr	r3, [r3, #112]	; 0x70
 8003812:	4a7c      	ldr	r2, [pc, #496]	; (8003a04 <HAL_RCC_OscConfig+0x4d8>)
 8003814:	f043 0301 	orr.w	r3, r3, #1
 8003818:	6713      	str	r3, [r2, #112]	; 0x70
 800381a:	e01c      	b.n	8003856 <HAL_RCC_OscConfig+0x32a>
 800381c:	687b      	ldr	r3, [r7, #4]
 800381e:	689b      	ldr	r3, [r3, #8]
 8003820:	2b05      	cmp	r3, #5
 8003822:	d10c      	bne.n	800383e <HAL_RCC_OscConfig+0x312>
 8003824:	4b77      	ldr	r3, [pc, #476]	; (8003a04 <HAL_RCC_OscConfig+0x4d8>)
 8003826:	6f1b      	ldr	r3, [r3, #112]	; 0x70
 8003828:	4a76      	ldr	r2, [pc, #472]	; (8003a04 <HAL_RCC_OscConfig+0x4d8>)
 800382a:	f043 0304 	orr.w	r3, r3, #4
 800382e:	6713      	str	r3, [r2, #112]	; 0x70
 8003830:	4b74      	ldr	r3, [pc, #464]	; (8003a04 <HAL_RCC_OscConfig+0x4d8>)
 8003832:	6f1b      	ldr	r3, [r3, #112]	; 0x70
 8003834:	4a73      	ldr	r2, [pc, #460]	; (8003a04 <HAL_RCC_OscConfig+0x4d8>)
 8003836:	f043 0301 	orr.w	r3, r3, #1
 800383a:	6713      	str	r3, [r2, #112]	; 0x70
 800383c:	e00b      	b.n	8003856 <HAL_RCC_OscConfig+0x32a>
 800383e:	4b71      	ldr	r3, [pc, #452]	; (8003a04 <HAL_RCC_OscConfig+0x4d8>)
 8003840:	6f1b      	ldr	r3, [r3, #112]	; 0x70
 8003842:	4a70      	ldr	r2, [pc, #448]	; (8003a04 <HAL_RCC_OscConfig+0x4d8>)
 8003844:	f023 0301 	bic.w	r3, r3, #1
 8003848:	6713      	str	r3, [r2, #112]	; 0x70
 800384a:	4b6e      	ldr	r3, [pc, #440]	; (8003a04 <HAL_RCC_OscConfig+0x4d8>)
 800384c:	6f1b      	ldr	r3, [r3, #112]	; 0x70
 800384e:	4a6d      	ldr	r2, [pc, #436]	; (8003a04 <HAL_RCC_OscConfig+0x4d8>)
 8003850:	f023 0304 	bic.w	r3, r3, #4
 8003854:	6713      	str	r3, [r2, #112]	; 0x70
 8003856:	687b      	ldr	r3, [r7, #4]
 8003858:	689b      	ldr	r3, [r3, #8]
 800385a:	2b00      	cmp	r3, #0
 800385c:	d015      	beq.n	800388a <HAL_RCC_OscConfig+0x35e>
 800385e:	f7fe fff9 	bl	8002854 <HAL_GetTick>
 8003862:	6138      	str	r0, [r7, #16]
 8003864:	e00a      	b.n	800387c <HAL_RCC_OscConfig+0x350>
 8003866:	f7fe fff5 	bl	8002854 <HAL_GetTick>
 800386a:	4602      	mov	r2, r0
 800386c:	693b      	ldr	r3, [r7, #16]
 800386e:	1ad3      	subs	r3, r2, r3
 8003870:	f241 3288 	movw	r2, #5000	; 0x1388
 8003874:	4293      	cmp	r3, r2
 8003876:	d901      	bls.n	800387c <HAL_RCC_OscConfig+0x350>
 8003878:	2303      	movs	r3, #3
 800387a:	e0bc      	b.n	80039f6 <HAL_RCC_OscConfig+0x4ca>
 800387c:	4b61      	ldr	r3, [pc, #388]	; (8003a04 <HAL_RCC_OscConfig+0x4d8>)
 800387e:	6f1b      	ldr	r3, [r3, #112]	; 0x70
 8003880:	f003 0302 	and.w	r3, r3, #2
 8003884:	2b00      	cmp	r3, #0
 8003886:	d0ee      	beq.n	8003866 <HAL_RCC_OscConfig+0x33a>
 8003888:	e014      	b.n	80038b4 <HAL_RCC_OscConfig+0x388>
 800388a:	f7fe ffe3 	bl	8002854 <HAL_GetTick>
 800388e:	6138      	str	r0, [r7, #16]
 8003890:	e00a      	b.n	80038a8 <HAL_RCC_OscConfig+0x37c>
 8003892:	f7fe ffdf 	bl	8002854 <HAL_GetTick>
 8003896:	4602      	mov	r2, r0
 8003898:	693b      	ldr	r3, [r7, #16]
 800389a:	1ad3      	subs	r3, r2, r3
 800389c:	f241 3288 	movw	r2, #5000	; 0x1388
 80038a0:	4293      	cmp	r3, r2
 80038a2:	d901      	bls.n	80038a8 <HAL_RCC_OscConfig+0x37c>
 80038a4:	2303      	movs	r3, #3
 80038a6:	e0a6      	b.n	80039f6 <HAL_RCC_OscConfig+0x4ca>
 80038a8:	4b56      	ldr	r3, [pc, #344]	; (8003a04 <HAL_RCC_OscConfig+0x4d8>)
 80038aa:	6f1b      	ldr	r3, [r3, #112]	; 0x70
 80038ac:	f003 0302 	and.w	r3, r3, #2
 80038b0:	2b00      	cmp	r3, #0
 80038b2:	d1ee      	bne.n	8003892 <HAL_RCC_OscConfig+0x366>
 80038b4:	7dfb      	ldrb	r3, [r7, #23]
 80038b6:	2b01      	cmp	r3, #1
 80038b8:	d105      	bne.n	80038c6 <HAL_RCC_OscConfig+0x39a>
 80038ba:	4b52      	ldr	r3, [pc, #328]	; (8003a04 <HAL_RCC_OscConfig+0x4d8>)
 80038bc:	6c1b      	ldr	r3, [r3, #64]	; 0x40
 80038be:	4a51      	ldr	r2, [pc, #324]	; (8003a04 <HAL_RCC_OscConfig+0x4d8>)
 80038c0:	f023 5380 	bic.w	r3, r3, #268435456	; 0x10000000
 80038c4:	6413      	str	r3, [r2, #64]	; 0x40
 80038c6:	687b      	ldr	r3, [r7, #4]
 80038c8:	699b      	ldr	r3, [r3, #24]
 80038ca:	2b00      	cmp	r3, #0
 80038cc:	f000 8092 	beq.w	80039f4 <HAL_RCC_OscConfig+0x4c8>
 80038d0:	4b4c      	ldr	r3, [pc, #304]	; (8003a04 <HAL_RCC_OscConfig+0x4d8>)
 80038d2:	689b      	ldr	r3, [r3, #8]
 80038d4:	f003 030c 	and.w	r3, r3, #12
 80038d8:	2b08      	cmp	r3, #8
 80038da:	d05c      	beq.n	8003996 <HAL_RCC_OscConfig+0x46a>
 80038dc:	687b      	ldr	r3, [r7, #4]
 80038de:	699b      	ldr	r3, [r3, #24]
 80038e0:	2b02      	cmp	r3, #2
 80038e2:	d141      	bne.n	8003968 <HAL_RCC_OscConfig+0x43c>
 80038e4:	4b48      	ldr	r3, [pc, #288]	; (8003a08 <HAL_RCC_OscConfig+0x4dc>)
 80038e6:	2200      	movs	r2, #0
 80038e8:	601a      	str	r2, [r3, #0]
 80038ea:	f7fe ffb3 	bl	8002854 <HAL_GetTick>
 80038ee:	6138      	str	r0, [r7, #16]
 80038f0:	e008      	b.n	8003904 <HAL_RCC_OscConfig+0x3d8>
 80038f2:	f7fe ffaf 	bl	8002854 <HAL_GetTick>
 80038f6:	4602      	mov	r2, r0
 80038f8:	693b      	ldr	r3, [r7, #16]
 80038fa:	1ad3      	subs	r3, r2, r3
 80038fc:	2b02      	cmp	r3, #2
 80038fe:	d901      	bls.n	8003904 <HAL_RCC_OscConfig+0x3d8>
 8003900:	2303      	movs	r3, #3
 8003902:	e078      	b.n	80039f6 <HAL_RCC_OscConfig+0x4ca>
 8003904:	4b3f      	ldr	r3, [pc, #252]	; (8003a04 <HAL_RCC_OscConfig+0x4d8>)
 8003906:	681b      	ldr	r3, [r3, #0]
 8003908:	f003 7300 	and.w	r3, r3, #33554432	; 0x2000000
 800390c:	2b00      	cmp	r3, #0
 800390e:	d1f0      	bne.n	80038f2 <HAL_RCC_OscConfig+0x3c6>
 8003910:	687b      	ldr	r3, [r7, #4]
 8003912:	69da      	ldr	r2, [r3, #28]
 8003914:	687b      	ldr	r3, [r7, #4]
 8003916:	6a1b      	ldr	r3, [r3, #32]
 8003918:	431a      	orrs	r2, r3
 800391a:	687b      	ldr	r3, [r7, #4]
 800391c:	6a5b      	ldr	r3, [r3, #36]	; 0x24
 800391e:	019b      	lsls	r3, r3, #6
 8003920:	431a      	orrs	r2, r3
 8003922:	687b      	ldr	r3, [r7, #4]
 8003924:	6a9b      	ldr	r3, [r3, #40]	; 0x28
 8003926:	085b      	lsrs	r3, r3, #1
 8003928:	3b01      	subs	r3, #1
 800392a:	041b      	lsls	r3, r3, #16
 800392c:	431a      	orrs	r2, r3
 800392e:	687b      	ldr	r3, [r7, #4]
 8003930:	6adb      	ldr	r3, [r3, #44]	; 0x2c
 8003932:	061b      	lsls	r3, r3, #24
 8003934:	4933      	ldr	r1, [pc, #204]	; (8003a04 <HAL_RCC_OscConfig+0x4d8>)
 8003936:	4313      	orrs	r3, r2
 8003938:	604b      	str	r3, [r1, #4]
 800393a:	4b33      	ldr	r3, [pc, #204]	; (8003a08 <HAL_RCC_OscConfig+0x4dc>)
 800393c:	2201      	movs	r2, #1
 800393e:	601a      	str	r2, [r3, #0]
 8003940:	f7fe ff88 	bl	8002854 <HAL_GetTick>
 8003944:	6138      	str	r0, [r7, #16]
 8003946:	e008      	b.n	800395a <HAL_RCC_OscConfig+0x42e>
 8003948:	f7fe ff84 	bl	8002854 <HAL_GetTick>
 800394c:	4602      	mov	r2, r0
 800394e:	693b      	ldr	r3, [r7, #16]
 8003950:	1ad3      	subs	r3, r2, r3
 8003952:	2b02      	cmp	r3, #2
 8003954:	d901      	bls.n	800395a <HAL_RCC_OscConfig+0x42e>
 8003956:	2303      	movs	r3, #3
 8003958:	e04d      	b.n	80039f6 <HAL_RCC_OscConfig+0x4ca>
 800395a:	4b2a      	ldr	r3, [pc, #168]	; (8003a04 <HAL_RCC_OscConfig+0x4d8>)
 800395c:	681b      	ldr	r3, [r3, #0]
 800395e:	f003 7300 	and.w	r3, r3, #33554432	; 0x2000000
 8003962:	2b00      	cmp	r3, #0
 8003964:	d0f0      	beq.n	8003948 <HAL_RCC_OscConfig+0x41c>
 8003966:	e045      	b.n	80039f4 <HAL_RCC_OscConfig+0x4c8>
 8003968:	4b27      	ldr	r3, [pc, #156]	; (8003a08 <HAL_RCC_OscConfig+0x4dc>)
 800396a:	2200      	movs	r2, #0
 800396c:	601a      	str	r2, [r3, #0]
 800396e:	f7fe ff71 	bl	8002854 <HAL_GetTick>
 8003972:	6138      	str	r0, [r7, #16]
 8003974:	e008      	b.n	8003988 <HAL_RCC_OscConfig+0x45c>
 8003976:	f7fe ff6d 	bl	8002854 <HAL_GetTick>
 800397a:	4602      	mov	r2, r0
 800397c:	693b      	ldr	r3, [r7, #16]
 800397e:	1ad3      	subs	r3, r2, r3
 8003980:	2b02      	cmp	r3, #2
 8003982:	d901      	bls.n	8003988 <HAL_RCC_OscConfig+0x45c>
 8003984:	2303      	movs	r3, #3
 8003986:	e036      	b.n	80039f6 <HAL_RCC_OscConfig+0x4ca>
 8003988:	4b1e      	ldr	r3, [pc, #120]	; (8003a04 <HAL_RCC_OscConfig+0x4d8>)
 800398a:	681b      	ldr	r3, [r3, #0]
 800398c:	f003 7300 	and.w	r3, r3, #33554432	; 0x2000000
 8003990:	2b00      	cmp	r3, #0
 8003992:	d1f0      	bne.n	8003976 <HAL_RCC_OscConfig+0x44a>
 8003994:	e02e      	b.n	80039f4 <HAL_RCC_OscConfig+0x4c8>
 8003996:	687b      	ldr	r3, [r7, #4]
 8003998:	699b      	ldr	r3, [r3, #24]
 800399a:	2b01      	cmp	r3, #1
 800399c:	d101      	bne.n	80039a2 <HAL_RCC_OscConfig+0x476>
 800399e:	2301      	movs	r3, #1
 80039a0:	e029      	b.n	80039f6 <HAL_RCC_OscConfig+0x4ca>
 80039a2:	4b18      	ldr	r3, [pc, #96]	; (8003a04 <HAL_RCC_OscConfig+0x4d8>)
 80039a4:	685b      	ldr	r3, [r3, #4]
 80039a6:	60fb      	str	r3, [r7, #12]
 80039a8:	68fb      	ldr	r3, [r7, #12]
 80039aa:	f403 0280 	and.w	r2, r3, #4194304	; 0x400000
 80039ae:	687b      	ldr	r3, [r7, #4]
 80039b0:	69db      	ldr	r3, [r3, #28]
 80039b2:	429a      	cmp	r2, r3
 80039b4:	d11c      	bne.n	80039f0 <HAL_RCC_OscConfig+0x4c4>
 80039b6:	68fb      	ldr	r3, [r7, #12]
 80039b8:	f003 023f 	and.w	r2, r3, #63	; 0x3f
 80039bc:	687b      	ldr	r3, [r7, #4]
 80039be:	6a1b      	ldr	r3, [r3, #32]
 80039c0:	429a      	cmp	r2, r3
 80039c2:	d115      	bne.n	80039f0 <HAL_RCC_OscConfig+0x4c4>
 80039c4:	68fa      	ldr	r2, [r7, #12]
 80039c6:	f647 73c0 	movw	r3, #32704	; 0x7fc0
 80039ca:	4013      	ands	r3, r2
 80039cc:	687a      	ldr	r2, [r7, #4]
 80039ce:	6a52      	ldr	r2, [r2, #36]	; 0x24
 80039d0:	4293      	cmp	r3, r2
 80039d2:	d10d      	bne.n	80039f0 <HAL_RCC_OscConfig+0x4c4>
 80039d4:	68fb      	ldr	r3, [r7, #12]
 80039d6:	f403 3240 	and.w	r2, r3, #196608	; 0x30000
 80039da:	687b      	ldr	r3, [r7, #4]
 80039dc:	6a9b      	ldr	r3, [r3, #40]	; 0x28
 80039de:	429a      	cmp	r2, r3
 80039e0:	d106      	bne.n	80039f0 <HAL_RCC_OscConfig+0x4c4>
 80039e2:	68fb      	ldr	r3, [r7, #12]
 80039e4:	f003 6270 	and.w	r2, r3, #251658240	; 0xf000000
 80039e8:	687b      	ldr	r3, [r7, #4]
 80039ea:	6adb      	ldr	r3, [r3, #44]	; 0x2c
 80039ec:	429a      	cmp	r2, r3
 80039ee:	d001      	beq.n	80039f4 <HAL_RCC_OscConfig+0x4c8>
 80039f0:	2301      	movs	r3, #1
 80039f2:	e000      	b.n	80039f6 <HAL_RCC_OscConfig+0x4ca>
 80039f4:	2300      	movs	r3, #0
 80039f6:	4618      	mov	r0, r3
 80039f8:	3718      	adds	r7, #24
 80039fa:	46bd      	mov	sp, r7
 80039fc:	bd80      	pop	{r7, pc}
 80039fe:	bf00      	nop
 8003a00:	40007000 	.word	0x40007000
 8003a04:	40023800 	.word	0x40023800
 8003a08:	42470060 	.word	0x42470060

08003a0c <HAL_RCC_ClockConfig>:
 8003a0c:	b580      	push	{r7, lr}
 8003a0e:	b084      	sub	sp, #16
 8003a10:	af00      	add	r7, sp, #0
 8003a12:	6078      	str	r0, [r7, #4]
 8003a14:	6039      	str	r1, [r7, #0]
 8003a16:	687b      	ldr	r3, [r7, #4]
 8003a18:	2b00      	cmp	r3, #0
 8003a1a:	d101      	bne.n	8003a20 <HAL_RCC_ClockConfig+0x14>
 8003a1c:	2301      	movs	r3, #1
 8003a1e:	e0cc      	b.n	8003bba <HAL_RCC_ClockConfig+0x1ae>
 8003a20:	4b68      	ldr	r3, [pc, #416]	; (8003bc4 <HAL_RCC_ClockConfig+0x1b8>)
 8003a22:	681b      	ldr	r3, [r3, #0]
 8003a24:	f003 030f 	and.w	r3, r3, #15
 8003a28:	683a      	ldr	r2, [r7, #0]
 8003a2a:	429a      	cmp	r2, r3
 8003a2c:	d90c      	bls.n	8003a48 <HAL_RCC_ClockConfig+0x3c>
 8003a2e:	4b65      	ldr	r3, [pc, #404]	; (8003bc4 <HAL_RCC_ClockConfig+0x1b8>)
 8003a30:	683a      	ldr	r2, [r7, #0]
 8003a32:	b2d2      	uxtb	r2, r2
 8003a34:	701a      	strb	r2, [r3, #0]
 8003a36:	4b63      	ldr	r3, [pc, #396]	; (8003bc4 <HAL_RCC_ClockConfig+0x1b8>)
 8003a38:	681b      	ldr	r3, [r3, #0]
 8003a3a:	f003 030f 	and.w	r3, r3, #15
 8003a3e:	683a      	ldr	r2, [r7, #0]
 8003a40:	429a      	cmp	r2, r3
 8003a42:	d001      	beq.n	8003a48 <HAL_RCC_ClockConfig+0x3c>
 8003a44:	2301      	movs	r3, #1
 8003a46:	e0b8      	b.n	8003bba <HAL_RCC_ClockConfig+0x1ae>
 8003a48:	687b      	ldr	r3, [r7, #4]
 8003a4a:	681b      	ldr	r3, [r3, #0]
 8003a4c:	f003 0302 	and.w	r3, r3, #2
 8003a50:	2b00      	cmp	r3, #0
 8003a52:	d020      	beq.n	8003a96 <HAL_RCC_ClockConfig+0x8a>
 8003a54:	687b      	ldr	r3, [r7, #4]
 8003a56:	681b      	ldr	r3, [r3, #0]
 8003a58:	f003 0304 	and.w	r3, r3, #4
 8003a5c:	2b00      	cmp	r3, #0
 8003a5e:	d005      	beq.n	8003a6c <HAL_RCC_ClockConfig+0x60>
 8003a60:	4b59      	ldr	r3, [pc, #356]	; (8003bc8 <HAL_RCC_ClockConfig+0x1bc>)
 8003a62:	689b      	ldr	r3, [r3, #8]
 8003a64:	4a58      	ldr	r2, [pc, #352]	; (8003bc8 <HAL_RCC_ClockConfig+0x1bc>)
 8003a66:	f443 53e0 	orr.w	r3, r3, #7168	; 0x1c00
 8003a6a:	6093      	str	r3, [r2, #8]
 8003a6c:	687b      	ldr	r3, [r7, #4]
 8003a6e:	681b      	ldr	r3, [r3, #0]
 8003a70:	f003 0308 	and.w	r3, r3, #8
 8003a74:	2b00      	cmp	r3, #0
 8003a76:	d005      	beq.n	8003a84 <HAL_RCC_ClockConfig+0x78>
 8003a78:	4b53      	ldr	r3, [pc, #332]	; (8003bc8 <HAL_RCC_ClockConfig+0x1bc>)
 8003a7a:	689b      	ldr	r3, [r3, #8]
 8003a7c:	4a52      	ldr	r2, [pc, #328]	; (8003bc8 <HAL_RCC_ClockConfig+0x1bc>)
 8003a7e:	f443 4360 	orr.w	r3, r3, #57344	; 0xe000
 8003a82:	6093      	str	r3, [r2, #8]
 8003a84:	4b50      	ldr	r3, [pc, #320]	; (8003bc8 <HAL_RCC_ClockConfig+0x1bc>)
 8003a86:	689b      	ldr	r3, [r3, #8]
 8003a88:	f023 02f0 	bic.w	r2, r3, #240	; 0xf0
 8003a8c:	687b      	ldr	r3, [r7, #4]
 8003a8e:	689b      	ldr	r3, [r3, #8]
 8003a90:	494d      	ldr	r1, [pc, #308]	; (8003bc8 <HAL_RCC_ClockConfig+0x1bc>)
 8003a92:	4313      	orrs	r3, r2
 8003a94:	608b      	str	r3, [r1, #8]
 8003a96:	687b      	ldr	r3, [r7, #4]
 8003a98:	681b      	ldr	r3, [r3, #0]
 8003a9a:	f003 0301 	and.w	r3, r3, #1
 8003a9e:	2b00      	cmp	r3, #0
 8003aa0:	d044      	beq.n	8003b2c <HAL_RCC_ClockConfig+0x120>
 8003aa2:	687b      	ldr	r3, [r7, #4]
 8003aa4:	685b      	ldr	r3, [r3, #4]
 8003aa6:	2b01      	cmp	r3, #1
 8003aa8:	d107      	bne.n	8003aba <HAL_RCC_ClockConfig+0xae>
 8003aaa:	4b47      	ldr	r3, [pc, #284]	; (8003bc8 <HAL_RCC_ClockConfig+0x1bc>)
 8003aac:	681b      	ldr	r3, [r3, #0]
 8003aae:	f403 3300 	and.w	r3, r3, #131072	; 0x20000
 8003ab2:	2b00      	cmp	r3, #0
 8003ab4:	d119      	bne.n	8003aea <HAL_RCC_ClockConfig+0xde>
 8003ab6:	2301      	movs	r3, #1
 8003ab8:	e07f      	b.n	8003bba <HAL_RCC_ClockConfig+0x1ae>
 8003aba:	687b      	ldr	r3, [r7, #4]
 8003abc:	685b      	ldr	r3, [r3, #4]
 8003abe:	2b02      	cmp	r3, #2
 8003ac0:	d003      	beq.n	8003aca <HAL_RCC_ClockConfig+0xbe>
 8003ac2:	687b      	ldr	r3, [r7, #4]
 8003ac4:	685b      	ldr	r3, [r3, #4]
 8003ac6:	2b03      	cmp	r3, #3
 8003ac8:	d107      	bne.n	8003ada <HAL_RCC_ClockConfig+0xce>
 8003aca:	4b3f      	ldr	r3, [pc, #252]	; (8003bc8 <HAL_RCC_ClockConfig+0x1bc>)
 8003acc:	681b      	ldr	r3, [r3, #0]
 8003ace:	f003 7300 	and.w	r3, r3, #33554432	; 0x2000000
 8003ad2:	2b00      	cmp	r3, #0
 8003ad4:	d109      	bne.n	8003aea <HAL_RCC_ClockConfig+0xde>
 8003ad6:	2301      	movs	r3, #1
 8003ad8:	e06f      	b.n	8003bba <HAL_RCC_ClockConfig+0x1ae>
 8003ada:	4b3b      	ldr	r3, [pc, #236]	; (8003bc8 <HAL_RCC_ClockConfig+0x1bc>)
 8003adc:	681b      	ldr	r3, [r3, #0]
 8003ade:	f003 0302 	and.w	r3, r3, #2
 8003ae2:	2b00      	cmp	r3, #0
 8003ae4:	d101      	bne.n	8003aea <HAL_RCC_ClockConfig+0xde>
 8003ae6:	2301      	movs	r3, #1
 8003ae8:	e067      	b.n	8003bba <HAL_RCC_ClockConfig+0x1ae>
 8003aea:	4b37      	ldr	r3, [pc, #220]	; (8003bc8 <HAL_RCC_ClockConfig+0x1bc>)
 8003aec:	689b      	ldr	r3, [r3, #8]
 8003aee:	f023 0203 	bic.w	r2, r3, #3
 8003af2:	687b      	ldr	r3, [r7, #4]
 8003af4:	685b      	ldr	r3, [r3, #4]
 8003af6:	4934      	ldr	r1, [pc, #208]	; (8003bc8 <HAL_RCC_ClockConfig+0x1bc>)
 8003af8:	4313      	orrs	r3, r2
 8003afa:	608b      	str	r3, [r1, #8]
 8003afc:	f7fe feaa 	bl	8002854 <HAL_GetTick>
 8003b00:	60f8      	str	r0, [r7, #12]
 8003b02:	e00a      	b.n	8003b1a <HAL_RCC_ClockConfig+0x10e>
 8003b04:	f7fe fea6 	bl	8002854 <HAL_GetTick>
 8003b08:	4602      	mov	r2, r0
 8003b0a:	68fb      	ldr	r3, [r7, #12]
 8003b0c:	1ad3      	subs	r3, r2, r3
 8003b0e:	f241 3288 	movw	r2, #5000	; 0x1388
 8003b12:	4293      	cmp	r3, r2
 8003b14:	d901      	bls.n	8003b1a <HAL_RCC_ClockConfig+0x10e>
 8003b16:	2303      	movs	r3, #3
 8003b18:	e04f      	b.n	8003bba <HAL_RCC_ClockConfig+0x1ae>
 8003b1a:	4b2b      	ldr	r3, [pc, #172]	; (8003bc8 <HAL_RCC_ClockConfig+0x1bc>)
 8003b1c:	689b      	ldr	r3, [r3, #8]
 8003b1e:	f003 020c 	and.w	r2, r3, #12
 8003b22:	687b      	ldr	r3, [r7, #4]
 8003b24:	685b      	ldr	r3, [r3, #4]
 8003b26:	009b      	lsls	r3, r3, #2
 8003b28:	429a      	cmp	r2, r3
 8003b2a:	d1eb      	bne.n	8003b04 <HAL_RCC_ClockConfig+0xf8>
 8003b2c:	4b25      	ldr	r3, [pc, #148]	; (8003bc4 <HAL_RCC_ClockConfig+0x1b8>)
 8003b2e:	681b      	ldr	r3, [r3, #0]
 8003b30:	f003 030f 	and.w	r3, r3, #15
 8003b34:	683a      	ldr	r2, [r7, #0]
 8003b36:	429a      	cmp	r2, r3
 8003b38:	d20c      	bcs.n	8003b54 <HAL_RCC_ClockConfig+0x148>
 8003b3a:	4b22      	ldr	r3, [pc, #136]	; (8003bc4 <HAL_RCC_ClockConfig+0x1b8>)
 8003b3c:	683a      	ldr	r2, [r7, #0]
 8003b3e:	b2d2      	uxtb	r2, r2
 8003b40:	701a      	strb	r2, [r3, #0]
 8003b42:	4b20      	ldr	r3, [pc, #128]	; (8003bc4 <HAL_RCC_ClockConfig+0x1b8>)
 8003b44:	681b      	ldr	r3, [r3, #0]
 8003b46:	f003 030f 	and.w	r3, r3, #15
 8003b4a:	683a      	ldr	r2, [r7, #0]
 8003b4c:	429a      	cmp	r2, r3
 8003b4e:	d001      	beq.n	8003b54 <HAL_RCC_ClockConfig+0x148>
 8003b50:	2301      	movs	r3, #1
 8003b52:	e032      	b.n	8003bba <HAL_RCC_ClockConfig+0x1ae>
 8003b54:	687b      	ldr	r3, [r7, #4]
 8003b56:	681b      	ldr	r3, [r3, #0]
 8003b58:	f003 0304 	and.w	r3, r3, #4
 8003b5c:	2b00      	cmp	r3, #0
 8003b5e:	d008      	beq.n	8003b72 <HAL_RCC_ClockConfig+0x166>
 8003b60:	4b19      	ldr	r3, [pc, #100]	; (8003bc8 <HAL_RCC_ClockConfig+0x1bc>)
 8003b62:	689b      	ldr	r3, [r3, #8]
 8003b64:	f423 52e0 	bic.w	r2, r3, #7168	; 0x1c00
 8003b68:	687b      	ldr	r3, [r7, #4]
 8003b6a:	68db      	ldr	r3, [r3, #12]
 8003b6c:	4916      	ldr	r1, [pc, #88]	; (8003bc8 <HAL_RCC_ClockConfig+0x1bc>)
 8003b6e:	4313      	orrs	r3, r2
 8003b70:	608b      	str	r3, [r1, #8]
 8003b72:	687b      	ldr	r3, [r7, #4]
 8003b74:	681b      	ldr	r3, [r3, #0]
 8003b76:	f003 0308 	and.w	r3, r3, #8
 8003b7a:	2b00      	cmp	r3, #0
 8003b7c:	d009      	beq.n	8003b92 <HAL_RCC_ClockConfig+0x186>
 8003b7e:	4b12      	ldr	r3, [pc, #72]	; (8003bc8 <HAL_RCC_ClockConfig+0x1bc>)
 8003b80:	689b      	ldr	r3, [r3, #8]
 8003b82:	f423 4260 	bic.w	r2, r3, #57344	; 0xe000
 8003b86:	687b      	ldr	r3, [r7, #4]
 8003b88:	691b      	ldr	r3, [r3, #16]
 8003b8a:	00db      	lsls	r3, r3, #3
 8003b8c:	490e      	ldr	r1, [pc, #56]	; (8003bc8 <HAL_RCC_ClockConfig+0x1bc>)
 8003b8e:	4313      	orrs	r3, r2
 8003b90:	608b      	str	r3, [r1, #8]
 8003b92:	f000 f821 	bl	8003bd8 <HAL_RCC_GetSysClockFreq>
 8003b96:	4601      	mov	r1, r0
 8003b98:	4b0b      	ldr	r3, [pc, #44]	; (8003bc8 <HAL_RCC_ClockConfig+0x1bc>)
 8003b9a:	689b      	ldr	r3, [r3, #8]
 8003b9c:	091b      	lsrs	r3, r3, #4
 8003b9e:	f003 030f 	and.w	r3, r3, #15
 8003ba2:	4a0a      	ldr	r2, [pc, #40]	; (8003bcc <HAL_RCC_ClockConfig+0x1c0>)
 8003ba4:	5cd3      	ldrb	r3, [r2, r3]
 8003ba6:	fa21 f303 	lsr.w	r3, r1, r3
 8003baa:	4a09      	ldr	r2, [pc, #36]	; (8003bd0 <HAL_RCC_ClockConfig+0x1c4>)
 8003bac:	6013      	str	r3, [r2, #0]
 8003bae:	4b09      	ldr	r3, [pc, #36]	; (8003bd4 <HAL_RCC_ClockConfig+0x1c8>)
 8003bb0:	681b      	ldr	r3, [r3, #0]
 8003bb2:	4618      	mov	r0, r3
 8003bb4:	f7fe fe0a 	bl	80027cc <HAL_InitTick>
 8003bb8:	2300      	movs	r3, #0
 8003bba:	4618      	mov	r0, r3
 8003bbc:	3710      	adds	r7, #16
 8003bbe:	46bd      	mov	sp, r7
 8003bc0:	bd80      	pop	{r7, pc}
 8003bc2:	bf00      	nop
 8003bc4:	40023c00 	.word	0x40023c00
 8003bc8:	40023800 	.word	0x40023800
 8003bcc:	080078c8 	.word	0x080078c8
 8003bd0:	20000000 	.word	0x20000000
 8003bd4:	20000004 	.word	0x20000004

08003bd8 <HAL_RCC_GetSysClockFreq>:
 8003bd8:	b5f0      	push	{r4, r5, r6, r7, lr}
 8003bda:	b085      	sub	sp, #20
 8003bdc:	af00      	add	r7, sp, #0
 8003bde:	2300      	movs	r3, #0
 8003be0:	607b      	str	r3, [r7, #4]
 8003be2:	2300      	movs	r3, #0
 8003be4:	60fb      	str	r3, [r7, #12]
 8003be6:	2300      	movs	r3, #0
 8003be8:	603b      	str	r3, [r7, #0]
 8003bea:	2300      	movs	r3, #0
 8003bec:	60bb      	str	r3, [r7, #8]
 8003bee:	4b50      	ldr	r3, [pc, #320]	; (8003d30 <HAL_RCC_GetSysClockFreq+0x158>)
 8003bf0:	689b      	ldr	r3, [r3, #8]
 8003bf2:	f003 030c 	and.w	r3, r3, #12
 8003bf6:	2b04      	cmp	r3, #4
 8003bf8:	d007      	beq.n	8003c0a <HAL_RCC_GetSysClockFreq+0x32>
 8003bfa:	2b08      	cmp	r3, #8
 8003bfc:	d008      	beq.n	8003c10 <HAL_RCC_GetSysClockFreq+0x38>
 8003bfe:	2b00      	cmp	r3, #0
 8003c00:	f040 808d 	bne.w	8003d1e <HAL_RCC_GetSysClockFreq+0x146>
 8003c04:	4b4b      	ldr	r3, [pc, #300]	; (8003d34 <HAL_RCC_GetSysClockFreq+0x15c>)
 8003c06:	60bb      	str	r3, [r7, #8]
 8003c08:	e08c      	b.n	8003d24 <HAL_RCC_GetSysClockFreq+0x14c>
 8003c0a:	4b4b      	ldr	r3, [pc, #300]	; (8003d38 <HAL_RCC_GetSysClockFreq+0x160>)
 8003c0c:	60bb      	str	r3, [r7, #8]
 8003c0e:	e089      	b.n	8003d24 <HAL_RCC_GetSysClockFreq+0x14c>
 8003c10:	4b47      	ldr	r3, [pc, #284]	; (8003d30 <HAL_RCC_GetSysClockFreq+0x158>)
 8003c12:	685b      	ldr	r3, [r3, #4]
 8003c14:	f003 033f 	and.w	r3, r3, #63	; 0x3f
 8003c18:	607b      	str	r3, [r7, #4]
 8003c1a:	4b45      	ldr	r3, [pc, #276]	; (8003d30 <HAL_RCC_GetSysClockFreq+0x158>)
 8003c1c:	685b      	ldr	r3, [r3, #4]
 8003c1e:	f403 0380 	and.w	r3, r3, #4194304	; 0x400000
 8003c22:	2b00      	cmp	r3, #0
 8003c24:	d023      	beq.n	8003c6e <HAL_RCC_GetSysClockFreq+0x96>
 8003c26:	4b42      	ldr	r3, [pc, #264]	; (8003d30 <HAL_RCC_GetSysClockFreq+0x158>)
 8003c28:	685b      	ldr	r3, [r3, #4]
 8003c2a:	099b      	lsrs	r3, r3, #6
 8003c2c:	f04f 0400 	mov.w	r4, #0
 8003c30:	f240 11ff 	movw	r1, #511	; 0x1ff
 8003c34:	f04f 0200 	mov.w	r2, #0
 8003c38:	ea03 0501 	and.w	r5, r3, r1
 8003c3c:	ea04 0602 	and.w	r6, r4, r2
 8003c40:	4a3d      	ldr	r2, [pc, #244]	; (8003d38 <HAL_RCC_GetSysClockFreq+0x160>)
 8003c42:	fb02 f106 	mul.w	r1, r2, r6
 8003c46:	2200      	movs	r2, #0
 8003c48:	fb02 f205 	mul.w	r2, r2, r5
 8003c4c:	440a      	add	r2, r1
 8003c4e:	493a      	ldr	r1, [pc, #232]	; (8003d38 <HAL_RCC_GetSysClockFreq+0x160>)
 8003c50:	fba5 0101 	umull	r0, r1, r5, r1
 8003c54:	1853      	adds	r3, r2, r1
 8003c56:	4619      	mov	r1, r3
 8003c58:	687b      	ldr	r3, [r7, #4]
 8003c5a:	f04f 0400 	mov.w	r4, #0
 8003c5e:	461a      	mov	r2, r3
 8003c60:	4623      	mov	r3, r4
 8003c62:	f7fc ff45 	bl	8000af0 <__aeabi_uldivmod>
 8003c66:	4603      	mov	r3, r0
 8003c68:	460c      	mov	r4, r1
 8003c6a:	60fb      	str	r3, [r7, #12]
 8003c6c:	e049      	b.n	8003d02 <HAL_RCC_GetSysClockFreq+0x12a>
 8003c6e:	4b30      	ldr	r3, [pc, #192]	; (8003d30 <HAL_RCC_GetSysClockFreq+0x158>)
 8003c70:	685b      	ldr	r3, [r3, #4]
 8003c72:	099b      	lsrs	r3, r3, #6
 8003c74:	f04f 0400 	mov.w	r4, #0
 8003c78:	f240 11ff 	movw	r1, #511	; 0x1ff
 8003c7c:	f04f 0200 	mov.w	r2, #0
 8003c80:	ea03 0501 	and.w	r5, r3, r1
 8003c84:	ea04 0602 	and.w	r6, r4, r2
 8003c88:	4629      	mov	r1, r5
 8003c8a:	4632      	mov	r2, r6
 8003c8c:	f04f 0300 	mov.w	r3, #0
 8003c90:	f04f 0400 	mov.w	r4, #0
 8003c94:	0154      	lsls	r4, r2, #5
 8003c96:	ea44 64d1 	orr.w	r4, r4, r1, lsr #27
 8003c9a:	014b      	lsls	r3, r1, #5
 8003c9c:	4619      	mov	r1, r3
 8003c9e:	4622      	mov	r2, r4
 8003ca0:	1b49      	subs	r1, r1, r5
 8003ca2:	eb62 0206 	sbc.w	r2, r2, r6
 8003ca6:	f04f 0300 	mov.w	r3, #0
 8003caa:	f04f 0400 	mov.w	r4, #0
 8003cae:	0194      	lsls	r4, r2, #6
 8003cb0:	ea44 6491 	orr.w	r4, r4, r1, lsr #26
 8003cb4:	018b      	lsls	r3, r1, #6
 8003cb6:	1a5b      	subs	r3, r3, r1
 8003cb8:	eb64 0402 	sbc.w	r4, r4, r2
 8003cbc:	f04f 0100 	mov.w	r1, #0
 8003cc0:	f04f 0200 	mov.w	r2, #0
 8003cc4:	00e2      	lsls	r2, r4, #3
 8003cc6:	ea42 7253 	orr.w	r2, r2, r3, lsr #29
 8003cca:	00d9      	lsls	r1, r3, #3
 8003ccc:	460b      	mov	r3, r1
 8003cce:	4614      	mov	r4, r2
 8003cd0:	195b      	adds	r3, r3, r5
 8003cd2:	eb44 0406 	adc.w	r4, r4, r6
 8003cd6:	f04f 0100 	mov.w	r1, #0
 8003cda:	f04f 0200 	mov.w	r2, #0
 8003cde:	02a2      	lsls	r2, r4, #10
 8003ce0:	ea42 5293 	orr.w	r2, r2, r3, lsr #22
 8003ce4:	0299      	lsls	r1, r3, #10
 8003ce6:	460b      	mov	r3, r1
 8003ce8:	4614      	mov	r4, r2
 8003cea:	4618      	mov	r0, r3
 8003cec:	4621      	mov	r1, r4
 8003cee:	687b      	ldr	r3, [r7, #4]
 8003cf0:	f04f 0400 	mov.w	r4, #0
 8003cf4:	461a      	mov	r2, r3
 8003cf6:	4623      	mov	r3, r4
 8003cf8:	f7fc fefa 	bl	8000af0 <__aeabi_uldivmod>
 8003cfc:	4603      	mov	r3, r0
 8003cfe:	460c      	mov	r4, r1
 8003d00:	60fb      	str	r3, [r7, #12]
 8003d02:	4b0b      	ldr	r3, [pc, #44]	; (8003d30 <HAL_RCC_GetSysClockFreq+0x158>)
 8003d04:	685b      	ldr	r3, [r3, #4]
 8003d06:	0c1b      	lsrs	r3, r3, #16
 8003d08:	f003 0303 	and.w	r3, r3, #3
 8003d0c:	3301      	adds	r3, #1
 8003d0e:	005b      	lsls	r3, r3, #1
 8003d10:	603b      	str	r3, [r7, #0]
 8003d12:	68fa      	ldr	r2, [r7, #12]
 8003d14:	683b      	ldr	r3, [r7, #0]
 8003d16:	fbb2 f3f3 	udiv	r3, r2, r3
 8003d1a:	60bb      	str	r3, [r7, #8]
 8003d1c:	e002      	b.n	8003d24 <HAL_RCC_GetSysClockFreq+0x14c>
 8003d1e:	4b05      	ldr	r3, [pc, #20]	; (8003d34 <HAL_RCC_GetSysClockFreq+0x15c>)
 8003d20:	60bb      	str	r3, [r7, #8]
 8003d22:	bf00      	nop
 8003d24:	68bb      	ldr	r3, [r7, #8]
 8003d26:	4618      	mov	r0, r3
 8003d28:	3714      	adds	r7, #20
 8003d2a:	46bd      	mov	sp, r7
 8003d2c:	bdf0      	pop	{r4, r5, r6, r7, pc}
 8003d2e:	bf00      	nop
 8003d30:	40023800 	.word	0x40023800
 8003d34:	00f42400 	.word	0x00f42400
 8003d38:	017d7840 	.word	0x017d7840

08003d3c <HAL_RCC_GetHCLKFreq>:
 8003d3c:	b480      	push	{r7}
 8003d3e:	af00      	add	r7, sp, #0
 8003d40:	4b03      	ldr	r3, [pc, #12]	; (8003d50 <HAL_RCC_GetHCLKFreq+0x14>)
 8003d42:	681b      	ldr	r3, [r3, #0]
 8003d44:	4618      	mov	r0, r3
 8003d46:	46bd      	mov	sp, r7
 8003d48:	f85d 7b04 	ldr.w	r7, [sp], #4
 8003d4c:	4770      	bx	lr
 8003d4e:	bf00      	nop
 8003d50:	20000000 	.word	0x20000000

08003d54 <HAL_RCC_GetPCLK1Freq>:
 8003d54:	b580      	push	{r7, lr}
 8003d56:	af00      	add	r7, sp, #0
 8003d58:	f7ff fff0 	bl	8003d3c <HAL_RCC_GetHCLKFreq>
 8003d5c:	4601      	mov	r1, r0
 8003d5e:	4b05      	ldr	r3, [pc, #20]	; (8003d74 <HAL_RCC_GetPCLK1Freq+0x20>)
 8003d60:	689b      	ldr	r3, [r3, #8]
 8003d62:	0a9b      	lsrs	r3, r3, #10
 8003d64:	f003 0307 	and.w	r3, r3, #7
 8003d68:	4a03      	ldr	r2, [pc, #12]	; (8003d78 <HAL_RCC_GetPCLK1Freq+0x24>)
 8003d6a:	5cd3      	ldrb	r3, [r2, r3]
 8003d6c:	fa21 f303 	lsr.w	r3, r1, r3
 8003d70:	4618      	mov	r0, r3
 8003d72:	bd80      	pop	{r7, pc}
 8003d74:	40023800 	.word	0x40023800
 8003d78:	080078d8 	.word	0x080078d8

08003d7c <HAL_RCC_GetPCLK2Freq>:
 8003d7c:	b580      	push	{r7, lr}
 8003d7e:	af00      	add	r7, sp, #0
 8003d80:	f7ff ffdc 	bl	8003d3c <HAL_RCC_GetHCLKFreq>
 8003d84:	4601      	mov	r1, r0
 8003d86:	4b05      	ldr	r3, [pc, #20]	; (8003d9c <HAL_RCC_GetPCLK2Freq+0x20>)
 8003d88:	689b      	ldr	r3, [r3, #8]
 8003d8a:	0b5b      	lsrs	r3, r3, #13
 8003d8c:	f003 0307 	and.w	r3, r3, #7
 8003d90:	4a03      	ldr	r2, [pc, #12]	; (8003da0 <HAL_RCC_GetPCLK2Freq+0x24>)
 8003d92:	5cd3      	ldrb	r3, [r2, r3]
 8003d94:	fa21 f303 	lsr.w	r3, r1, r3
 8003d98:	4618      	mov	r0, r3
 8003d9a:	bd80      	pop	{r7, pc}
 8003d9c:	40023800 	.word	0x40023800
 8003da0:	080078d8 	.word	0x080078d8

08003da4 <HAL_SPI_Init>:
 8003da4:	b580      	push	{r7, lr}
 8003da6:	b082      	sub	sp, #8
 8003da8:	af00      	add	r7, sp, #0
 8003daa:	6078      	str	r0, [r7, #4]
 8003dac:	687b      	ldr	r3, [r7, #4]
 8003dae:	2b00      	cmp	r3, #0
 8003db0:	d101      	bne.n	8003db6 <HAL_SPI_Init+0x12>
 8003db2:	2301      	movs	r3, #1
 8003db4:	e056      	b.n	8003e64 <HAL_SPI_Init+0xc0>
 8003db6:	687b      	ldr	r3, [r7, #4]
 8003db8:	2200      	movs	r2, #0
 8003dba:	629a      	str	r2, [r3, #40]	; 0x28
 8003dbc:	687b      	ldr	r3, [r7, #4]
 8003dbe:	f893 3051 	ldrb.w	r3, [r3, #81]	; 0x51
 8003dc2:	b2db      	uxtb	r3, r3
 8003dc4:	2b00      	cmp	r3, #0
 8003dc6:	d106      	bne.n	8003dd6 <HAL_SPI_Init+0x32>
 8003dc8:	687b      	ldr	r3, [r7, #4]
 8003dca:	2200      	movs	r2, #0
 8003dcc:	f883 2050 	strb.w	r2, [r3, #80]	; 0x50
 8003dd0:	6878      	ldr	r0, [r7, #4]
 8003dd2:	f7fe f8a3 	bl	8001f1c <HAL_SPI_MspInit>
 8003dd6:	687b      	ldr	r3, [r7, #4]
 8003dd8:	2202      	movs	r2, #2
 8003dda:	f883 2051 	strb.w	r2, [r3, #81]	; 0x51
 8003dde:	687b      	ldr	r3, [r7, #4]
 8003de0:	681b      	ldr	r3, [r3, #0]
 8003de2:	681a      	ldr	r2, [r3, #0]
 8003de4:	687b      	ldr	r3, [r7, #4]
 8003de6:	681b      	ldr	r3, [r3, #0]
 8003de8:	f022 0240 	bic.w	r2, r2, #64	; 0x40
 8003dec:	601a      	str	r2, [r3, #0]
 8003dee:	687b      	ldr	r3, [r7, #4]
 8003df0:	685a      	ldr	r2, [r3, #4]
 8003df2:	687b      	ldr	r3, [r7, #4]
 8003df4:	689b      	ldr	r3, [r3, #8]
 8003df6:	431a      	orrs	r2, r3
 8003df8:	687b      	ldr	r3, [r7, #4]
 8003dfa:	68db      	ldr	r3, [r3, #12]
 8003dfc:	431a      	orrs	r2, r3
 8003dfe:	687b      	ldr	r3, [r7, #4]
 8003e00:	691b      	ldr	r3, [r3, #16]
 8003e02:	431a      	orrs	r2, r3
 8003e04:	687b      	ldr	r3, [r7, #4]
 8003e06:	695b      	ldr	r3, [r3, #20]
 8003e08:	431a      	orrs	r2, r3
 8003e0a:	687b      	ldr	r3, [r7, #4]
 8003e0c:	699b      	ldr	r3, [r3, #24]
 8003e0e:	f403 7300 	and.w	r3, r3, #512	; 0x200
 8003e12:	431a      	orrs	r2, r3
 8003e14:	687b      	ldr	r3, [r7, #4]
 8003e16:	69db      	ldr	r3, [r3, #28]
 8003e18:	431a      	orrs	r2, r3
 8003e1a:	687b      	ldr	r3, [r7, #4]
 8003e1c:	6a1b      	ldr	r3, [r3, #32]
 8003e1e:	ea42 0103 	orr.w	r1, r2, r3
 8003e22:	687b      	ldr	r3, [r7, #4]
 8003e24:	6a9a      	ldr	r2, [r3, #40]	; 0x28
 8003e26:	687b      	ldr	r3, [r7, #4]
 8003e28:	681b      	ldr	r3, [r3, #0]
 8003e2a:	430a      	orrs	r2, r1
 8003e2c:	601a      	str	r2, [r3, #0]
 8003e2e:	687b      	ldr	r3, [r7, #4]
 8003e30:	699b      	ldr	r3, [r3, #24]
 8003e32:	0c1b      	lsrs	r3, r3, #16
 8003e34:	f003 0104 	and.w	r1, r3, #4
 8003e38:	687b      	ldr	r3, [r7, #4]
 8003e3a:	6a5a      	ldr	r2, [r3, #36]	; 0x24
 8003e3c:	687b      	ldr	r3, [r7, #4]
 8003e3e:	681b      	ldr	r3, [r3, #0]
 8003e40:	430a      	orrs	r2, r1
 8003e42:	605a      	str	r2, [r3, #4]
 8003e44:	687b      	ldr	r3, [r7, #4]
 8003e46:	681b      	ldr	r3, [r3, #0]
 8003e48:	69da      	ldr	r2, [r3, #28]
 8003e4a:	687b      	ldr	r3, [r7, #4]
 8003e4c:	681b      	ldr	r3, [r3, #0]
 8003e4e:	f422 6200 	bic.w	r2, r2, #2048	; 0x800
 8003e52:	61da      	str	r2, [r3, #28]
 8003e54:	687b      	ldr	r3, [r7, #4]
 8003e56:	2200      	movs	r2, #0
 8003e58:	655a      	str	r2, [r3, #84]	; 0x54
 8003e5a:	687b      	ldr	r3, [r7, #4]
 8003e5c:	2201      	movs	r2, #1
 8003e5e:	f883 2051 	strb.w	r2, [r3, #81]	; 0x51
 8003e62:	2300      	movs	r3, #0
 8003e64:	4618      	mov	r0, r3
 8003e66:	3708      	adds	r7, #8
 8003e68:	46bd      	mov	sp, r7
 8003e6a:	bd80      	pop	{r7, pc}

08003e6c <HAL_SPI_Transmit>:
 8003e6c:	b580      	push	{r7, lr}
 8003e6e:	b088      	sub	sp, #32
 8003e70:	af00      	add	r7, sp, #0
 8003e72:	60f8      	str	r0, [r7, #12]
 8003e74:	60b9      	str	r1, [r7, #8]
 8003e76:	603b      	str	r3, [r7, #0]
 8003e78:	4613      	mov	r3, r2
 8003e7a:	80fb      	strh	r3, [r7, #6]
 8003e7c:	2300      	movs	r3, #0
 8003e7e:	77fb      	strb	r3, [r7, #31]
 8003e80:	68fb      	ldr	r3, [r7, #12]
 8003e82:	f893 3050 	ldrb.w	r3, [r3, #80]	; 0x50
 8003e86:	2b01      	cmp	r3, #1
 8003e88:	d101      	bne.n	8003e8e <HAL_SPI_Transmit+0x22>
 8003e8a:	2302      	movs	r3, #2
 8003e8c:	e11e      	b.n	80040cc <HAL_SPI_Transmit+0x260>
 8003e8e:	68fb      	ldr	r3, [r7, #12]
 8003e90:	2201      	movs	r2, #1
 8003e92:	f883 2050 	strb.w	r2, [r3, #80]	; 0x50
 8003e96:	f7fe fcdd 	bl	8002854 <HAL_GetTick>
 8003e9a:	61b8      	str	r0, [r7, #24]
 8003e9c:	88fb      	ldrh	r3, [r7, #6]
 8003e9e:	82fb      	strh	r3, [r7, #22]
 8003ea0:	68fb      	ldr	r3, [r7, #12]
 8003ea2:	f893 3051 	ldrb.w	r3, [r3, #81]	; 0x51
 8003ea6:	b2db      	uxtb	r3, r3
 8003ea8:	2b01      	cmp	r3, #1
 8003eaa:	d002      	beq.n	8003eb2 <HAL_SPI_Transmit+0x46>
 8003eac:	2302      	movs	r3, #2
 8003eae:	77fb      	strb	r3, [r7, #31]
 8003eb0:	e103      	b.n	80040ba <HAL_SPI_Transmit+0x24e>
 8003eb2:	68bb      	ldr	r3, [r7, #8]
 8003eb4:	2b00      	cmp	r3, #0
 8003eb6:	d002      	beq.n	8003ebe <HAL_SPI_Transmit+0x52>
 8003eb8:	88fb      	ldrh	r3, [r7, #6]
 8003eba:	2b00      	cmp	r3, #0
 8003ebc:	d102      	bne.n	8003ec4 <HAL_SPI_Transmit+0x58>
 8003ebe:	2301      	movs	r3, #1
 8003ec0:	77fb      	strb	r3, [r7, #31]
 8003ec2:	e0fa      	b.n	80040ba <HAL_SPI_Transmit+0x24e>
 8003ec4:	68fb      	ldr	r3, [r7, #12]
 8003ec6:	2203      	movs	r2, #3
 8003ec8:	f883 2051 	strb.w	r2, [r3, #81]	; 0x51
 8003ecc:	68fb      	ldr	r3, [r7, #12]
 8003ece:	2200      	movs	r2, #0
 8003ed0:	655a      	str	r2, [r3, #84]	; 0x54
 8003ed2:	68fb      	ldr	r3, [r7, #12]
 8003ed4:	68ba      	ldr	r2, [r7, #8]
 8003ed6:	631a      	str	r2, [r3, #48]	; 0x30
 8003ed8:	68fb      	ldr	r3, [r7, #12]
 8003eda:	88fa      	ldrh	r2, [r7, #6]
 8003edc:	869a      	strh	r2, [r3, #52]	; 0x34
 8003ede:	68fb      	ldr	r3, [r7, #12]
 8003ee0:	88fa      	ldrh	r2, [r7, #6]
 8003ee2:	86da      	strh	r2, [r3, #54]	; 0x36
 8003ee4:	68fb      	ldr	r3, [r7, #12]
 8003ee6:	2200      	movs	r2, #0
 8003ee8:	639a      	str	r2, [r3, #56]	; 0x38
 8003eea:	68fb      	ldr	r3, [r7, #12]
 8003eec:	2200      	movs	r2, #0
 8003eee:	879a      	strh	r2, [r3, #60]	; 0x3c
 8003ef0:	68fb      	ldr	r3, [r7, #12]
 8003ef2:	2200      	movs	r2, #0
 8003ef4:	87da      	strh	r2, [r3, #62]	; 0x3e
 8003ef6:	68fb      	ldr	r3, [r7, #12]
 8003ef8:	2200      	movs	r2, #0
 8003efa:	645a      	str	r2, [r3, #68]	; 0x44
 8003efc:	68fb      	ldr	r3, [r7, #12]
 8003efe:	2200      	movs	r2, #0
 8003f00:	641a      	str	r2, [r3, #64]	; 0x40
 8003f02:	68fb      	ldr	r3, [r7, #12]
 8003f04:	689b      	ldr	r3, [r3, #8]
 8003f06:	f5b3 4f00 	cmp.w	r3, #32768	; 0x8000
 8003f0a:	d107      	bne.n	8003f1c <HAL_SPI_Transmit+0xb0>
 8003f0c:	68fb      	ldr	r3, [r7, #12]
 8003f0e:	681b      	ldr	r3, [r3, #0]
 8003f10:	681a      	ldr	r2, [r3, #0]
 8003f12:	68fb      	ldr	r3, [r7, #12]
 8003f14:	681b      	ldr	r3, [r3, #0]
 8003f16:	f442 4280 	orr.w	r2, r2, #16384	; 0x4000
 8003f1a:	601a      	str	r2, [r3, #0]
 8003f1c:	68fb      	ldr	r3, [r7, #12]
 8003f1e:	681b      	ldr	r3, [r3, #0]
 8003f20:	681b      	ldr	r3, [r3, #0]
 8003f22:	f003 0340 	and.w	r3, r3, #64	; 0x40
 8003f26:	2b40      	cmp	r3, #64	; 0x40
 8003f28:	d007      	beq.n	8003f3a <HAL_SPI_Transmit+0xce>
 8003f2a:	68fb      	ldr	r3, [r7, #12]
 8003f2c:	681b      	ldr	r3, [r3, #0]
 8003f2e:	681a      	ldr	r2, [r3, #0]
 8003f30:	68fb      	ldr	r3, [r7, #12]
 8003f32:	681b      	ldr	r3, [r3, #0]
 8003f34:	f042 0240 	orr.w	r2, r2, #64	; 0x40
 8003f38:	601a      	str	r2, [r3, #0]
 8003f3a:	68fb      	ldr	r3, [r7, #12]
 8003f3c:	68db      	ldr	r3, [r3, #12]
 8003f3e:	f5b3 6f00 	cmp.w	r3, #2048	; 0x800
 8003f42:	d14b      	bne.n	8003fdc <HAL_SPI_Transmit+0x170>
 8003f44:	68fb      	ldr	r3, [r7, #12]
 8003f46:	685b      	ldr	r3, [r3, #4]
 8003f48:	2b00      	cmp	r3, #0
 8003f4a:	d002      	beq.n	8003f52 <HAL_SPI_Transmit+0xe6>
 8003f4c:	8afb      	ldrh	r3, [r7, #22]
 8003f4e:	2b01      	cmp	r3, #1
 8003f50:	d13e      	bne.n	8003fd0 <HAL_SPI_Transmit+0x164>
 8003f52:	68fb      	ldr	r3, [r7, #12]
 8003f54:	6b1b      	ldr	r3, [r3, #48]	; 0x30
 8003f56:	881a      	ldrh	r2, [r3, #0]
 8003f58:	68fb      	ldr	r3, [r7, #12]
 8003f5a:	681b      	ldr	r3, [r3, #0]
 8003f5c:	60da      	str	r2, [r3, #12]
 8003f5e:	68fb      	ldr	r3, [r7, #12]
 8003f60:	6b1b      	ldr	r3, [r3, #48]	; 0x30
 8003f62:	1c9a      	adds	r2, r3, #2
 8003f64:	68fb      	ldr	r3, [r7, #12]
 8003f66:	631a      	str	r2, [r3, #48]	; 0x30
 8003f68:	68fb      	ldr	r3, [r7, #12]
 8003f6a:	8edb      	ldrh	r3, [r3, #54]	; 0x36
 8003f6c:	b29b      	uxth	r3, r3
 8003f6e:	3b01      	subs	r3, #1
 8003f70:	b29a      	uxth	r2, r3
 8003f72:	68fb      	ldr	r3, [r7, #12]
 8003f74:	86da      	strh	r2, [r3, #54]	; 0x36
 8003f76:	e02b      	b.n	8003fd0 <HAL_SPI_Transmit+0x164>
 8003f78:	68fb      	ldr	r3, [r7, #12]
 8003f7a:	681b      	ldr	r3, [r3, #0]
 8003f7c:	689b      	ldr	r3, [r3, #8]
 8003f7e:	f003 0302 	and.w	r3, r3, #2
 8003f82:	2b02      	cmp	r3, #2
 8003f84:	d112      	bne.n	8003fac <HAL_SPI_Transmit+0x140>
 8003f86:	68fb      	ldr	r3, [r7, #12]
 8003f88:	6b1b      	ldr	r3, [r3, #48]	; 0x30
 8003f8a:	881a      	ldrh	r2, [r3, #0]
 8003f8c:	68fb      	ldr	r3, [r7, #12]
 8003f8e:	681b      	ldr	r3, [r3, #0]
 8003f90:	60da      	str	r2, [r3, #12]
 8003f92:	68fb      	ldr	r3, [r7, #12]
 8003f94:	6b1b      	ldr	r3, [r3, #48]	; 0x30
 8003f96:	1c9a      	adds	r2, r3, #2
 8003f98:	68fb      	ldr	r3, [r7, #12]
 8003f9a:	631a      	str	r2, [r3, #48]	; 0x30
 8003f9c:	68fb      	ldr	r3, [r7, #12]
 8003f9e:	8edb      	ldrh	r3, [r3, #54]	; 0x36
 8003fa0:	b29b      	uxth	r3, r3
 8003fa2:	3b01      	subs	r3, #1
 8003fa4:	b29a      	uxth	r2, r3
 8003fa6:	68fb      	ldr	r3, [r7, #12]
 8003fa8:	86da      	strh	r2, [r3, #54]	; 0x36
 8003faa:	e011      	b.n	8003fd0 <HAL_SPI_Transmit+0x164>
 8003fac:	f7fe fc52 	bl	8002854 <HAL_GetTick>
 8003fb0:	4602      	mov	r2, r0
 8003fb2:	69bb      	ldr	r3, [r7, #24]
 8003fb4:	1ad3      	subs	r3, r2, r3
 8003fb6:	683a      	ldr	r2, [r7, #0]
 8003fb8:	429a      	cmp	r2, r3
 8003fba:	d803      	bhi.n	8003fc4 <HAL_SPI_Transmit+0x158>
 8003fbc:	683b      	ldr	r3, [r7, #0]
 8003fbe:	f1b3 3fff 	cmp.w	r3, #4294967295
 8003fc2:	d102      	bne.n	8003fca <HAL_SPI_Transmit+0x15e>
 8003fc4:	683b      	ldr	r3, [r7, #0]
 8003fc6:	2b00      	cmp	r3, #0
 8003fc8:	d102      	bne.n	8003fd0 <HAL_SPI_Transmit+0x164>
 8003fca:	2303      	movs	r3, #3
 8003fcc:	77fb      	strb	r3, [r7, #31]
 8003fce:	e074      	b.n	80040ba <HAL_SPI_Transmit+0x24e>
 8003fd0:	68fb      	ldr	r3, [r7, #12]
 8003fd2:	8edb      	ldrh	r3, [r3, #54]	; 0x36
 8003fd4:	b29b      	uxth	r3, r3
 8003fd6:	2b00      	cmp	r3, #0
 8003fd8:	d1ce      	bne.n	8003f78 <HAL_SPI_Transmit+0x10c>
 8003fda:	e04c      	b.n	8004076 <HAL_SPI_Transmit+0x20a>
 8003fdc:	68fb      	ldr	r3, [r7, #12]
 8003fde:	685b      	ldr	r3, [r3, #4]
 8003fe0:	2b00      	cmp	r3, #0
 8003fe2:	d002      	beq.n	8003fea <HAL_SPI_Transmit+0x17e>
 8003fe4:	8afb      	ldrh	r3, [r7, #22]
 8003fe6:	2b01      	cmp	r3, #1
 8003fe8:	d140      	bne.n	800406c <HAL_SPI_Transmit+0x200>
 8003fea:	68fb      	ldr	r3, [r7, #12]
 8003fec:	6b1a      	ldr	r2, [r3, #48]	; 0x30
 8003fee:	68fb      	ldr	r3, [r7, #12]
 8003ff0:	681b      	ldr	r3, [r3, #0]
 8003ff2:	330c      	adds	r3, #12
 8003ff4:	7812      	ldrb	r2, [r2, #0]
 8003ff6:	701a      	strb	r2, [r3, #0]
 8003ff8:	68fb      	ldr	r3, [r7, #12]
 8003ffa:	6b1b      	ldr	r3, [r3, #48]	; 0x30
 8003ffc:	1c5a      	adds	r2, r3, #1
 8003ffe:	68fb      	ldr	r3, [r7, #12]
 8004000:	631a      	str	r2, [r3, #48]	; 0x30
 8004002:	68fb      	ldr	r3, [r7, #12]
 8004004:	8edb      	ldrh	r3, [r3, #54]	; 0x36
 8004006:	b29b      	uxth	r3, r3
 8004008:	3b01      	subs	r3, #1
 800400a:	b29a      	uxth	r2, r3
 800400c:	68fb      	ldr	r3, [r7, #12]
 800400e:	86da      	strh	r2, [r3, #54]	; 0x36
 8004010:	e02c      	b.n	800406c <HAL_SPI_Transmit+0x200>
 8004012:	68fb      	ldr	r3, [r7, #12]
 8004014:	681b      	ldr	r3, [r3, #0]
 8004016:	689b      	ldr	r3, [r3, #8]
 8004018:	f003 0302 	and.w	r3, r3, #2
 800401c:	2b02      	cmp	r3, #2
 800401e:	d113      	bne.n	8004048 <HAL_SPI_Transmit+0x1dc>
 8004020:	68fb      	ldr	r3, [r7, #12]
 8004022:	6b1a      	ldr	r2, [r3, #48]	; 0x30
 8004024:	68fb      	ldr	r3, [r7, #12]
 8004026:	681b      	ldr	r3, [r3, #0]
 8004028:	330c      	adds	r3, #12
 800402a:	7812      	ldrb	r2, [r2, #0]
 800402c:	701a      	strb	r2, [r3, #0]
 800402e:	68fb      	ldr	r3, [r7, #12]
 8004030:	6b1b      	ldr	r3, [r3, #48]	; 0x30
 8004032:	1c5a      	adds	r2, r3, #1
 8004034:	68fb      	ldr	r3, [r7, #12]
 8004036:	631a      	str	r2, [r3, #48]	; 0x30
 8004038:	68fb      	ldr	r3, [r7, #12]
 800403a:	8edb      	ldrh	r3, [r3, #54]	; 0x36
 800403c:	b29b      	uxth	r3, r3
 800403e:	3b01      	subs	r3, #1
 8004040:	b29a      	uxth	r2, r3
 8004042:	68fb      	ldr	r3, [r7, #12]
 8004044:	86da      	strh	r2, [r3, #54]	; 0x36
 8004046:	e011      	b.n	800406c <HAL_SPI_Transmit+0x200>
 8004048:	f7fe fc04 	bl	8002854 <HAL_GetTick>
 800404c:	4602      	mov	r2, r0
 800404e:	69bb      	ldr	r3, [r7, #24]
 8004050:	1ad3      	subs	r3, r2, r3
 8004052:	683a      	ldr	r2, [r7, #0]
 8004054:	429a      	cmp	r2, r3
 8004056:	d803      	bhi.n	8004060 <HAL_SPI_Transmit+0x1f4>
 8004058:	683b      	ldr	r3, [r7, #0]
 800405a:	f1b3 3fff 	cmp.w	r3, #4294967295
 800405e:	d102      	bne.n	8004066 <HAL_SPI_Transmit+0x1fa>
 8004060:	683b      	ldr	r3, [r7, #0]
 8004062:	2b00      	cmp	r3, #0
 8004064:	d102      	bne.n	800406c <HAL_SPI_Transmit+0x200>
 8004066:	2303      	movs	r3, #3
 8004068:	77fb      	strb	r3, [r7, #31]
 800406a:	e026      	b.n	80040ba <HAL_SPI_Transmit+0x24e>
 800406c:	68fb      	ldr	r3, [r7, #12]
 800406e:	8edb      	ldrh	r3, [r3, #54]	; 0x36
 8004070:	b29b      	uxth	r3, r3
 8004072:	2b00      	cmp	r3, #0
 8004074:	d1cd      	bne.n	8004012 <HAL_SPI_Transmit+0x1a6>
 8004076:	69ba      	ldr	r2, [r7, #24]
 8004078:	6839      	ldr	r1, [r7, #0]
 800407a:	68f8      	ldr	r0, [r7, #12]
 800407c:	f000 fba4 	bl	80047c8 <SPI_EndRxTxTransaction>
 8004080:	4603      	mov	r3, r0
 8004082:	2b00      	cmp	r3, #0
 8004084:	d002      	beq.n	800408c <HAL_SPI_Transmit+0x220>
 8004086:	68fb      	ldr	r3, [r7, #12]
 8004088:	2220      	movs	r2, #32
 800408a:	655a      	str	r2, [r3, #84]	; 0x54
 800408c:	68fb      	ldr	r3, [r7, #12]
 800408e:	689b      	ldr	r3, [r3, #8]
 8004090:	2b00      	cmp	r3, #0
 8004092:	d10a      	bne.n	80040aa <HAL_SPI_Transmit+0x23e>
 8004094:	2300      	movs	r3, #0
 8004096:	613b      	str	r3, [r7, #16]
 8004098:	68fb      	ldr	r3, [r7, #12]
 800409a:	681b      	ldr	r3, [r3, #0]
 800409c:	68db      	ldr	r3, [r3, #12]
 800409e:	613b      	str	r3, [r7, #16]
 80040a0:	68fb      	ldr	r3, [r7, #12]
 80040a2:	681b      	ldr	r3, [r3, #0]
 80040a4:	689b      	ldr	r3, [r3, #8]
 80040a6:	613b      	str	r3, [r7, #16]
 80040a8:	693b      	ldr	r3, [r7, #16]
 80040aa:	68fb      	ldr	r3, [r7, #12]
 80040ac:	6d5b      	ldr	r3, [r3, #84]	; 0x54
 80040ae:	2b00      	cmp	r3, #0
 80040b0:	d002      	beq.n	80040b8 <HAL_SPI_Transmit+0x24c>
 80040b2:	2301      	movs	r3, #1
 80040b4:	77fb      	strb	r3, [r7, #31]
 80040b6:	e000      	b.n	80040ba <HAL_SPI_Transmit+0x24e>
 80040b8:	bf00      	nop
 80040ba:	68fb      	ldr	r3, [r7, #12]
 80040bc:	2201      	movs	r2, #1
 80040be:	f883 2051 	strb.w	r2, [r3, #81]	; 0x51
 80040c2:	68fb      	ldr	r3, [r7, #12]
 80040c4:	2200      	movs	r2, #0
 80040c6:	f883 2050 	strb.w	r2, [r3, #80]	; 0x50
 80040ca:	7ffb      	ldrb	r3, [r7, #31]
 80040cc:	4618      	mov	r0, r3
 80040ce:	3720      	adds	r7, #32
 80040d0:	46bd      	mov	sp, r7
 80040d2:	bd80      	pop	{r7, pc}

080040d4 <HAL_SPI_Receive>:
 80040d4:	b580      	push	{r7, lr}
 80040d6:	b088      	sub	sp, #32
 80040d8:	af02      	add	r7, sp, #8
 80040da:	60f8      	str	r0, [r7, #12]
 80040dc:	60b9      	str	r1, [r7, #8]
 80040de:	603b      	str	r3, [r7, #0]
 80040e0:	4613      	mov	r3, r2
 80040e2:	80fb      	strh	r3, [r7, #6]
 80040e4:	2300      	movs	r3, #0
 80040e6:	75fb      	strb	r3, [r7, #23]
 80040e8:	68fb      	ldr	r3, [r7, #12]
 80040ea:	685b      	ldr	r3, [r3, #4]
 80040ec:	f5b3 7f82 	cmp.w	r3, #260	; 0x104
 80040f0:	d112      	bne.n	8004118 <HAL_SPI_Receive+0x44>
 80040f2:	68fb      	ldr	r3, [r7, #12]
 80040f4:	689b      	ldr	r3, [r3, #8]
 80040f6:	2b00      	cmp	r3, #0
 80040f8:	d10e      	bne.n	8004118 <HAL_SPI_Receive+0x44>
 80040fa:	68fb      	ldr	r3, [r7, #12]
 80040fc:	2204      	movs	r2, #4
 80040fe:	f883 2051 	strb.w	r2, [r3, #81]	; 0x51
 8004102:	88fa      	ldrh	r2, [r7, #6]
 8004104:	683b      	ldr	r3, [r7, #0]
 8004106:	9300      	str	r3, [sp, #0]
 8004108:	4613      	mov	r3, r2
 800410a:	68ba      	ldr	r2, [r7, #8]
 800410c:	68b9      	ldr	r1, [r7, #8]
 800410e:	68f8      	ldr	r0, [r7, #12]
 8004110:	f000 f8e9 	bl	80042e6 <HAL_SPI_TransmitReceive>
 8004114:	4603      	mov	r3, r0
 8004116:	e0e2      	b.n	80042de <HAL_SPI_Receive+0x20a>
 8004118:	68fb      	ldr	r3, [r7, #12]
 800411a:	f893 3050 	ldrb.w	r3, [r3, #80]	; 0x50
 800411e:	2b01      	cmp	r3, #1
 8004120:	d101      	bne.n	8004126 <HAL_SPI_Receive+0x52>
 8004122:	2302      	movs	r3, #2
 8004124:	e0db      	b.n	80042de <HAL_SPI_Receive+0x20a>
 8004126:	68fb      	ldr	r3, [r7, #12]
 8004128:	2201      	movs	r2, #1
 800412a:	f883 2050 	strb.w	r2, [r3, #80]	; 0x50
 800412e:	f7fe fb91 	bl	8002854 <HAL_GetTick>
 8004132:	6138      	str	r0, [r7, #16]
 8004134:	68fb      	ldr	r3, [r7, #12]
 8004136:	f893 3051 	ldrb.w	r3, [r3, #81]	; 0x51
 800413a:	b2db      	uxtb	r3, r3
 800413c:	2b01      	cmp	r3, #1
 800413e:	d002      	beq.n	8004146 <HAL_SPI_Receive+0x72>
 8004140:	2302      	movs	r3, #2
 8004142:	75fb      	strb	r3, [r7, #23]
 8004144:	e0c2      	b.n	80042cc <HAL_SPI_Receive+0x1f8>
 8004146:	68bb      	ldr	r3, [r7, #8]
 8004148:	2b00      	cmp	r3, #0
 800414a:	d002      	beq.n	8004152 <HAL_SPI_Receive+0x7e>
 800414c:	88fb      	ldrh	r3, [r7, #6]
 800414e:	2b00      	cmp	r3, #0
 8004150:	d102      	bne.n	8004158 <HAL_SPI_Receive+0x84>
 8004152:	2301      	movs	r3, #1
 8004154:	75fb      	strb	r3, [r7, #23]
 8004156:	e0b9      	b.n	80042cc <HAL_SPI_Receive+0x1f8>
 8004158:	68fb      	ldr	r3, [r7, #12]
 800415a:	2204      	movs	r2, #4
 800415c:	f883 2051 	strb.w	r2, [r3, #81]	; 0x51
 8004160:	68fb      	ldr	r3, [r7, #12]
 8004162:	2200      	movs	r2, #0
 8004164:	655a      	str	r2, [r3, #84]	; 0x54
 8004166:	68fb      	ldr	r3, [r7, #12]
 8004168:	68ba      	ldr	r2, [r7, #8]
 800416a:	639a      	str	r2, [r3, #56]	; 0x38
 800416c:	68fb      	ldr	r3, [r7, #12]
 800416e:	88fa      	ldrh	r2, [r7, #6]
 8004170:	879a      	strh	r2, [r3, #60]	; 0x3c
 8004172:	68fb      	ldr	r3, [r7, #12]
 8004174:	88fa      	ldrh	r2, [r7, #6]
 8004176:	87da      	strh	r2, [r3, #62]	; 0x3e
 8004178:	68fb      	ldr	r3, [r7, #12]
 800417a:	2200      	movs	r2, #0
 800417c:	631a      	str	r2, [r3, #48]	; 0x30
 800417e:	68fb      	ldr	r3, [r7, #12]
 8004180:	2200      	movs	r2, #0
 8004182:	869a      	strh	r2, [r3, #52]	; 0x34
 8004184:	68fb      	ldr	r3, [r7, #12]
 8004186:	2200      	movs	r2, #0
 8004188:	86da      	strh	r2, [r3, #54]	; 0x36
 800418a:	68fb      	ldr	r3, [r7, #12]
 800418c:	2200      	movs	r2, #0
 800418e:	641a      	str	r2, [r3, #64]	; 0x40
 8004190:	68fb      	ldr	r3, [r7, #12]
 8004192:	2200      	movs	r2, #0
 8004194:	645a      	str	r2, [r3, #68]	; 0x44
 8004196:	68fb      	ldr	r3, [r7, #12]
 8004198:	689b      	ldr	r3, [r3, #8]
 800419a:	f5b3 4f00 	cmp.w	r3, #32768	; 0x8000
 800419e:	d107      	bne.n	80041b0 <HAL_SPI_Receive+0xdc>
 80041a0:	68fb      	ldr	r3, [r7, #12]
 80041a2:	681b      	ldr	r3, [r3, #0]
 80041a4:	681a      	ldr	r2, [r3, #0]
 80041a6:	68fb      	ldr	r3, [r7, #12]
 80041a8:	681b      	ldr	r3, [r3, #0]
 80041aa:	f422 4280 	bic.w	r2, r2, #16384	; 0x4000
 80041ae:	601a      	str	r2, [r3, #0]
 80041b0:	68fb      	ldr	r3, [r7, #12]
 80041b2:	681b      	ldr	r3, [r3, #0]
 80041b4:	681b      	ldr	r3, [r3, #0]
 80041b6:	f003 0340 	and.w	r3, r3, #64	; 0x40
 80041ba:	2b40      	cmp	r3, #64	; 0x40
 80041bc:	d007      	beq.n	80041ce <HAL_SPI_Receive+0xfa>
 80041be:	68fb      	ldr	r3, [r7, #12]
 80041c0:	681b      	ldr	r3, [r3, #0]
 80041c2:	681a      	ldr	r2, [r3, #0]
 80041c4:	68fb      	ldr	r3, [r7, #12]
 80041c6:	681b      	ldr	r3, [r3, #0]
 80041c8:	f042 0240 	orr.w	r2, r2, #64	; 0x40
 80041cc:	601a      	str	r2, [r3, #0]
 80041ce:	68fb      	ldr	r3, [r7, #12]
 80041d0:	68db      	ldr	r3, [r3, #12]
 80041d2:	2b00      	cmp	r3, #0
 80041d4:	d162      	bne.n	800429c <HAL_SPI_Receive+0x1c8>
 80041d6:	e02e      	b.n	8004236 <HAL_SPI_Receive+0x162>
 80041d8:	68fb      	ldr	r3, [r7, #12]
 80041da:	681b      	ldr	r3, [r3, #0]
 80041dc:	689b      	ldr	r3, [r3, #8]
 80041de:	f003 0301 	and.w	r3, r3, #1
 80041e2:	2b01      	cmp	r3, #1
 80041e4:	d115      	bne.n	8004212 <HAL_SPI_Receive+0x13e>
 80041e6:	68fb      	ldr	r3, [r7, #12]
 80041e8:	681b      	ldr	r3, [r3, #0]
 80041ea:	f103 020c 	add.w	r2, r3, #12
 80041ee:	68fb      	ldr	r3, [r7, #12]
 80041f0:	6b9b      	ldr	r3, [r3, #56]	; 0x38
 80041f2:	7812      	ldrb	r2, [r2, #0]
 80041f4:	b2d2      	uxtb	r2, r2
 80041f6:	701a      	strb	r2, [r3, #0]
 80041f8:	68fb      	ldr	r3, [r7, #12]
 80041fa:	6b9b      	ldr	r3, [r3, #56]	; 0x38
 80041fc:	1c5a      	adds	r2, r3, #1
 80041fe:	68fb      	ldr	r3, [r7, #12]
 8004200:	639a      	str	r2, [r3, #56]	; 0x38
 8004202:	68fb      	ldr	r3, [r7, #12]
 8004204:	8fdb      	ldrh	r3, [r3, #62]	; 0x3e
 8004206:	b29b      	uxth	r3, r3
 8004208:	3b01      	subs	r3, #1
 800420a:	b29a      	uxth	r2, r3
 800420c:	68fb      	ldr	r3, [r7, #12]
 800420e:	87da      	strh	r2, [r3, #62]	; 0x3e
 8004210:	e011      	b.n	8004236 <HAL_SPI_Receive+0x162>
 8004212:	f7fe fb1f 	bl	8002854 <HAL_GetTick>
 8004216:	4602      	mov	r2, r0
 8004218:	693b      	ldr	r3, [r7, #16]
 800421a:	1ad3      	subs	r3, r2, r3
 800421c:	683a      	ldr	r2, [r7, #0]
 800421e:	429a      	cmp	r2, r3
 8004220:	d803      	bhi.n	800422a <HAL_SPI_Receive+0x156>
 8004222:	683b      	ldr	r3, [r7, #0]
 8004224:	f1b3 3fff 	cmp.w	r3, #4294967295
 8004228:	d102      	bne.n	8004230 <HAL_SPI_Receive+0x15c>
 800422a:	683b      	ldr	r3, [r7, #0]
 800422c:	2b00      	cmp	r3, #0
 800422e:	d102      	bne.n	8004236 <HAL_SPI_Receive+0x162>
 8004230:	2303      	movs	r3, #3
 8004232:	75fb      	strb	r3, [r7, #23]
 8004234:	e04a      	b.n	80042cc <HAL_SPI_Receive+0x1f8>
 8004236:	68fb      	ldr	r3, [r7, #12]
 8004238:	8fdb      	ldrh	r3, [r3, #62]	; 0x3e
 800423a:	b29b      	uxth	r3, r3
 800423c:	2b00      	cmp	r3, #0
 800423e:	d1cb      	bne.n	80041d8 <HAL_SPI_Receive+0x104>
 8004240:	e031      	b.n	80042a6 <HAL_SPI_Receive+0x1d2>
 8004242:	68fb      	ldr	r3, [r7, #12]
 8004244:	681b      	ldr	r3, [r3, #0]
 8004246:	689b      	ldr	r3, [r3, #8]
 8004248:	f003 0301 	and.w	r3, r3, #1
 800424c:	2b01      	cmp	r3, #1
 800424e:	d113      	bne.n	8004278 <HAL_SPI_Receive+0x1a4>
 8004250:	68fb      	ldr	r3, [r7, #12]
 8004252:	681b      	ldr	r3, [r3, #0]
 8004254:	68da      	ldr	r2, [r3, #12]
 8004256:	68fb      	ldr	r3, [r7, #12]
 8004258:	6b9b      	ldr	r3, [r3, #56]	; 0x38
 800425a:	b292      	uxth	r2, r2
 800425c:	801a      	strh	r2, [r3, #0]
 800425e:	68fb      	ldr	r3, [r7, #12]
 8004260:	6b9b      	ldr	r3, [r3, #56]	; 0x38
 8004262:	1c9a      	adds	r2, r3, #2
 8004264:	68fb      	ldr	r3, [r7, #12]
 8004266:	639a      	str	r2, [r3, #56]	; 0x38
 8004268:	68fb      	ldr	r3, [r7, #12]
 800426a:	8fdb      	ldrh	r3, [r3, #62]	; 0x3e
 800426c:	b29b      	uxth	r3, r3
 800426e:	3b01      	subs	r3, #1
 8004270:	b29a      	uxth	r2, r3
 8004272:	68fb      	ldr	r3, [r7, #12]
 8004274:	87da      	strh	r2, [r3, #62]	; 0x3e
 8004276:	e011      	b.n	800429c <HAL_SPI_Receive+0x1c8>
 8004278:	f7fe faec 	bl	8002854 <HAL_GetTick>
 800427c:	4602      	mov	r2, r0
 800427e:	693b      	ldr	r3, [r7, #16]
 8004280:	1ad3      	subs	r3, r2, r3
 8004282:	683a      	ldr	r2, [r7, #0]
 8004284:	429a      	cmp	r2, r3
 8004286:	d803      	bhi.n	8004290 <HAL_SPI_Receive+0x1bc>
 8004288:	683b      	ldr	r3, [r7, #0]
 800428a:	f1b3 3fff 	cmp.w	r3, #4294967295
 800428e:	d102      	bne.n	8004296 <HAL_SPI_Receive+0x1c2>
 8004290:	683b      	ldr	r3, [r7, #0]
 8004292:	2b00      	cmp	r3, #0
 8004294:	d102      	bne.n	800429c <HAL_SPI_Receive+0x1c8>
 8004296:	2303      	movs	r3, #3
 8004298:	75fb      	strb	r3, [r7, #23]
 800429a:	e017      	b.n	80042cc <HAL_SPI_Receive+0x1f8>
 800429c:	68fb      	ldr	r3, [r7, #12]
 800429e:	8fdb      	ldrh	r3, [r3, #62]	; 0x3e
 80042a0:	b29b      	uxth	r3, r3
 80042a2:	2b00      	cmp	r3, #0
 80042a4:	d1cd      	bne.n	8004242 <HAL_SPI_Receive+0x16e>
 80042a6:	693a      	ldr	r2, [r7, #16]
 80042a8:	6839      	ldr	r1, [r7, #0]
 80042aa:	68f8      	ldr	r0, [r7, #12]
 80042ac:	f000 fa27 	bl	80046fe <SPI_EndRxTransaction>
 80042b0:	4603      	mov	r3, r0
 80042b2:	2b00      	cmp	r3, #0
 80042b4:	d002      	beq.n	80042bc <HAL_SPI_Receive+0x1e8>
 80042b6:	68fb      	ldr	r3, [r7, #12]
 80042b8:	2220      	movs	r2, #32
 80042ba:	655a      	str	r2, [r3, #84]	; 0x54
 80042bc:	68fb      	ldr	r3, [r7, #12]
 80042be:	6d5b      	ldr	r3, [r3, #84]	; 0x54
 80042c0:	2b00      	cmp	r3, #0
 80042c2:	d002      	beq.n	80042ca <HAL_SPI_Receive+0x1f6>
 80042c4:	2301      	movs	r3, #1
 80042c6:	75fb      	strb	r3, [r7, #23]
 80042c8:	e000      	b.n	80042cc <HAL_SPI_Receive+0x1f8>
 80042ca:	bf00      	nop
 80042cc:	68fb      	ldr	r3, [r7, #12]
 80042ce:	2201      	movs	r2, #1
 80042d0:	f883 2051 	strb.w	r2, [r3, #81]	; 0x51
 80042d4:	68fb      	ldr	r3, [r7, #12]
 80042d6:	2200      	movs	r2, #0
 80042d8:	f883 2050 	strb.w	r2, [r3, #80]	; 0x50
 80042dc:	7dfb      	ldrb	r3, [r7, #23]
 80042de:	4618      	mov	r0, r3
 80042e0:	3718      	adds	r7, #24
 80042e2:	46bd      	mov	sp, r7
 80042e4:	bd80      	pop	{r7, pc}

080042e6 <HAL_SPI_TransmitReceive>:
 80042e6:	b580      	push	{r7, lr}
 80042e8:	b08c      	sub	sp, #48	; 0x30
 80042ea:	af00      	add	r7, sp, #0
 80042ec:	60f8      	str	r0, [r7, #12]
 80042ee:	60b9      	str	r1, [r7, #8]
 80042f0:	607a      	str	r2, [r7, #4]
 80042f2:	807b      	strh	r3, [r7, #2]
 80042f4:	2301      	movs	r3, #1
 80042f6:	62fb      	str	r3, [r7, #44]	; 0x2c
 80042f8:	2300      	movs	r3, #0
 80042fa:	f887 302b 	strb.w	r3, [r7, #43]	; 0x2b
 80042fe:	68fb      	ldr	r3, [r7, #12]
 8004300:	f893 3050 	ldrb.w	r3, [r3, #80]	; 0x50
 8004304:	2b01      	cmp	r3, #1
 8004306:	d101      	bne.n	800430c <HAL_SPI_TransmitReceive+0x26>
 8004308:	2302      	movs	r3, #2
 800430a:	e18a      	b.n	8004622 <HAL_SPI_TransmitReceive+0x33c>
 800430c:	68fb      	ldr	r3, [r7, #12]
 800430e:	2201      	movs	r2, #1
 8004310:	f883 2050 	strb.w	r2, [r3, #80]	; 0x50
 8004314:	f7fe fa9e 	bl	8002854 <HAL_GetTick>
 8004318:	6278      	str	r0, [r7, #36]	; 0x24
 800431a:	68fb      	ldr	r3, [r7, #12]
 800431c:	f893 3051 	ldrb.w	r3, [r3, #81]	; 0x51
 8004320:	f887 3023 	strb.w	r3, [r7, #35]	; 0x23
 8004324:	68fb      	ldr	r3, [r7, #12]
 8004326:	685b      	ldr	r3, [r3, #4]
 8004328:	61fb      	str	r3, [r7, #28]
 800432a:	887b      	ldrh	r3, [r7, #2]
 800432c:	837b      	strh	r3, [r7, #26]
 800432e:	f897 3023 	ldrb.w	r3, [r7, #35]	; 0x23
 8004332:	2b01      	cmp	r3, #1
 8004334:	d00f      	beq.n	8004356 <HAL_SPI_TransmitReceive+0x70>
 8004336:	69fb      	ldr	r3, [r7, #28]
 8004338:	f5b3 7f82 	cmp.w	r3, #260	; 0x104
 800433c:	d107      	bne.n	800434e <HAL_SPI_TransmitReceive+0x68>
 800433e:	68fb      	ldr	r3, [r7, #12]
 8004340:	689b      	ldr	r3, [r3, #8]
 8004342:	2b00      	cmp	r3, #0
 8004344:	d103      	bne.n	800434e <HAL_SPI_TransmitReceive+0x68>
 8004346:	f897 3023 	ldrb.w	r3, [r7, #35]	; 0x23
 800434a:	2b04      	cmp	r3, #4
 800434c:	d003      	beq.n	8004356 <HAL_SPI_TransmitReceive+0x70>
 800434e:	2302      	movs	r3, #2
 8004350:	f887 302b 	strb.w	r3, [r7, #43]	; 0x2b
 8004354:	e15b      	b.n	800460e <HAL_SPI_TransmitReceive+0x328>
 8004356:	68bb      	ldr	r3, [r7, #8]
 8004358:	2b00      	cmp	r3, #0
 800435a:	d005      	beq.n	8004368 <HAL_SPI_TransmitReceive+0x82>
 800435c:	687b      	ldr	r3, [r7, #4]
 800435e:	2b00      	cmp	r3, #0
 8004360:	d002      	beq.n	8004368 <HAL_SPI_TransmitReceive+0x82>
 8004362:	887b      	ldrh	r3, [r7, #2]
 8004364:	2b00      	cmp	r3, #0
 8004366:	d103      	bne.n	8004370 <HAL_SPI_TransmitReceive+0x8a>
 8004368:	2301      	movs	r3, #1
 800436a:	f887 302b 	strb.w	r3, [r7, #43]	; 0x2b
 800436e:	e14e      	b.n	800460e <HAL_SPI_TransmitReceive+0x328>
 8004370:	68fb      	ldr	r3, [r7, #12]
 8004372:	f893 3051 	ldrb.w	r3, [r3, #81]	; 0x51
 8004376:	b2db      	uxtb	r3, r3
 8004378:	2b04      	cmp	r3, #4
 800437a:	d003      	beq.n	8004384 <HAL_SPI_TransmitReceive+0x9e>
 800437c:	68fb      	ldr	r3, [r7, #12]
 800437e:	2205      	movs	r2, #5
 8004380:	f883 2051 	strb.w	r2, [r3, #81]	; 0x51
 8004384:	68fb      	ldr	r3, [r7, #12]
 8004386:	2200      	movs	r2, #0
 8004388:	655a      	str	r2, [r3, #84]	; 0x54
 800438a:	68fb      	ldr	r3, [r7, #12]
 800438c:	687a      	ldr	r2, [r7, #4]
 800438e:	639a      	str	r2, [r3, #56]	; 0x38
 8004390:	68fb      	ldr	r3, [r7, #12]
 8004392:	887a      	ldrh	r2, [r7, #2]
 8004394:	87da      	strh	r2, [r3, #62]	; 0x3e
 8004396:	68fb      	ldr	r3, [r7, #12]
 8004398:	887a      	ldrh	r2, [r7, #2]
 800439a:	879a      	strh	r2, [r3, #60]	; 0x3c
 800439c:	68fb      	ldr	r3, [r7, #12]
 800439e:	68ba      	ldr	r2, [r7, #8]
 80043a0:	631a      	str	r2, [r3, #48]	; 0x30
 80043a2:	68fb      	ldr	r3, [r7, #12]
 80043a4:	887a      	ldrh	r2, [r7, #2]
 80043a6:	86da      	strh	r2, [r3, #54]	; 0x36
 80043a8:	68fb      	ldr	r3, [r7, #12]
 80043aa:	887a      	ldrh	r2, [r7, #2]
 80043ac:	869a      	strh	r2, [r3, #52]	; 0x34
 80043ae:	68fb      	ldr	r3, [r7, #12]
 80043b0:	2200      	movs	r2, #0
 80043b2:	641a      	str	r2, [r3, #64]	; 0x40
 80043b4:	68fb      	ldr	r3, [r7, #12]
 80043b6:	2200      	movs	r2, #0
 80043b8:	645a      	str	r2, [r3, #68]	; 0x44
 80043ba:	68fb      	ldr	r3, [r7, #12]
 80043bc:	681b      	ldr	r3, [r3, #0]
 80043be:	681b      	ldr	r3, [r3, #0]
 80043c0:	f003 0340 	and.w	r3, r3, #64	; 0x40
 80043c4:	2b40      	cmp	r3, #64	; 0x40
 80043c6:	d007      	beq.n	80043d8 <HAL_SPI_TransmitReceive+0xf2>
 80043c8:	68fb      	ldr	r3, [r7, #12]
 80043ca:	681b      	ldr	r3, [r3, #0]
 80043cc:	681a      	ldr	r2, [r3, #0]
 80043ce:	68fb      	ldr	r3, [r7, #12]
 80043d0:	681b      	ldr	r3, [r3, #0]
 80043d2:	f042 0240 	orr.w	r2, r2, #64	; 0x40
 80043d6:	601a      	str	r2, [r3, #0]
 80043d8:	68fb      	ldr	r3, [r7, #12]
 80043da:	68db      	ldr	r3, [r3, #12]
 80043dc:	f5b3 6f00 	cmp.w	r3, #2048	; 0x800
 80043e0:	d178      	bne.n	80044d4 <HAL_SPI_TransmitReceive+0x1ee>
 80043e2:	68fb      	ldr	r3, [r7, #12]
 80043e4:	685b      	ldr	r3, [r3, #4]
 80043e6:	2b00      	cmp	r3, #0
 80043e8:	d002      	beq.n	80043f0 <HAL_SPI_TransmitReceive+0x10a>
 80043ea:	8b7b      	ldrh	r3, [r7, #26]
 80043ec:	2b01      	cmp	r3, #1
 80043ee:	d166      	bne.n	80044be <HAL_SPI_TransmitReceive+0x1d8>
 80043f0:	68fb      	ldr	r3, [r7, #12]
 80043f2:	6b1b      	ldr	r3, [r3, #48]	; 0x30
 80043f4:	881a      	ldrh	r2, [r3, #0]
 80043f6:	68fb      	ldr	r3, [r7, #12]
 80043f8:	681b      	ldr	r3, [r3, #0]
 80043fa:	60da      	str	r2, [r3, #12]
 80043fc:	68fb      	ldr	r3, [r7, #12]
 80043fe:	6b1b      	ldr	r3, [r3, #48]	; 0x30
 8004400:	1c9a      	adds	r2, r3, #2
 8004402:	68fb      	ldr	r3, [r7, #12]
 8004404:	631a      	str	r2, [r3, #48]	; 0x30
 8004406:	68fb      	ldr	r3, [r7, #12]
 8004408:	8edb      	ldrh	r3, [r3, #54]	; 0x36
 800440a:	b29b      	uxth	r3, r3
 800440c:	3b01      	subs	r3, #1
 800440e:	b29a      	uxth	r2, r3
 8004410:	68fb      	ldr	r3, [r7, #12]
 8004412:	86da      	strh	r2, [r3, #54]	; 0x36
 8004414:	e053      	b.n	80044be <HAL_SPI_TransmitReceive+0x1d8>
 8004416:	68fb      	ldr	r3, [r7, #12]
 8004418:	681b      	ldr	r3, [r3, #0]
 800441a:	689b      	ldr	r3, [r3, #8]
 800441c:	f003 0302 	and.w	r3, r3, #2
 8004420:	2b02      	cmp	r3, #2
 8004422:	d11b      	bne.n	800445c <HAL_SPI_TransmitReceive+0x176>
 8004424:	68fb      	ldr	r3, [r7, #12]
 8004426:	8edb      	ldrh	r3, [r3, #54]	; 0x36
 8004428:	b29b      	uxth	r3, r3
 800442a:	2b00      	cmp	r3, #0
 800442c:	d016      	beq.n	800445c <HAL_SPI_TransmitReceive+0x176>
 800442e:	6afb      	ldr	r3, [r7, #44]	; 0x2c
 8004430:	2b01      	cmp	r3, #1
 8004432:	d113      	bne.n	800445c <HAL_SPI_TransmitReceive+0x176>
 8004434:	68fb      	ldr	r3, [r7, #12]
 8004436:	6b1b      	ldr	r3, [r3, #48]	; 0x30
 8004438:	881a      	ldrh	r2, [r3, #0]
 800443a:	68fb      	ldr	r3, [r7, #12]
 800443c:	681b      	ldr	r3, [r3, #0]
 800443e:	60da      	str	r2, [r3, #12]
 8004440:	68fb      	ldr	r3, [r7, #12]
 8004442:	6b1b      	ldr	r3, [r3, #48]	; 0x30
 8004444:	1c9a      	adds	r2, r3, #2
 8004446:	68fb      	ldr	r3, [r7, #12]
 8004448:	631a      	str	r2, [r3, #48]	; 0x30
 800444a:	68fb      	ldr	r3, [r7, #12]
 800444c:	8edb      	ldrh	r3, [r3, #54]	; 0x36
 800444e:	b29b      	uxth	r3, r3
 8004450:	3b01      	subs	r3, #1
 8004452:	b29a      	uxth	r2, r3
 8004454:	68fb      	ldr	r3, [r7, #12]
 8004456:	86da      	strh	r2, [r3, #54]	; 0x36
 8004458:	2300      	movs	r3, #0
 800445a:	62fb      	str	r3, [r7, #44]	; 0x2c
 800445c:	68fb      	ldr	r3, [r7, #12]
 800445e:	681b      	ldr	r3, [r3, #0]
 8004460:	689b      	ldr	r3, [r3, #8]
 8004462:	f003 0301 	and.w	r3, r3, #1
 8004466:	2b01      	cmp	r3, #1
 8004468:	d119      	bne.n	800449e <HAL_SPI_TransmitReceive+0x1b8>
 800446a:	68fb      	ldr	r3, [r7, #12]
 800446c:	8fdb      	ldrh	r3, [r3, #62]	; 0x3e
 800446e:	b29b      	uxth	r3, r3
 8004470:	2b00      	cmp	r3, #0
 8004472:	d014      	beq.n	800449e <HAL_SPI_TransmitReceive+0x1b8>
 8004474:	68fb      	ldr	r3, [r7, #12]
 8004476:	681b      	ldr	r3, [r3, #0]
 8004478:	68da      	ldr	r2, [r3, #12]
 800447a:	68fb      	ldr	r3, [r7, #12]
 800447c:	6b9b      	ldr	r3, [r3, #56]	; 0x38
 800447e:	b292      	uxth	r2, r2
 8004480:	801a      	strh	r2, [r3, #0]
 8004482:	68fb      	ldr	r3, [r7, #12]
 8004484:	6b9b      	ldr	r3, [r3, #56]	; 0x38
 8004486:	1c9a      	adds	r2, r3, #2
 8004488:	68fb      	ldr	r3, [r7, #12]
 800448a:	639a      	str	r2, [r3, #56]	; 0x38
 800448c:	68fb      	ldr	r3, [r7, #12]
 800448e:	8fdb      	ldrh	r3, [r3, #62]	; 0x3e
 8004490:	b29b      	uxth	r3, r3
 8004492:	3b01      	subs	r3, #1
 8004494:	b29a      	uxth	r2, r3
 8004496:	68fb      	ldr	r3, [r7, #12]
 8004498:	87da      	strh	r2, [r3, #62]	; 0x3e
 800449a:	2301      	movs	r3, #1
 800449c:	62fb      	str	r3, [r7, #44]	; 0x2c
 800449e:	f7fe f9d9 	bl	8002854 <HAL_GetTick>
 80044a2:	4602      	mov	r2, r0
 80044a4:	6a7b      	ldr	r3, [r7, #36]	; 0x24
 80044a6:	1ad3      	subs	r3, r2, r3
 80044a8:	6bba      	ldr	r2, [r7, #56]	; 0x38
 80044aa:	429a      	cmp	r2, r3
 80044ac:	d807      	bhi.n	80044be <HAL_SPI_TransmitReceive+0x1d8>
 80044ae:	6bbb      	ldr	r3, [r7, #56]	; 0x38
 80044b0:	f1b3 3fff 	cmp.w	r3, #4294967295
 80044b4:	d003      	beq.n	80044be <HAL_SPI_TransmitReceive+0x1d8>
 80044b6:	2303      	movs	r3, #3
 80044b8:	f887 302b 	strb.w	r3, [r7, #43]	; 0x2b
 80044bc:	e0a7      	b.n	800460e <HAL_SPI_TransmitReceive+0x328>
 80044be:	68fb      	ldr	r3, [r7, #12]
 80044c0:	8edb      	ldrh	r3, [r3, #54]	; 0x36
 80044c2:	b29b      	uxth	r3, r3
 80044c4:	2b00      	cmp	r3, #0
 80044c6:	d1a6      	bne.n	8004416 <HAL_SPI_TransmitReceive+0x130>
 80044c8:	68fb      	ldr	r3, [r7, #12]
 80044ca:	8fdb      	ldrh	r3, [r3, #62]	; 0x3e
 80044cc:	b29b      	uxth	r3, r3
 80044ce:	2b00      	cmp	r3, #0
 80044d0:	d1a1      	bne.n	8004416 <HAL_SPI_TransmitReceive+0x130>
 80044d2:	e07c      	b.n	80045ce <HAL_SPI_TransmitReceive+0x2e8>
 80044d4:	68fb      	ldr	r3, [r7, #12]
 80044d6:	685b      	ldr	r3, [r3, #4]
 80044d8:	2b00      	cmp	r3, #0
 80044da:	d002      	beq.n	80044e2 <HAL_SPI_TransmitReceive+0x1fc>
 80044dc:	8b7b      	ldrh	r3, [r7, #26]
 80044de:	2b01      	cmp	r3, #1
 80044e0:	d16b      	bne.n	80045ba <HAL_SPI_TransmitReceive+0x2d4>
 80044e2:	68fb      	ldr	r3, [r7, #12]
 80044e4:	6b1a      	ldr	r2, [r3, #48]	; 0x30
 80044e6:	68fb      	ldr	r3, [r7, #12]
 80044e8:	681b      	ldr	r3, [r3, #0]
 80044ea:	330c      	adds	r3, #12
 80044ec:	7812      	ldrb	r2, [r2, #0]
 80044ee:	701a      	strb	r2, [r3, #0]
 80044f0:	68fb      	ldr	r3, [r7, #12]
 80044f2:	6b1b      	ldr	r3, [r3, #48]	; 0x30
 80044f4:	1c5a      	adds	r2, r3, #1
 80044f6:	68fb      	ldr	r3, [r7, #12]
 80044f8:	631a      	str	r2, [r3, #48]	; 0x30
 80044fa:	68fb      	ldr	r3, [r7, #12]
 80044fc:	8edb      	ldrh	r3, [r3, #54]	; 0x36
 80044fe:	b29b      	uxth	r3, r3
 8004500:	3b01      	subs	r3, #1
 8004502:	b29a      	uxth	r2, r3
 8004504:	68fb      	ldr	r3, [r7, #12]
 8004506:	86da      	strh	r2, [r3, #54]	; 0x36
 8004508:	e057      	b.n	80045ba <HAL_SPI_TransmitReceive+0x2d4>
 800450a:	68fb      	ldr	r3, [r7, #12]
 800450c:	681b      	ldr	r3, [r3, #0]
 800450e:	689b      	ldr	r3, [r3, #8]
 8004510:	f003 0302 	and.w	r3, r3, #2
 8004514:	2b02      	cmp	r3, #2
 8004516:	d11c      	bne.n	8004552 <HAL_SPI_TransmitReceive+0x26c>
 8004518:	68fb      	ldr	r3, [r7, #12]
 800451a:	8edb      	ldrh	r3, [r3, #54]	; 0x36
 800451c:	b29b      	uxth	r3, r3
 800451e:	2b00      	cmp	r3, #0
 8004520:	d017      	beq.n	8004552 <HAL_SPI_TransmitReceive+0x26c>
 8004522:	6afb      	ldr	r3, [r7, #44]	; 0x2c
 8004524:	2b01      	cmp	r3, #1
 8004526:	d114      	bne.n	8004552 <HAL_SPI_TransmitReceive+0x26c>
 8004528:	68fb      	ldr	r3, [r7, #12]
 800452a:	6b1a      	ldr	r2, [r3, #48]	; 0x30
 800452c:	68fb      	ldr	r3, [r7, #12]
 800452e:	681b      	ldr	r3, [r3, #0]
 8004530:	330c      	adds	r3, #12
 8004532:	7812      	ldrb	r2, [r2, #0]
 8004534:	701a      	strb	r2, [r3, #0]
 8004536:	68fb      	ldr	r3, [r7, #12]
 8004538:	6b1b      	ldr	r3, [r3, #48]	; 0x30
 800453a:	1c5a      	adds	r2, r3, #1
 800453c:	68fb      	ldr	r3, [r7, #12]
 800453e:	631a      	str	r2, [r3, #48]	; 0x30
 8004540:	68fb      	ldr	r3, [r7, #12]
 8004542:	8edb      	ldrh	r3, [r3, #54]	; 0x36
 8004544:	b29b      	uxth	r3, r3
 8004546:	3b01      	subs	r3, #1
 8004548:	b29a      	uxth	r2, r3
 800454a:	68fb      	ldr	r3, [r7, #12]
 800454c:	86da      	strh	r2, [r3, #54]	; 0x36
 800454e:	2300      	movs	r3, #0
 8004550:	62fb      	str	r3, [r7, #44]	; 0x2c
 8004552:	68fb      	ldr	r3, [r7, #12]
 8004554:	681b      	ldr	r3, [r3, #0]
 8004556:	689b      	ldr	r3, [r3, #8]
 8004558:	f003 0301 	and.w	r3, r3, #1
 800455c:	2b01      	cmp	r3, #1
 800455e:	d119      	bne.n	8004594 <HAL_SPI_TransmitReceive+0x2ae>
 8004560:	68fb      	ldr	r3, [r7, #12]
 8004562:	8fdb      	ldrh	r3, [r3, #62]	; 0x3e
 8004564:	b29b      	uxth	r3, r3
 8004566:	2b00      	cmp	r3, #0
 8004568:	d014      	beq.n	8004594 <HAL_SPI_TransmitReceive+0x2ae>
 800456a:	68fb      	ldr	r3, [r7, #12]
 800456c:	681b      	ldr	r3, [r3, #0]
 800456e:	68da      	ldr	r2, [r3, #12]
 8004570:	68fb      	ldr	r3, [r7, #12]
 8004572:	6b9b      	ldr	r3, [r3, #56]	; 0x38
 8004574:	b2d2      	uxtb	r2, r2
 8004576:	701a      	strb	r2, [r3, #0]
 8004578:	68fb      	ldr	r3, [r7, #12]
 800457a:	6b9b      	ldr	r3, [r3, #56]	; 0x38
 800457c:	1c5a      	adds	r2, r3, #1
 800457e:	68fb      	ldr	r3, [r7, #12]
 8004580:	639a      	str	r2, [r3, #56]	; 0x38
 8004582:	68fb      	ldr	r3, [r7, #12]
 8004584:	8fdb      	ldrh	r3, [r3, #62]	; 0x3e
 8004586:	b29b      	uxth	r3, r3
 8004588:	3b01      	subs	r3, #1
 800458a:	b29a      	uxth	r2, r3
 800458c:	68fb      	ldr	r3, [r7, #12]
 800458e:	87da      	strh	r2, [r3, #62]	; 0x3e
 8004590:	2301      	movs	r3, #1
 8004592:	62fb      	str	r3, [r7, #44]	; 0x2c
 8004594:	f7fe f95e 	bl	8002854 <HAL_GetTick>
 8004598:	4602      	mov	r2, r0
 800459a:	6a7b      	ldr	r3, [r7, #36]	; 0x24
 800459c:	1ad3      	subs	r3, r2, r3
 800459e:	6bba      	ldr	r2, [r7, #56]	; 0x38
 80045a0:	429a      	cmp	r2, r3
 80045a2:	d803      	bhi.n	80045ac <HAL_SPI_TransmitReceive+0x2c6>
 80045a4:	6bbb      	ldr	r3, [r7, #56]	; 0x38
 80045a6:	f1b3 3fff 	cmp.w	r3, #4294967295
 80045aa:	d102      	bne.n	80045b2 <HAL_SPI_TransmitReceive+0x2cc>
 80045ac:	6bbb      	ldr	r3, [r7, #56]	; 0x38
 80045ae:	2b00      	cmp	r3, #0
 80045b0:	d103      	bne.n	80045ba <HAL_SPI_TransmitReceive+0x2d4>
 80045b2:	2303      	movs	r3, #3
 80045b4:	f887 302b 	strb.w	r3, [r7, #43]	; 0x2b
 80045b8:	e029      	b.n	800460e <HAL_SPI_TransmitReceive+0x328>
 80045ba:	68fb      	ldr	r3, [r7, #12]
 80045bc:	8edb      	ldrh	r3, [r3, #54]	; 0x36
 80045be:	b29b      	uxth	r3, r3
 80045c0:	2b00      	cmp	r3, #0
 80045c2:	d1a2      	bne.n	800450a <HAL_SPI_TransmitReceive+0x224>
 80045c4:	68fb      	ldr	r3, [r7, #12]
 80045c6:	8fdb      	ldrh	r3, [r3, #62]	; 0x3e
 80045c8:	b29b      	uxth	r3, r3
 80045ca:	2b00      	cmp	r3, #0
 80045cc:	d19d      	bne.n	800450a <HAL_SPI_TransmitReceive+0x224>
 80045ce:	6a7a      	ldr	r2, [r7, #36]	; 0x24
 80045d0:	6bb9      	ldr	r1, [r7, #56]	; 0x38
 80045d2:	68f8      	ldr	r0, [r7, #12]
 80045d4:	f000 f8f8 	bl	80047c8 <SPI_EndRxTxTransaction>
 80045d8:	4603      	mov	r3, r0
 80045da:	2b00      	cmp	r3, #0
 80045dc:	d006      	beq.n	80045ec <HAL_SPI_TransmitReceive+0x306>
 80045de:	2301      	movs	r3, #1
 80045e0:	f887 302b 	strb.w	r3, [r7, #43]	; 0x2b
 80045e4:	68fb      	ldr	r3, [r7, #12]
 80045e6:	2220      	movs	r2, #32
 80045e8:	655a      	str	r2, [r3, #84]	; 0x54
 80045ea:	e010      	b.n	800460e <HAL_SPI_TransmitReceive+0x328>
 80045ec:	68fb      	ldr	r3, [r7, #12]
 80045ee:	689b      	ldr	r3, [r3, #8]
 80045f0:	2b00      	cmp	r3, #0
 80045f2:	d10b      	bne.n	800460c <HAL_SPI_TransmitReceive+0x326>
 80045f4:	2300      	movs	r3, #0
 80045f6:	617b      	str	r3, [r7, #20]
 80045f8:	68fb      	ldr	r3, [r7, #12]
 80045fa:	681b      	ldr	r3, [r3, #0]
 80045fc:	68db      	ldr	r3, [r3, #12]
 80045fe:	617b      	str	r3, [r7, #20]
 8004600:	68fb      	ldr	r3, [r7, #12]
 8004602:	681b      	ldr	r3, [r3, #0]
 8004604:	689b      	ldr	r3, [r3, #8]
 8004606:	617b      	str	r3, [r7, #20]
 8004608:	697b      	ldr	r3, [r7, #20]
 800460a:	e000      	b.n	800460e <HAL_SPI_TransmitReceive+0x328>
 800460c:	bf00      	nop
 800460e:	68fb      	ldr	r3, [r7, #12]
 8004610:	2201      	movs	r2, #1
 8004612:	f883 2051 	strb.w	r2, [r3, #81]	; 0x51
 8004616:	68fb      	ldr	r3, [r7, #12]
 8004618:	2200      	movs	r2, #0
 800461a:	f883 2050 	strb.w	r2, [r3, #80]	; 0x50
 800461e:	f897 302b 	ldrb.w	r3, [r7, #43]	; 0x2b
 8004622:	4618      	mov	r0, r3
 8004624:	3730      	adds	r7, #48	; 0x30
 8004626:	46bd      	mov	sp, r7
 8004628:	bd80      	pop	{r7, pc}

0800462a <SPI_WaitFlagStateUntilTimeout>:
 800462a:	b580      	push	{r7, lr}
 800462c:	b084      	sub	sp, #16
 800462e:	af00      	add	r7, sp, #0
 8004630:	60f8      	str	r0, [r7, #12]
 8004632:	60b9      	str	r1, [r7, #8]
 8004634:	603b      	str	r3, [r7, #0]
 8004636:	4613      	mov	r3, r2
 8004638:	71fb      	strb	r3, [r7, #7]
 800463a:	e04c      	b.n	80046d6 <SPI_WaitFlagStateUntilTimeout+0xac>
 800463c:	683b      	ldr	r3, [r7, #0]
 800463e:	f1b3 3fff 	cmp.w	r3, #4294967295
 8004642:	d048      	beq.n	80046d6 <SPI_WaitFlagStateUntilTimeout+0xac>
 8004644:	f7fe f906 	bl	8002854 <HAL_GetTick>
 8004648:	4602      	mov	r2, r0
 800464a:	69bb      	ldr	r3, [r7, #24]
 800464c:	1ad3      	subs	r3, r2, r3
 800464e:	683a      	ldr	r2, [r7, #0]
 8004650:	429a      	cmp	r2, r3
 8004652:	d902      	bls.n	800465a <SPI_WaitFlagStateUntilTimeout+0x30>
 8004654:	683b      	ldr	r3, [r7, #0]
 8004656:	2b00      	cmp	r3, #0
 8004658:	d13d      	bne.n	80046d6 <SPI_WaitFlagStateUntilTimeout+0xac>
 800465a:	68fb      	ldr	r3, [r7, #12]
 800465c:	681b      	ldr	r3, [r3, #0]
 800465e:	685a      	ldr	r2, [r3, #4]
 8004660:	68fb      	ldr	r3, [r7, #12]
 8004662:	681b      	ldr	r3, [r3, #0]
 8004664:	f022 02e0 	bic.w	r2, r2, #224	; 0xe0
 8004668:	605a      	str	r2, [r3, #4]
 800466a:	68fb      	ldr	r3, [r7, #12]
 800466c:	685b      	ldr	r3, [r3, #4]
 800466e:	f5b3 7f82 	cmp.w	r3, #260	; 0x104
 8004672:	d111      	bne.n	8004698 <SPI_WaitFlagStateUntilTimeout+0x6e>
 8004674:	68fb      	ldr	r3, [r7, #12]
 8004676:	689b      	ldr	r3, [r3, #8]
 8004678:	f5b3 4f00 	cmp.w	r3, #32768	; 0x8000
 800467c:	d004      	beq.n	8004688 <SPI_WaitFlagStateUntilTimeout+0x5e>
 800467e:	68fb      	ldr	r3, [r7, #12]
 8004680:	689b      	ldr	r3, [r3, #8]
 8004682:	f5b3 6f80 	cmp.w	r3, #1024	; 0x400
 8004686:	d107      	bne.n	8004698 <SPI_WaitFlagStateUntilTimeout+0x6e>
 8004688:	68fb      	ldr	r3, [r7, #12]
 800468a:	681b      	ldr	r3, [r3, #0]
 800468c:	681a      	ldr	r2, [r3, #0]
 800468e:	68fb      	ldr	r3, [r7, #12]
 8004690:	681b      	ldr	r3, [r3, #0]
 8004692:	f022 0240 	bic.w	r2, r2, #64	; 0x40
 8004696:	601a      	str	r2, [r3, #0]
 8004698:	68fb      	ldr	r3, [r7, #12]
 800469a:	6a9b      	ldr	r3, [r3, #40]	; 0x28
 800469c:	f5b3 5f00 	cmp.w	r3, #8192	; 0x2000
 80046a0:	d10f      	bne.n	80046c2 <SPI_WaitFlagStateUntilTimeout+0x98>
 80046a2:	68fb      	ldr	r3, [r7, #12]
 80046a4:	681b      	ldr	r3, [r3, #0]
 80046a6:	681a      	ldr	r2, [r3, #0]
 80046a8:	68fb      	ldr	r3, [r7, #12]
 80046aa:	681b      	ldr	r3, [r3, #0]
 80046ac:	f422 5200 	bic.w	r2, r2, #8192	; 0x2000
 80046b0:	601a      	str	r2, [r3, #0]
 80046b2:	68fb      	ldr	r3, [r7, #12]
 80046b4:	681b      	ldr	r3, [r3, #0]
 80046b6:	681a      	ldr	r2, [r3, #0]
 80046b8:	68fb      	ldr	r3, [r7, #12]
 80046ba:	681b      	ldr	r3, [r3, #0]
 80046bc:	f442 5200 	orr.w	r2, r2, #8192	; 0x2000
 80046c0:	601a      	str	r2, [r3, #0]
 80046c2:	68fb      	ldr	r3, [r7, #12]
 80046c4:	2201      	movs	r2, #1
 80046c6:	f883 2051 	strb.w	r2, [r3, #81]	; 0x51
 80046ca:	68fb      	ldr	r3, [r7, #12]
 80046cc:	2200      	movs	r2, #0
 80046ce:	f883 2050 	strb.w	r2, [r3, #80]	; 0x50
 80046d2:	2303      	movs	r3, #3
 80046d4:	e00f      	b.n	80046f6 <SPI_WaitFlagStateUntilTimeout+0xcc>
 80046d6:	68fb      	ldr	r3, [r7, #12]
 80046d8:	681b      	ldr	r3, [r3, #0]
 80046da:	689a      	ldr	r2, [r3, #8]
 80046dc:	68bb      	ldr	r3, [r7, #8]
 80046de:	4013      	ands	r3, r2
 80046e0:	68ba      	ldr	r2, [r7, #8]
 80046e2:	429a      	cmp	r2, r3
 80046e4:	bf0c      	ite	eq
 80046e6:	2301      	moveq	r3, #1
 80046e8:	2300      	movne	r3, #0
 80046ea:	b2db      	uxtb	r3, r3
 80046ec:	461a      	mov	r2, r3
 80046ee:	79fb      	ldrb	r3, [r7, #7]
 80046f0:	429a      	cmp	r2, r3
 80046f2:	d1a3      	bne.n	800463c <SPI_WaitFlagStateUntilTimeout+0x12>
 80046f4:	2300      	movs	r3, #0
 80046f6:	4618      	mov	r0, r3
 80046f8:	3710      	adds	r7, #16
 80046fa:	46bd      	mov	sp, r7
 80046fc:	bd80      	pop	{r7, pc}

080046fe <SPI_EndRxTransaction>:
 80046fe:	b580      	push	{r7, lr}
 8004700:	b086      	sub	sp, #24
 8004702:	af02      	add	r7, sp, #8
 8004704:	60f8      	str	r0, [r7, #12]
 8004706:	60b9      	str	r1, [r7, #8]
 8004708:	607a      	str	r2, [r7, #4]
 800470a:	68fb      	ldr	r3, [r7, #12]
 800470c:	685b      	ldr	r3, [r3, #4]
 800470e:	f5b3 7f82 	cmp.w	r3, #260	; 0x104
 8004712:	d111      	bne.n	8004738 <SPI_EndRxTransaction+0x3a>
 8004714:	68fb      	ldr	r3, [r7, #12]
 8004716:	689b      	ldr	r3, [r3, #8]
 8004718:	f5b3 4f00 	cmp.w	r3, #32768	; 0x8000
 800471c:	d004      	beq.n	8004728 <SPI_EndRxTransaction+0x2a>
 800471e:	68fb      	ldr	r3, [r7, #12]
 8004720:	689b      	ldr	r3, [r3, #8]
 8004722:	f5b3 6f80 	cmp.w	r3, #1024	; 0x400
 8004726:	d107      	bne.n	8004738 <SPI_EndRxTransaction+0x3a>
 8004728:	68fb      	ldr	r3, [r7, #12]
 800472a:	681b      	ldr	r3, [r3, #0]
 800472c:	681a      	ldr	r2, [r3, #0]
 800472e:	68fb      	ldr	r3, [r7, #12]
 8004730:	681b      	ldr	r3, [r3, #0]
 8004732:	f022 0240 	bic.w	r2, r2, #64	; 0x40
 8004736:	601a      	str	r2, [r3, #0]
 8004738:	68fb      	ldr	r3, [r7, #12]
 800473a:	685b      	ldr	r3, [r3, #4]
 800473c:	f5b3 7f82 	cmp.w	r3, #260	; 0x104
 8004740:	d12a      	bne.n	8004798 <SPI_EndRxTransaction+0x9a>
 8004742:	68fb      	ldr	r3, [r7, #12]
 8004744:	689b      	ldr	r3, [r3, #8]
 8004746:	f5b3 6f80 	cmp.w	r3, #1024	; 0x400
 800474a:	d012      	beq.n	8004772 <SPI_EndRxTransaction+0x74>
 800474c:	687b      	ldr	r3, [r7, #4]
 800474e:	9300      	str	r3, [sp, #0]
 8004750:	68bb      	ldr	r3, [r7, #8]
 8004752:	2200      	movs	r2, #0
 8004754:	2180      	movs	r1, #128	; 0x80
 8004756:	68f8      	ldr	r0, [r7, #12]
 8004758:	f7ff ff67 	bl	800462a <SPI_WaitFlagStateUntilTimeout>
 800475c:	4603      	mov	r3, r0
 800475e:	2b00      	cmp	r3, #0
 8004760:	d02d      	beq.n	80047be <SPI_EndRxTransaction+0xc0>
 8004762:	68fb      	ldr	r3, [r7, #12]
 8004764:	6d5b      	ldr	r3, [r3, #84]	; 0x54
 8004766:	f043 0220 	orr.w	r2, r3, #32
 800476a:	68fb      	ldr	r3, [r7, #12]
 800476c:	655a      	str	r2, [r3, #84]	; 0x54
 800476e:	2303      	movs	r3, #3
 8004770:	e026      	b.n	80047c0 <SPI_EndRxTransaction+0xc2>
 8004772:	687b      	ldr	r3, [r7, #4]
 8004774:	9300      	str	r3, [sp, #0]
 8004776:	68bb      	ldr	r3, [r7, #8]
 8004778:	2200      	movs	r2, #0
 800477a:	2101      	movs	r1, #1
 800477c:	68f8      	ldr	r0, [r7, #12]
 800477e:	f7ff ff54 	bl	800462a <SPI_WaitFlagStateUntilTimeout>
 8004782:	4603      	mov	r3, r0
 8004784:	2b00      	cmp	r3, #0
 8004786:	d01a      	beq.n	80047be <SPI_EndRxTransaction+0xc0>
 8004788:	68fb      	ldr	r3, [r7, #12]
 800478a:	6d5b      	ldr	r3, [r3, #84]	; 0x54
 800478c:	f043 0220 	orr.w	r2, r3, #32
 8004790:	68fb      	ldr	r3, [r7, #12]
 8004792:	655a      	str	r2, [r3, #84]	; 0x54
 8004794:	2303      	movs	r3, #3
 8004796:	e013      	b.n	80047c0 <SPI_EndRxTransaction+0xc2>
 8004798:	687b      	ldr	r3, [r7, #4]
 800479a:	9300      	str	r3, [sp, #0]
 800479c:	68bb      	ldr	r3, [r7, #8]
 800479e:	2200      	movs	r2, #0
 80047a0:	2101      	movs	r1, #1
 80047a2:	68f8      	ldr	r0, [r7, #12]
 80047a4:	f7ff ff41 	bl	800462a <SPI_WaitFlagStateUntilTimeout>
 80047a8:	4603      	mov	r3, r0
 80047aa:	2b00      	cmp	r3, #0
 80047ac:	d007      	beq.n	80047be <SPI_EndRxTransaction+0xc0>
 80047ae:	68fb      	ldr	r3, [r7, #12]
 80047b0:	6d5b      	ldr	r3, [r3, #84]	; 0x54
 80047b2:	f043 0220 	orr.w	r2, r3, #32
 80047b6:	68fb      	ldr	r3, [r7, #12]
 80047b8:	655a      	str	r2, [r3, #84]	; 0x54
 80047ba:	2303      	movs	r3, #3
 80047bc:	e000      	b.n	80047c0 <SPI_EndRxTransaction+0xc2>
 80047be:	2300      	movs	r3, #0
 80047c0:	4618      	mov	r0, r3
 80047c2:	3710      	adds	r7, #16
 80047c4:	46bd      	mov	sp, r7
 80047c6:	bd80      	pop	{r7, pc}

080047c8 <SPI_EndRxTxTransaction>:
 80047c8:	b580      	push	{r7, lr}
 80047ca:	b088      	sub	sp, #32
 80047cc:	af02      	add	r7, sp, #8
 80047ce:	60f8      	str	r0, [r7, #12]
 80047d0:	60b9      	str	r1, [r7, #8]
 80047d2:	607a      	str	r2, [r7, #4]
 80047d4:	4b1b      	ldr	r3, [pc, #108]	; (8004844 <SPI_EndRxTxTransaction+0x7c>)
 80047d6:	681b      	ldr	r3, [r3, #0]
 80047d8:	4a1b      	ldr	r2, [pc, #108]	; (8004848 <SPI_EndRxTxTransaction+0x80>)
 80047da:	fba2 2303 	umull	r2, r3, r2, r3
 80047de:	0d5b      	lsrs	r3, r3, #21
 80047e0:	f44f 727a 	mov.w	r2, #1000	; 0x3e8
 80047e4:	fb02 f303 	mul.w	r3, r2, r3
 80047e8:	617b      	str	r3, [r7, #20]
 80047ea:	68fb      	ldr	r3, [r7, #12]
 80047ec:	685b      	ldr	r3, [r3, #4]
 80047ee:	f5b3 7f82 	cmp.w	r3, #260	; 0x104
 80047f2:	d112      	bne.n	800481a <SPI_EndRxTxTransaction+0x52>
 80047f4:	687b      	ldr	r3, [r7, #4]
 80047f6:	9300      	str	r3, [sp, #0]
 80047f8:	68bb      	ldr	r3, [r7, #8]
 80047fa:	2200      	movs	r2, #0
 80047fc:	2180      	movs	r1, #128	; 0x80
 80047fe:	68f8      	ldr	r0, [r7, #12]
 8004800:	f7ff ff13 	bl	800462a <SPI_WaitFlagStateUntilTimeout>
 8004804:	4603      	mov	r3, r0
 8004806:	2b00      	cmp	r3, #0
 8004808:	d016      	beq.n	8004838 <SPI_EndRxTxTransaction+0x70>
 800480a:	68fb      	ldr	r3, [r7, #12]
 800480c:	6d5b      	ldr	r3, [r3, #84]	; 0x54
 800480e:	f043 0220 	orr.w	r2, r3, #32
 8004812:	68fb      	ldr	r3, [r7, #12]
 8004814:	655a      	str	r2, [r3, #84]	; 0x54
 8004816:	2303      	movs	r3, #3
 8004818:	e00f      	b.n	800483a <SPI_EndRxTxTransaction+0x72>
 800481a:	697b      	ldr	r3, [r7, #20]
 800481c:	2b00      	cmp	r3, #0
 800481e:	d00a      	beq.n	8004836 <SPI_EndRxTxTransaction+0x6e>
 8004820:	697b      	ldr	r3, [r7, #20]
 8004822:	3b01      	subs	r3, #1
 8004824:	617b      	str	r3, [r7, #20]
 8004826:	68fb      	ldr	r3, [r7, #12]
 8004828:	681b      	ldr	r3, [r3, #0]
 800482a:	689b      	ldr	r3, [r3, #8]
 800482c:	f003 0380 	and.w	r3, r3, #128	; 0x80
 8004830:	2b80      	cmp	r3, #128	; 0x80
 8004832:	d0f2      	beq.n	800481a <SPI_EndRxTxTransaction+0x52>
 8004834:	e000      	b.n	8004838 <SPI_EndRxTxTransaction+0x70>
 8004836:	bf00      	nop
 8004838:	2300      	movs	r3, #0
 800483a:	4618      	mov	r0, r3
 800483c:	3718      	adds	r7, #24
 800483e:	46bd      	mov	sp, r7
 8004840:	bd80      	pop	{r7, pc}
 8004842:	bf00      	nop
 8004844:	20000000 	.word	0x20000000
 8004848:	165e9f81 	.word	0x165e9f81

0800484c <HAL_TIM_Base_Init>:
 800484c:	b580      	push	{r7, lr}
 800484e:	b082      	sub	sp, #8
 8004850:	af00      	add	r7, sp, #0
 8004852:	6078      	str	r0, [r7, #4]
 8004854:	687b      	ldr	r3, [r7, #4]
 8004856:	2b00      	cmp	r3, #0
 8004858:	d101      	bne.n	800485e <HAL_TIM_Base_Init+0x12>
 800485a:	2301      	movs	r3, #1
 800485c:	e01d      	b.n	800489a <HAL_TIM_Base_Init+0x4e>
 800485e:	687b      	ldr	r3, [r7, #4]
 8004860:	f893 303d 	ldrb.w	r3, [r3, #61]	; 0x3d
 8004864:	b2db      	uxtb	r3, r3
 8004866:	2b00      	cmp	r3, #0
 8004868:	d106      	bne.n	8004878 <HAL_TIM_Base_Init+0x2c>
 800486a:	687b      	ldr	r3, [r7, #4]
 800486c:	2200      	movs	r2, #0
 800486e:	f883 203c 	strb.w	r2, [r3, #60]	; 0x3c
 8004872:	6878      	ldr	r0, [r7, #4]
 8004874:	f7fd fe5e 	bl	8002534 <HAL_TIM_Base_MspInit>
 8004878:	687b      	ldr	r3, [r7, #4]
 800487a:	2202      	movs	r2, #2
 800487c:	f883 203d 	strb.w	r2, [r3, #61]	; 0x3d
 8004880:	687b      	ldr	r3, [r7, #4]
 8004882:	681a      	ldr	r2, [r3, #0]
 8004884:	687b      	ldr	r3, [r7, #4]
 8004886:	3304      	adds	r3, #4
 8004888:	4619      	mov	r1, r3
 800488a:	4610      	mov	r0, r2
 800488c:	f000 fbea 	bl	8005064 <TIM_Base_SetConfig>
 8004890:	687b      	ldr	r3, [r7, #4]
 8004892:	2201      	movs	r2, #1
 8004894:	f883 203d 	strb.w	r2, [r3, #61]	; 0x3d
 8004898:	2300      	movs	r3, #0
 800489a:	4618      	mov	r0, r3
 800489c:	3708      	adds	r7, #8
 800489e:	46bd      	mov	sp, r7
 80048a0:	bd80      	pop	{r7, pc}

080048a2 <HAL_TIM_Base_Start_IT>:
 80048a2:	b480      	push	{r7}
 80048a4:	b085      	sub	sp, #20
 80048a6:	af00      	add	r7, sp, #0
 80048a8:	6078      	str	r0, [r7, #4]
 80048aa:	687b      	ldr	r3, [r7, #4]
 80048ac:	681b      	ldr	r3, [r3, #0]
 80048ae:	68da      	ldr	r2, [r3, #12]
 80048b0:	687b      	ldr	r3, [r7, #4]
 80048b2:	681b      	ldr	r3, [r3, #0]
 80048b4:	f042 0201 	orr.w	r2, r2, #1
 80048b8:	60da      	str	r2, [r3, #12]
 80048ba:	687b      	ldr	r3, [r7, #4]
 80048bc:	681b      	ldr	r3, [r3, #0]
 80048be:	689b      	ldr	r3, [r3, #8]
 80048c0:	f003 0307 	and.w	r3, r3, #7
 80048c4:	60fb      	str	r3, [r7, #12]
 80048c6:	68fb      	ldr	r3, [r7, #12]
 80048c8:	2b06      	cmp	r3, #6
 80048ca:	d007      	beq.n	80048dc <HAL_TIM_Base_Start_IT+0x3a>
 80048cc:	687b      	ldr	r3, [r7, #4]
 80048ce:	681b      	ldr	r3, [r3, #0]
 80048d0:	681a      	ldr	r2, [r3, #0]
 80048d2:	687b      	ldr	r3, [r7, #4]
 80048d4:	681b      	ldr	r3, [r3, #0]
 80048d6:	f042 0201 	orr.w	r2, r2, #1
 80048da:	601a      	str	r2, [r3, #0]
 80048dc:	2300      	movs	r3, #0
 80048de:	4618      	mov	r0, r3
 80048e0:	3714      	adds	r7, #20
 80048e2:	46bd      	mov	sp, r7
 80048e4:	f85d 7b04 	ldr.w	r7, [sp], #4
 80048e8:	4770      	bx	lr

080048ea <HAL_TIM_PWM_Init>:
 80048ea:	b580      	push	{r7, lr}
 80048ec:	b082      	sub	sp, #8
 80048ee:	af00      	add	r7, sp, #0
 80048f0:	6078      	str	r0, [r7, #4]
 80048f2:	687b      	ldr	r3, [r7, #4]
 80048f4:	2b00      	cmp	r3, #0
 80048f6:	d101      	bne.n	80048fc <HAL_TIM_PWM_Init+0x12>
 80048f8:	2301      	movs	r3, #1
 80048fa:	e01d      	b.n	8004938 <HAL_TIM_PWM_Init+0x4e>
 80048fc:	687b      	ldr	r3, [r7, #4]
 80048fe:	f893 303d 	ldrb.w	r3, [r3, #61]	; 0x3d
 8004902:	b2db      	uxtb	r3, r3
 8004904:	2b00      	cmp	r3, #0
 8004906:	d106      	bne.n	8004916 <HAL_TIM_PWM_Init+0x2c>
 8004908:	687b      	ldr	r3, [r7, #4]
 800490a:	2200      	movs	r2, #0
 800490c:	f883 203c 	strb.w	r2, [r3, #60]	; 0x3c
 8004910:	6878      	ldr	r0, [r7, #4]
 8004912:	f7fd fcd9 	bl	80022c8 <HAL_TIM_PWM_MspInit>
 8004916:	687b      	ldr	r3, [r7, #4]
 8004918:	2202      	movs	r2, #2
 800491a:	f883 203d 	strb.w	r2, [r3, #61]	; 0x3d
 800491e:	687b      	ldr	r3, [r7, #4]
 8004920:	681a      	ldr	r2, [r3, #0]
 8004922:	687b      	ldr	r3, [r7, #4]
 8004924:	3304      	adds	r3, #4
 8004926:	4619      	mov	r1, r3
 8004928:	4610      	mov	r0, r2
 800492a:	f000 fb9b 	bl	8005064 <TIM_Base_SetConfig>
 800492e:	687b      	ldr	r3, [r7, #4]
 8004930:	2201      	movs	r2, #1
 8004932:	f883 203d 	strb.w	r2, [r3, #61]	; 0x3d
 8004936:	2300      	movs	r3, #0
 8004938:	4618      	mov	r0, r3
 800493a:	3708      	adds	r7, #8
 800493c:	46bd      	mov	sp, r7
 800493e:	bd80      	pop	{r7, pc}

08004940 <HAL_TIM_PWM_Start_DMA>:
 8004940:	b580      	push	{r7, lr}
 8004942:	b086      	sub	sp, #24
 8004944:	af00      	add	r7, sp, #0
 8004946:	60f8      	str	r0, [r7, #12]
 8004948:	60b9      	str	r1, [r7, #8]
 800494a:	607a      	str	r2, [r7, #4]
 800494c:	807b      	strh	r3, [r7, #2]
 800494e:	68fb      	ldr	r3, [r7, #12]
 8004950:	f893 303d 	ldrb.w	r3, [r3, #61]	; 0x3d
 8004954:	b2db      	uxtb	r3, r3
 8004956:	2b02      	cmp	r3, #2
 8004958:	d101      	bne.n	800495e <HAL_TIM_PWM_Start_DMA+0x1e>
 800495a:	2302      	movs	r3, #2
 800495c:	e0e9      	b.n	8004b32 <HAL_TIM_PWM_Start_DMA+0x1f2>
 800495e:	68fb      	ldr	r3, [r7, #12]
 8004960:	f893 303d 	ldrb.w	r3, [r3, #61]	; 0x3d
 8004964:	b2db      	uxtb	r3, r3
 8004966:	2b01      	cmp	r3, #1
 8004968:	d10b      	bne.n	8004982 <HAL_TIM_PWM_Start_DMA+0x42>
 800496a:	687b      	ldr	r3, [r7, #4]
 800496c:	2b00      	cmp	r3, #0
 800496e:	d104      	bne.n	800497a <HAL_TIM_PWM_Start_DMA+0x3a>
 8004970:	887b      	ldrh	r3, [r7, #2]
 8004972:	2b00      	cmp	r3, #0
 8004974:	d001      	beq.n	800497a <HAL_TIM_PWM_Start_DMA+0x3a>
 8004976:	2301      	movs	r3, #1
 8004978:	e0db      	b.n	8004b32 <HAL_TIM_PWM_Start_DMA+0x1f2>
 800497a:	68fb      	ldr	r3, [r7, #12]
 800497c:	2202      	movs	r2, #2
 800497e:	f883 203d 	strb.w	r2, [r3, #61]	; 0x3d
 8004982:	68bb      	ldr	r3, [r7, #8]
 8004984:	2b0c      	cmp	r3, #12
 8004986:	f200 80ad 	bhi.w	8004ae4 <HAL_TIM_PWM_Start_DMA+0x1a4>
 800498a:	a201      	add	r2, pc, #4	; (adr r2, 8004990 <HAL_TIM_PWM_Start_DMA+0x50>)
 800498c:	f852 f023 	ldr.w	pc, [r2, r3, lsl #2]
 8004990:	080049c5 	.word	0x080049c5
 8004994:	08004ae5 	.word	0x08004ae5
 8004998:	08004ae5 	.word	0x08004ae5
 800499c:	08004ae5 	.word	0x08004ae5
 80049a0:	08004a0d 	.word	0x08004a0d
 80049a4:	08004ae5 	.word	0x08004ae5
 80049a8:	08004ae5 	.word	0x08004ae5
 80049ac:	08004ae5 	.word	0x08004ae5
 80049b0:	08004a55 	.word	0x08004a55
 80049b4:	08004ae5 	.word	0x08004ae5
 80049b8:	08004ae5 	.word	0x08004ae5
 80049bc:	08004ae5 	.word	0x08004ae5
 80049c0:	08004a9d 	.word	0x08004a9d
 80049c4:	68fb      	ldr	r3, [r7, #12]
 80049c6:	6a5b      	ldr	r3, [r3, #36]	; 0x24
 80049c8:	4a5c      	ldr	r2, [pc, #368]	; (8004b3c <HAL_TIM_PWM_Start_DMA+0x1fc>)
 80049ca:	63da      	str	r2, [r3, #60]	; 0x3c
 80049cc:	68fb      	ldr	r3, [r7, #12]
 80049ce:	6a5b      	ldr	r3, [r3, #36]	; 0x24
 80049d0:	4a5b      	ldr	r2, [pc, #364]	; (8004b40 <HAL_TIM_PWM_Start_DMA+0x200>)
 80049d2:	641a      	str	r2, [r3, #64]	; 0x40
 80049d4:	68fb      	ldr	r3, [r7, #12]
 80049d6:	6a5b      	ldr	r3, [r3, #36]	; 0x24
 80049d8:	4a5a      	ldr	r2, [pc, #360]	; (8004b44 <HAL_TIM_PWM_Start_DMA+0x204>)
 80049da:	64da      	str	r2, [r3, #76]	; 0x4c
 80049dc:	68fb      	ldr	r3, [r7, #12]
 80049de:	6a58      	ldr	r0, [r3, #36]	; 0x24
 80049e0:	6879      	ldr	r1, [r7, #4]
 80049e2:	68fb      	ldr	r3, [r7, #12]
 80049e4:	681b      	ldr	r3, [r3, #0]
 80049e6:	3334      	adds	r3, #52	; 0x34
 80049e8:	461a      	mov	r2, r3
 80049ea:	887b      	ldrh	r3, [r7, #2]
 80049ec:	f7fe f920 	bl	8002c30 <HAL_DMA_Start_IT>
 80049f0:	4603      	mov	r3, r0
 80049f2:	2b00      	cmp	r3, #0
 80049f4:	d001      	beq.n	80049fa <HAL_TIM_PWM_Start_DMA+0xba>
 80049f6:	2301      	movs	r3, #1
 80049f8:	e09b      	b.n	8004b32 <HAL_TIM_PWM_Start_DMA+0x1f2>
 80049fa:	68fb      	ldr	r3, [r7, #12]
 80049fc:	681b      	ldr	r3, [r3, #0]
 80049fe:	68da      	ldr	r2, [r3, #12]
 8004a00:	68fb      	ldr	r3, [r7, #12]
 8004a02:	681b      	ldr	r3, [r3, #0]
 8004a04:	f442 7200 	orr.w	r2, r2, #512	; 0x200
 8004a08:	60da      	str	r2, [r3, #12]
 8004a0a:	e06c      	b.n	8004ae6 <HAL_TIM_PWM_Start_DMA+0x1a6>
 8004a0c:	68fb      	ldr	r3, [r7, #12]
 8004a0e:	6a9b      	ldr	r3, [r3, #40]	; 0x28
 8004a10:	4a4a      	ldr	r2, [pc, #296]	; (8004b3c <HAL_TIM_PWM_Start_DMA+0x1fc>)
 8004a12:	63da      	str	r2, [r3, #60]	; 0x3c
 8004a14:	68fb      	ldr	r3, [r7, #12]
 8004a16:	6a9b      	ldr	r3, [r3, #40]	; 0x28
 8004a18:	4a49      	ldr	r2, [pc, #292]	; (8004b40 <HAL_TIM_PWM_Start_DMA+0x200>)
 8004a1a:	641a      	str	r2, [r3, #64]	; 0x40
 8004a1c:	68fb      	ldr	r3, [r7, #12]
 8004a1e:	6a9b      	ldr	r3, [r3, #40]	; 0x28
 8004a20:	4a48      	ldr	r2, [pc, #288]	; (8004b44 <HAL_TIM_PWM_Start_DMA+0x204>)
 8004a22:	64da      	str	r2, [r3, #76]	; 0x4c
 8004a24:	68fb      	ldr	r3, [r7, #12]
 8004a26:	6a98      	ldr	r0, [r3, #40]	; 0x28
 8004a28:	6879      	ldr	r1, [r7, #4]
 8004a2a:	68fb      	ldr	r3, [r7, #12]
 8004a2c:	681b      	ldr	r3, [r3, #0]
 8004a2e:	3338      	adds	r3, #56	; 0x38
 8004a30:	461a      	mov	r2, r3
 8004a32:	887b      	ldrh	r3, [r7, #2]
 8004a34:	f7fe f8fc 	bl	8002c30 <HAL_DMA_Start_IT>
 8004a38:	4603      	mov	r3, r0
 8004a3a:	2b00      	cmp	r3, #0
 8004a3c:	d001      	beq.n	8004a42 <HAL_TIM_PWM_Start_DMA+0x102>
 8004a3e:	2301      	movs	r3, #1
 8004a40:	e077      	b.n	8004b32 <HAL_TIM_PWM_Start_DMA+0x1f2>
 8004a42:	68fb      	ldr	r3, [r7, #12]
 8004a44:	681b      	ldr	r3, [r3, #0]
 8004a46:	68da      	ldr	r2, [r3, #12]
 8004a48:	68fb      	ldr	r3, [r7, #12]
 8004a4a:	681b      	ldr	r3, [r3, #0]
 8004a4c:	f442 6280 	orr.w	r2, r2, #1024	; 0x400
 8004a50:	60da      	str	r2, [r3, #12]
 8004a52:	e048      	b.n	8004ae6 <HAL_TIM_PWM_Start_DMA+0x1a6>
 8004a54:	68fb      	ldr	r3, [r7, #12]
 8004a56:	6adb      	ldr	r3, [r3, #44]	; 0x2c
 8004a58:	4a38      	ldr	r2, [pc, #224]	; (8004b3c <HAL_TIM_PWM_Start_DMA+0x1fc>)
 8004a5a:	63da      	str	r2, [r3, #60]	; 0x3c
 8004a5c:	68fb      	ldr	r3, [r7, #12]
 8004a5e:	6adb      	ldr	r3, [r3, #44]	; 0x2c
 8004a60:	4a37      	ldr	r2, [pc, #220]	; (8004b40 <HAL_TIM_PWM_Start_DMA+0x200>)
 8004a62:	641a      	str	r2, [r3, #64]	; 0x40
 8004a64:	68fb      	ldr	r3, [r7, #12]
 8004a66:	6adb      	ldr	r3, [r3, #44]	; 0x2c
 8004a68:	4a36      	ldr	r2, [pc, #216]	; (8004b44 <HAL_TIM_PWM_Start_DMA+0x204>)
 8004a6a:	64da      	str	r2, [r3, #76]	; 0x4c
 8004a6c:	68fb      	ldr	r3, [r7, #12]
 8004a6e:	6ad8      	ldr	r0, [r3, #44]	; 0x2c
 8004a70:	6879      	ldr	r1, [r7, #4]
 8004a72:	68fb      	ldr	r3, [r7, #12]
 8004a74:	681b      	ldr	r3, [r3, #0]
 8004a76:	333c      	adds	r3, #60	; 0x3c
 8004a78:	461a      	mov	r2, r3
 8004a7a:	887b      	ldrh	r3, [r7, #2]
 8004a7c:	f7fe f8d8 	bl	8002c30 <HAL_DMA_Start_IT>
 8004a80:	4603      	mov	r3, r0
 8004a82:	2b00      	cmp	r3, #0
 8004a84:	d001      	beq.n	8004a8a <HAL_TIM_PWM_Start_DMA+0x14a>
 8004a86:	2301      	movs	r3, #1
 8004a88:	e053      	b.n	8004b32 <HAL_TIM_PWM_Start_DMA+0x1f2>
 8004a8a:	68fb      	ldr	r3, [r7, #12]
 8004a8c:	681b      	ldr	r3, [r3, #0]
 8004a8e:	68da      	ldr	r2, [r3, #12]
 8004a90:	68fb      	ldr	r3, [r7, #12]
 8004a92:	681b      	ldr	r3, [r3, #0]
 8004a94:	f442 6200 	orr.w	r2, r2, #2048	; 0x800
 8004a98:	60da      	str	r2, [r3, #12]
 8004a9a:	e024      	b.n	8004ae6 <HAL_TIM_PWM_Start_DMA+0x1a6>
 8004a9c:	68fb      	ldr	r3, [r7, #12]
 8004a9e:	6b1b      	ldr	r3, [r3, #48]	; 0x30
 8004aa0:	4a26      	ldr	r2, [pc, #152]	; (8004b3c <HAL_TIM_PWM_Start_DMA+0x1fc>)
 8004aa2:	63da      	str	r2, [r3, #60]	; 0x3c
 8004aa4:	68fb      	ldr	r3, [r7, #12]
 8004aa6:	6b1b      	ldr	r3, [r3, #48]	; 0x30
 8004aa8:	4a25      	ldr	r2, [pc, #148]	; (8004b40 <HAL_TIM_PWM_Start_DMA+0x200>)
 8004aaa:	641a      	str	r2, [r3, #64]	; 0x40
 8004aac:	68fb      	ldr	r3, [r7, #12]
 8004aae:	6b1b      	ldr	r3, [r3, #48]	; 0x30
 8004ab0:	4a24      	ldr	r2, [pc, #144]	; (8004b44 <HAL_TIM_PWM_Start_DMA+0x204>)
 8004ab2:	64da      	str	r2, [r3, #76]	; 0x4c
 8004ab4:	68fb      	ldr	r3, [r7, #12]
 8004ab6:	6b18      	ldr	r0, [r3, #48]	; 0x30
 8004ab8:	6879      	ldr	r1, [r7, #4]
 8004aba:	68fb      	ldr	r3, [r7, #12]
 8004abc:	681b      	ldr	r3, [r3, #0]
 8004abe:	3340      	adds	r3, #64	; 0x40
 8004ac0:	461a      	mov	r2, r3
 8004ac2:	887b      	ldrh	r3, [r7, #2]
 8004ac4:	f7fe f8b4 	bl	8002c30 <HAL_DMA_Start_IT>
 8004ac8:	4603      	mov	r3, r0
 8004aca:	2b00      	cmp	r3, #0
 8004acc:	d001      	beq.n	8004ad2 <HAL_TIM_PWM_Start_DMA+0x192>
 8004ace:	2301      	movs	r3, #1
 8004ad0:	e02f      	b.n	8004b32 <HAL_TIM_PWM_Start_DMA+0x1f2>
 8004ad2:	68fb      	ldr	r3, [r7, #12]
 8004ad4:	681b      	ldr	r3, [r3, #0]
 8004ad6:	68da      	ldr	r2, [r3, #12]
 8004ad8:	68fb      	ldr	r3, [r7, #12]
 8004ada:	681b      	ldr	r3, [r3, #0]
 8004adc:	f442 5280 	orr.w	r2, r2, #4096	; 0x1000
 8004ae0:	60da      	str	r2, [r3, #12]
 8004ae2:	e000      	b.n	8004ae6 <HAL_TIM_PWM_Start_DMA+0x1a6>
 8004ae4:	bf00      	nop
 8004ae6:	68fb      	ldr	r3, [r7, #12]
 8004ae8:	681b      	ldr	r3, [r3, #0]
 8004aea:	2201      	movs	r2, #1
 8004aec:	68b9      	ldr	r1, [r7, #8]
 8004aee:	4618      	mov	r0, r3
 8004af0:	f000 fcc4 	bl	800547c <TIM_CCxChannelCmd>
 8004af4:	68fb      	ldr	r3, [r7, #12]
 8004af6:	681b      	ldr	r3, [r3, #0]
 8004af8:	4a13      	ldr	r2, [pc, #76]	; (8004b48 <HAL_TIM_PWM_Start_DMA+0x208>)
 8004afa:	4293      	cmp	r3, r2
 8004afc:	d107      	bne.n	8004b0e <HAL_TIM_PWM_Start_DMA+0x1ce>
 8004afe:	68fb      	ldr	r3, [r7, #12]
 8004b00:	681b      	ldr	r3, [r3, #0]
 8004b02:	6c5a      	ldr	r2, [r3, #68]	; 0x44
 8004b04:	68fb      	ldr	r3, [r7, #12]
 8004b06:	681b      	ldr	r3, [r3, #0]
 8004b08:	f442 4200 	orr.w	r2, r2, #32768	; 0x8000
 8004b0c:	645a      	str	r2, [r3, #68]	; 0x44
 8004b0e:	68fb      	ldr	r3, [r7, #12]
 8004b10:	681b      	ldr	r3, [r3, #0]
 8004b12:	689b      	ldr	r3, [r3, #8]
 8004b14:	f003 0307 	and.w	r3, r3, #7
 8004b18:	617b      	str	r3, [r7, #20]
 8004b1a:	697b      	ldr	r3, [r7, #20]
 8004b1c:	2b06      	cmp	r3, #6
 8004b1e:	d007      	beq.n	8004b30 <HAL_TIM_PWM_Start_DMA+0x1f0>
 8004b20:	68fb      	ldr	r3, [r7, #12]
 8004b22:	681b      	ldr	r3, [r3, #0]
 8004b24:	681a      	ldr	r2, [r3, #0]
 8004b26:	68fb      	ldr	r3, [r7, #12]
 8004b28:	681b      	ldr	r3, [r3, #0]
 8004b2a:	f042 0201 	orr.w	r2, r2, #1
 8004b2e:	601a      	str	r2, [r3, #0]
 8004b30:	2300      	movs	r3, #0
 8004b32:	4618      	mov	r0, r3
 8004b34:	3718      	adds	r7, #24
 8004b36:	46bd      	mov	sp, r7
 8004b38:	bd80      	pop	{r7, pc}
 8004b3a:	bf00      	nop
 8004b3c:	08004f85 	.word	0x08004f85
 8004b40:	08004ff5 	.word	0x08004ff5
 8004b44:	08004f61 	.word	0x08004f61
 8004b48:	40010000 	.word	0x40010000

08004b4c <HAL_TIM_IRQHandler>:
 8004b4c:	b580      	push	{r7, lr}
 8004b4e:	b082      	sub	sp, #8
 8004b50:	af00      	add	r7, sp, #0
 8004b52:	6078      	str	r0, [r7, #4]
 8004b54:	687b      	ldr	r3, [r7, #4]
 8004b56:	681b      	ldr	r3, [r3, #0]
 8004b58:	691b      	ldr	r3, [r3, #16]
 8004b5a:	f003 0302 	and.w	r3, r3, #2
 8004b5e:	2b02      	cmp	r3, #2
 8004b60:	d122      	bne.n	8004ba8 <HAL_TIM_IRQHandler+0x5c>
 8004b62:	687b      	ldr	r3, [r7, #4]
 8004b64:	681b      	ldr	r3, [r3, #0]
 8004b66:	68db      	ldr	r3, [r3, #12]
 8004b68:	f003 0302 	and.w	r3, r3, #2
 8004b6c:	2b02      	cmp	r3, #2
 8004b6e:	d11b      	bne.n	8004ba8 <HAL_TIM_IRQHandler+0x5c>
 8004b70:	687b      	ldr	r3, [r7, #4]
 8004b72:	681b      	ldr	r3, [r3, #0]
 8004b74:	f06f 0202 	mvn.w	r2, #2
 8004b78:	611a      	str	r2, [r3, #16]
 8004b7a:	687b      	ldr	r3, [r7, #4]
 8004b7c:	2201      	movs	r2, #1
 8004b7e:	771a      	strb	r2, [r3, #28]
 8004b80:	687b      	ldr	r3, [r7, #4]
 8004b82:	681b      	ldr	r3, [r3, #0]
 8004b84:	699b      	ldr	r3, [r3, #24]
 8004b86:	f003 0303 	and.w	r3, r3, #3
 8004b8a:	2b00      	cmp	r3, #0
 8004b8c:	d003      	beq.n	8004b96 <HAL_TIM_IRQHandler+0x4a>
 8004b8e:	6878      	ldr	r0, [r7, #4]
 8004b90:	f000 f9b4 	bl	8004efc <HAL_TIM_IC_CaptureCallback>
 8004b94:	e005      	b.n	8004ba2 <HAL_TIM_IRQHandler+0x56>
 8004b96:	6878      	ldr	r0, [r7, #4]
 8004b98:	f000 f9a6 	bl	8004ee8 <HAL_TIM_OC_DelayElapsedCallback>
 8004b9c:	6878      	ldr	r0, [r7, #4]
 8004b9e:	f000 f9b7 	bl	8004f10 <HAL_TIM_PWM_PulseFinishedCallback>
 8004ba2:	687b      	ldr	r3, [r7, #4]
 8004ba4:	2200      	movs	r2, #0
 8004ba6:	771a      	strb	r2, [r3, #28]
 8004ba8:	687b      	ldr	r3, [r7, #4]
 8004baa:	681b      	ldr	r3, [r3, #0]
 8004bac:	691b      	ldr	r3, [r3, #16]
 8004bae:	f003 0304 	and.w	r3, r3, #4
 8004bb2:	2b04      	cmp	r3, #4
 8004bb4:	d122      	bne.n	8004bfc <HAL_TIM_IRQHandler+0xb0>
 8004bb6:	687b      	ldr	r3, [r7, #4]
 8004bb8:	681b      	ldr	r3, [r3, #0]
 8004bba:	68db      	ldr	r3, [r3, #12]
 8004bbc:	f003 0304 	and.w	r3, r3, #4
 8004bc0:	2b04      	cmp	r3, #4
 8004bc2:	d11b      	bne.n	8004bfc <HAL_TIM_IRQHandler+0xb0>
 8004bc4:	687b      	ldr	r3, [r7, #4]
 8004bc6:	681b      	ldr	r3, [r3, #0]
 8004bc8:	f06f 0204 	mvn.w	r2, #4
 8004bcc:	611a      	str	r2, [r3, #16]
 8004bce:	687b      	ldr	r3, [r7, #4]
 8004bd0:	2202      	movs	r2, #2
 8004bd2:	771a      	strb	r2, [r3, #28]
 8004bd4:	687b      	ldr	r3, [r7, #4]
 8004bd6:	681b      	ldr	r3, [r3, #0]
 8004bd8:	699b      	ldr	r3, [r3, #24]
 8004bda:	f403 7340 	and.w	r3, r3, #768	; 0x300
 8004bde:	2b00      	cmp	r3, #0
 8004be0:	d003      	beq.n	8004bea <HAL_TIM_IRQHandler+0x9e>
 8004be2:	6878      	ldr	r0, [r7, #4]
 8004be4:	f000 f98a 	bl	8004efc <HAL_TIM_IC_CaptureCallback>
 8004be8:	e005      	b.n	8004bf6 <HAL_TIM_IRQHandler+0xaa>
 8004bea:	6878      	ldr	r0, [r7, #4]
 8004bec:	f000 f97c 	bl	8004ee8 <HAL_TIM_OC_DelayElapsedCallback>
 8004bf0:	6878      	ldr	r0, [r7, #4]
 8004bf2:	f000 f98d 	bl	8004f10 <HAL_TIM_PWM_PulseFinishedCallback>
 8004bf6:	687b      	ldr	r3, [r7, #4]
 8004bf8:	2200      	movs	r2, #0
 8004bfa:	771a      	strb	r2, [r3, #28]
 8004bfc:	687b      	ldr	r3, [r7, #4]
 8004bfe:	681b      	ldr	r3, [r3, #0]
 8004c00:	691b      	ldr	r3, [r3, #16]
 8004c02:	f003 0308 	and.w	r3, r3, #8
 8004c06:	2b08      	cmp	r3, #8
 8004c08:	d122      	bne.n	8004c50 <HAL_TIM_IRQHandler+0x104>
 8004c0a:	687b      	ldr	r3, [r7, #4]
 8004c0c:	681b      	ldr	r3, [r3, #0]
 8004c0e:	68db      	ldr	r3, [r3, #12]
 8004c10:	f003 0308 	and.w	r3, r3, #8
 8004c14:	2b08      	cmp	r3, #8
 8004c16:	d11b      	bne.n	8004c50 <HAL_TIM_IRQHandler+0x104>
 8004c18:	687b      	ldr	r3, [r7, #4]
 8004c1a:	681b      	ldr	r3, [r3, #0]
 8004c1c:	f06f 0208 	mvn.w	r2, #8
 8004c20:	611a      	str	r2, [r3, #16]
 8004c22:	687b      	ldr	r3, [r7, #4]
 8004c24:	2204      	movs	r2, #4
 8004c26:	771a      	strb	r2, [r3, #28]
 8004c28:	687b      	ldr	r3, [r7, #4]
 8004c2a:	681b      	ldr	r3, [r3, #0]
 8004c2c:	69db      	ldr	r3, [r3, #28]
 8004c2e:	f003 0303 	and.w	r3, r3, #3
 8004c32:	2b00      	cmp	r3, #0
 8004c34:	d003      	beq.n	8004c3e <HAL_TIM_IRQHandler+0xf2>
 8004c36:	6878      	ldr	r0, [r7, #4]
 8004c38:	f000 f960 	bl	8004efc <HAL_TIM_IC_CaptureCallback>
 8004c3c:	e005      	b.n	8004c4a <HAL_TIM_IRQHandler+0xfe>
 8004c3e:	6878      	ldr	r0, [r7, #4]
 8004c40:	f000 f952 	bl	8004ee8 <HAL_TIM_OC_DelayElapsedCallback>
 8004c44:	6878      	ldr	r0, [r7, #4]
 8004c46:	f000 f963 	bl	8004f10 <HAL_TIM_PWM_PulseFinishedCallback>
 8004c4a:	687b      	ldr	r3, [r7, #4]
 8004c4c:	2200      	movs	r2, #0
 8004c4e:	771a      	strb	r2, [r3, #28]
 8004c50:	687b      	ldr	r3, [r7, #4]
 8004c52:	681b      	ldr	r3, [r3, #0]
 8004c54:	691b      	ldr	r3, [r3, #16]
 8004c56:	f003 0310 	and.w	r3, r3, #16
 8004c5a:	2b10      	cmp	r3, #16
 8004c5c:	d122      	bne.n	8004ca4 <HAL_TIM_IRQHandler+0x158>
 8004c5e:	687b      	ldr	r3, [r7, #4]
 8004c60:	681b      	ldr	r3, [r3, #0]
 8004c62:	68db      	ldr	r3, [r3, #12]
 8004c64:	f003 0310 	and.w	r3, r3, #16
 8004c68:	2b10      	cmp	r3, #16
 8004c6a:	d11b      	bne.n	8004ca4 <HAL_TIM_IRQHandler+0x158>
 8004c6c:	687b      	ldr	r3, [r7, #4]
 8004c6e:	681b      	ldr	r3, [r3, #0]
 8004c70:	f06f 0210 	mvn.w	r2, #16
 8004c74:	611a      	str	r2, [r3, #16]
 8004c76:	687b      	ldr	r3, [r7, #4]
 8004c78:	2208      	movs	r2, #8
 8004c7a:	771a      	strb	r2, [r3, #28]
 8004c7c:	687b      	ldr	r3, [r7, #4]
 8004c7e:	681b      	ldr	r3, [r3, #0]
 8004c80:	69db      	ldr	r3, [r3, #28]
 8004c82:	f403 7340 	and.w	r3, r3, #768	; 0x300
 8004c86:	2b00      	cmp	r3, #0
 8004c88:	d003      	beq.n	8004c92 <HAL_TIM_IRQHandler+0x146>
 8004c8a:	6878      	ldr	r0, [r7, #4]
 8004c8c:	f000 f936 	bl	8004efc <HAL_TIM_IC_CaptureCallback>
 8004c90:	e005      	b.n	8004c9e <HAL_TIM_IRQHandler+0x152>
 8004c92:	6878      	ldr	r0, [r7, #4]
 8004c94:	f000 f928 	bl	8004ee8 <HAL_TIM_OC_DelayElapsedCallback>
 8004c98:	6878      	ldr	r0, [r7, #4]
 8004c9a:	f000 f939 	bl	8004f10 <HAL_TIM_PWM_PulseFinishedCallback>
 8004c9e:	687b      	ldr	r3, [r7, #4]
 8004ca0:	2200      	movs	r2, #0
 8004ca2:	771a      	strb	r2, [r3, #28]
 8004ca4:	687b      	ldr	r3, [r7, #4]
 8004ca6:	681b      	ldr	r3, [r3, #0]
 8004ca8:	691b      	ldr	r3, [r3, #16]
 8004caa:	f003 0301 	and.w	r3, r3, #1
 8004cae:	2b01      	cmp	r3, #1
 8004cb0:	d10e      	bne.n	8004cd0 <HAL_TIM_IRQHandler+0x184>
 8004cb2:	687b      	ldr	r3, [r7, #4]
 8004cb4:	681b      	ldr	r3, [r3, #0]
 8004cb6:	68db      	ldr	r3, [r3, #12]
 8004cb8:	f003 0301 	and.w	r3, r3, #1
 8004cbc:	2b01      	cmp	r3, #1
 8004cbe:	d107      	bne.n	8004cd0 <HAL_TIM_IRQHandler+0x184>
 8004cc0:	687b      	ldr	r3, [r7, #4]
 8004cc2:	681b      	ldr	r3, [r3, #0]
 8004cc4:	f06f 0201 	mvn.w	r2, #1
 8004cc8:	611a      	str	r2, [r3, #16]
 8004cca:	6878      	ldr	r0, [r7, #4]
 8004ccc:	f7fc ff0a 	bl	8001ae4 <HAL_TIM_PeriodElapsedCallback>
 8004cd0:	687b      	ldr	r3, [r7, #4]
 8004cd2:	681b      	ldr	r3, [r3, #0]
 8004cd4:	691b      	ldr	r3, [r3, #16]
 8004cd6:	f003 0380 	and.w	r3, r3, #128	; 0x80
 8004cda:	2b80      	cmp	r3, #128	; 0x80
 8004cdc:	d10e      	bne.n	8004cfc <HAL_TIM_IRQHandler+0x1b0>
 8004cde:	687b      	ldr	r3, [r7, #4]
 8004ce0:	681b      	ldr	r3, [r3, #0]
 8004ce2:	68db      	ldr	r3, [r3, #12]
 8004ce4:	f003 0380 	and.w	r3, r3, #128	; 0x80
 8004ce8:	2b80      	cmp	r3, #128	; 0x80
 8004cea:	d107      	bne.n	8004cfc <HAL_TIM_IRQHandler+0x1b0>
 8004cec:	687b      	ldr	r3, [r7, #4]
 8004cee:	681b      	ldr	r3, [r3, #0]
 8004cf0:	f06f 0280 	mvn.w	r2, #128	; 0x80
 8004cf4:	611a      	str	r2, [r3, #16]
 8004cf6:	6878      	ldr	r0, [r7, #4]
 8004cf8:	f000 fc5e 	bl	80055b8 <HAL_TIMEx_BreakCallback>
 8004cfc:	687b      	ldr	r3, [r7, #4]
 8004cfe:	681b      	ldr	r3, [r3, #0]
 8004d00:	691b      	ldr	r3, [r3, #16]
 8004d02:	f003 0340 	and.w	r3, r3, #64	; 0x40
 8004d06:	2b40      	cmp	r3, #64	; 0x40
 8004d08:	d10e      	bne.n	8004d28 <HAL_TIM_IRQHandler+0x1dc>
 8004d0a:	687b      	ldr	r3, [r7, #4]
 8004d0c:	681b      	ldr	r3, [r3, #0]
 8004d0e:	68db      	ldr	r3, [r3, #12]
 8004d10:	f003 0340 	and.w	r3, r3, #64	; 0x40
 8004d14:	2b40      	cmp	r3, #64	; 0x40
 8004d16:	d107      	bne.n	8004d28 <HAL_TIM_IRQHandler+0x1dc>
 8004d18:	687b      	ldr	r3, [r7, #4]
 8004d1a:	681b      	ldr	r3, [r3, #0]
 8004d1c:	f06f 0240 	mvn.w	r2, #64	; 0x40
 8004d20:	611a      	str	r2, [r3, #16]
 8004d22:	6878      	ldr	r0, [r7, #4]
 8004d24:	f000 f908 	bl	8004f38 <HAL_TIM_TriggerCallback>
 8004d28:	687b      	ldr	r3, [r7, #4]
 8004d2a:	681b      	ldr	r3, [r3, #0]
 8004d2c:	691b      	ldr	r3, [r3, #16]
 8004d2e:	f003 0320 	and.w	r3, r3, #32
 8004d32:	2b20      	cmp	r3, #32
 8004d34:	d10e      	bne.n	8004d54 <HAL_TIM_IRQHandler+0x208>
 8004d36:	687b      	ldr	r3, [r7, #4]
 8004d38:	681b      	ldr	r3, [r3, #0]
 8004d3a:	68db      	ldr	r3, [r3, #12]
 8004d3c:	f003 0320 	and.w	r3, r3, #32
 8004d40:	2b20      	cmp	r3, #32
 8004d42:	d107      	bne.n	8004d54 <HAL_TIM_IRQHandler+0x208>
 8004d44:	687b      	ldr	r3, [r7, #4]
 8004d46:	681b      	ldr	r3, [r3, #0]
 8004d48:	f06f 0220 	mvn.w	r2, #32
 8004d4c:	611a      	str	r2, [r3, #16]
 8004d4e:	6878      	ldr	r0, [r7, #4]
 8004d50:	f000 fc28 	bl	80055a4 <HAL_TIMEx_CommutCallback>
 8004d54:	bf00      	nop
 8004d56:	3708      	adds	r7, #8
 8004d58:	46bd      	mov	sp, r7
 8004d5a:	bd80      	pop	{r7, pc}

08004d5c <HAL_TIM_PWM_ConfigChannel>:
 8004d5c:	b580      	push	{r7, lr}
 8004d5e:	b084      	sub	sp, #16
 8004d60:	af00      	add	r7, sp, #0
 8004d62:	60f8      	str	r0, [r7, #12]
 8004d64:	60b9      	str	r1, [r7, #8]
 8004d66:	607a      	str	r2, [r7, #4]
 8004d68:	68fb      	ldr	r3, [r7, #12]
 8004d6a:	f893 303c 	ldrb.w	r3, [r3, #60]	; 0x3c
 8004d6e:	2b01      	cmp	r3, #1
 8004d70:	d101      	bne.n	8004d76 <HAL_TIM_PWM_ConfigChannel+0x1a>
 8004d72:	2302      	movs	r3, #2
 8004d74:	e0b4      	b.n	8004ee0 <HAL_TIM_PWM_ConfigChannel+0x184>
 8004d76:	68fb      	ldr	r3, [r7, #12]
 8004d78:	2201      	movs	r2, #1
 8004d7a:	f883 203c 	strb.w	r2, [r3, #60]	; 0x3c
 8004d7e:	68fb      	ldr	r3, [r7, #12]
 8004d80:	2202      	movs	r2, #2
 8004d82:	f883 203d 	strb.w	r2, [r3, #61]	; 0x3d
 8004d86:	687b      	ldr	r3, [r7, #4]
 8004d88:	2b0c      	cmp	r3, #12
 8004d8a:	f200 809f 	bhi.w	8004ecc <HAL_TIM_PWM_ConfigChannel+0x170>
 8004d8e:	a201      	add	r2, pc, #4	; (adr r2, 8004d94 <HAL_TIM_PWM_ConfigChannel+0x38>)
 8004d90:	f852 f023 	ldr.w	pc, [r2, r3, lsl #2]
 8004d94:	08004dc9 	.word	0x08004dc9
 8004d98:	08004ecd 	.word	0x08004ecd
 8004d9c:	08004ecd 	.word	0x08004ecd
 8004da0:	08004ecd 	.word	0x08004ecd
 8004da4:	08004e09 	.word	0x08004e09
 8004da8:	08004ecd 	.word	0x08004ecd
 8004dac:	08004ecd 	.word	0x08004ecd
 8004db0:	08004ecd 	.word	0x08004ecd
 8004db4:	08004e4b 	.word	0x08004e4b
 8004db8:	08004ecd 	.word	0x08004ecd
 8004dbc:	08004ecd 	.word	0x08004ecd
 8004dc0:	08004ecd 	.word	0x08004ecd
 8004dc4:	08004e8b 	.word	0x08004e8b
 8004dc8:	68fb      	ldr	r3, [r7, #12]
 8004dca:	681b      	ldr	r3, [r3, #0]
 8004dcc:	68b9      	ldr	r1, [r7, #8]
 8004dce:	4618      	mov	r0, r3
 8004dd0:	f000 f9c8 	bl	8005164 <TIM_OC1_SetConfig>
 8004dd4:	68fb      	ldr	r3, [r7, #12]
 8004dd6:	681b      	ldr	r3, [r3, #0]
 8004dd8:	699a      	ldr	r2, [r3, #24]
 8004dda:	68fb      	ldr	r3, [r7, #12]
 8004ddc:	681b      	ldr	r3, [r3, #0]
 8004dde:	f042 0208 	orr.w	r2, r2, #8
 8004de2:	619a      	str	r2, [r3, #24]
 8004de4:	68fb      	ldr	r3, [r7, #12]
 8004de6:	681b      	ldr	r3, [r3, #0]
 8004de8:	699a      	ldr	r2, [r3, #24]
 8004dea:	68fb      	ldr	r3, [r7, #12]
 8004dec:	681b      	ldr	r3, [r3, #0]
 8004dee:	f022 0204 	bic.w	r2, r2, #4
 8004df2:	619a      	str	r2, [r3, #24]
 8004df4:	68fb      	ldr	r3, [r7, #12]
 8004df6:	681b      	ldr	r3, [r3, #0]
 8004df8:	6999      	ldr	r1, [r3, #24]
 8004dfa:	68bb      	ldr	r3, [r7, #8]
 8004dfc:	691a      	ldr	r2, [r3, #16]
 8004dfe:	68fb      	ldr	r3, [r7, #12]
 8004e00:	681b      	ldr	r3, [r3, #0]
 8004e02:	430a      	orrs	r2, r1
 8004e04:	619a      	str	r2, [r3, #24]
 8004e06:	e062      	b.n	8004ece <HAL_TIM_PWM_ConfigChannel+0x172>
 8004e08:	68fb      	ldr	r3, [r7, #12]
 8004e0a:	681b      	ldr	r3, [r3, #0]
 8004e0c:	68b9      	ldr	r1, [r7, #8]
 8004e0e:	4618      	mov	r0, r3
 8004e10:	f000 fa0e 	bl	8005230 <TIM_OC2_SetConfig>
 8004e14:	68fb      	ldr	r3, [r7, #12]
 8004e16:	681b      	ldr	r3, [r3, #0]
 8004e18:	699a      	ldr	r2, [r3, #24]
 8004e1a:	68fb      	ldr	r3, [r7, #12]
 8004e1c:	681b      	ldr	r3, [r3, #0]
 8004e1e:	f442 6200 	orr.w	r2, r2, #2048	; 0x800
 8004e22:	619a      	str	r2, [r3, #24]
 8004e24:	68fb      	ldr	r3, [r7, #12]
 8004e26:	681b      	ldr	r3, [r3, #0]
 8004e28:	699a      	ldr	r2, [r3, #24]
 8004e2a:	68fb      	ldr	r3, [r7, #12]
 8004e2c:	681b      	ldr	r3, [r3, #0]
 8004e2e:	f422 6280 	bic.w	r2, r2, #1024	; 0x400
 8004e32:	619a      	str	r2, [r3, #24]
 8004e34:	68fb      	ldr	r3, [r7, #12]
 8004e36:	681b      	ldr	r3, [r3, #0]
 8004e38:	6999      	ldr	r1, [r3, #24]
 8004e3a:	68bb      	ldr	r3, [r7, #8]
 8004e3c:	691b      	ldr	r3, [r3, #16]
 8004e3e:	021a      	lsls	r2, r3, #8
 8004e40:	68fb      	ldr	r3, [r7, #12]
 8004e42:	681b      	ldr	r3, [r3, #0]
 8004e44:	430a      	orrs	r2, r1
 8004e46:	619a      	str	r2, [r3, #24]
 8004e48:	e041      	b.n	8004ece <HAL_TIM_PWM_ConfigChannel+0x172>
 8004e4a:	68fb      	ldr	r3, [r7, #12]
 8004e4c:	681b      	ldr	r3, [r3, #0]
 8004e4e:	68b9      	ldr	r1, [r7, #8]
 8004e50:	4618      	mov	r0, r3
 8004e52:	f000 fa59 	bl	8005308 <TIM_OC3_SetConfig>
 8004e56:	68fb      	ldr	r3, [r7, #12]
 8004e58:	681b      	ldr	r3, [r3, #0]
 8004e5a:	69da      	ldr	r2, [r3, #28]
 8004e5c:	68fb      	ldr	r3, [r7, #12]
 8004e5e:	681b      	ldr	r3, [r3, #0]
 8004e60:	f042 0208 	orr.w	r2, r2, #8
 8004e64:	61da      	str	r2, [r3, #28]
 8004e66:	68fb      	ldr	r3, [r7, #12]
 8004e68:	681b      	ldr	r3, [r3, #0]
 8004e6a:	69da      	ldr	r2, [r3, #28]
 8004e6c:	68fb      	ldr	r3, [r7, #12]
 8004e6e:	681b      	ldr	r3, [r3, #0]
 8004e70:	f022 0204 	bic.w	r2, r2, #4
 8004e74:	61da      	str	r2, [r3, #28]
 8004e76:	68fb      	ldr	r3, [r7, #12]
 8004e78:	681b      	ldr	r3, [r3, #0]
 8004e7a:	69d9      	ldr	r1, [r3, #28]
 8004e7c:	68bb      	ldr	r3, [r7, #8]
 8004e7e:	691a      	ldr	r2, [r3, #16]
 8004e80:	68fb      	ldr	r3, [r7, #12]
 8004e82:	681b      	ldr	r3, [r3, #0]
 8004e84:	430a      	orrs	r2, r1
 8004e86:	61da      	str	r2, [r3, #28]
 8004e88:	e021      	b.n	8004ece <HAL_TIM_PWM_ConfigChannel+0x172>
 8004e8a:	68fb      	ldr	r3, [r7, #12]
 8004e8c:	681b      	ldr	r3, [r3, #0]
 8004e8e:	68b9      	ldr	r1, [r7, #8]
 8004e90:	4618      	mov	r0, r3
 8004e92:	f000 faa3 	bl	80053dc <TIM_OC4_SetConfig>
 8004e96:	68fb      	ldr	r3, [r7, #12]
 8004e98:	681b      	ldr	r3, [r3, #0]
 8004e9a:	69da      	ldr	r2, [r3, #28]
 8004e9c:	68fb      	ldr	r3, [r7, #12]
 8004e9e:	681b      	ldr	r3, [r3, #0]
 8004ea0:	f442 6200 	orr.w	r2, r2, #2048	; 0x800
 8004ea4:	61da      	str	r2, [r3, #28]
 8004ea6:	68fb      	ldr	r3, [r7, #12]
 8004ea8:	681b      	ldr	r3, [r3, #0]
 8004eaa:	69da      	ldr	r2, [r3, #28]
 8004eac:	68fb      	ldr	r3, [r7, #12]
 8004eae:	681b      	ldr	r3, [r3, #0]
 8004eb0:	f422 6280 	bic.w	r2, r2, #1024	; 0x400
 8004eb4:	61da      	str	r2, [r3, #28]
 8004eb6:	68fb      	ldr	r3, [r7, #12]
 8004eb8:	681b      	ldr	r3, [r3, #0]
 8004eba:	69d9      	ldr	r1, [r3, #28]
 8004ebc:	68bb      	ldr	r3, [r7, #8]
 8004ebe:	691b      	ldr	r3, [r3, #16]
 8004ec0:	021a      	lsls	r2, r3, #8
 8004ec2:	68fb      	ldr	r3, [r7, #12]
 8004ec4:	681b      	ldr	r3, [r3, #0]
 8004ec6:	430a      	orrs	r2, r1
 8004ec8:	61da      	str	r2, [r3, #28]
 8004eca:	e000      	b.n	8004ece <HAL_TIM_PWM_ConfigChannel+0x172>
 8004ecc:	bf00      	nop
 8004ece:	68fb      	ldr	r3, [r7, #12]
 8004ed0:	2201      	movs	r2, #1
 8004ed2:	f883 203d 	strb.w	r2, [r3, #61]	; 0x3d
 8004ed6:	68fb      	ldr	r3, [r7, #12]
 8004ed8:	2200      	movs	r2, #0
 8004eda:	f883 203c 	strb.w	r2, [r3, #60]	; 0x3c
 8004ede:	2300      	movs	r3, #0
 8004ee0:	4618      	mov	r0, r3
 8004ee2:	3710      	adds	r7, #16
 8004ee4:	46bd      	mov	sp, r7
 8004ee6:	bd80      	pop	{r7, pc}

08004ee8 <HAL_TIM_OC_DelayElapsedCallback>:
 8004ee8:	b480      	push	{r7}
 8004eea:	b083      	sub	sp, #12
 8004eec:	af00      	add	r7, sp, #0
 8004eee:	6078      	str	r0, [r7, #4]
 8004ef0:	bf00      	nop
 8004ef2:	370c      	adds	r7, #12
 8004ef4:	46bd      	mov	sp, r7
 8004ef6:	f85d 7b04 	ldr.w	r7, [sp], #4
 8004efa:	4770      	bx	lr

08004efc <HAL_TIM_IC_CaptureCallback>:
 8004efc:	b480      	push	{r7}
 8004efe:	b083      	sub	sp, #12
 8004f00:	af00      	add	r7, sp, #0
 8004f02:	6078      	str	r0, [r7, #4]
 8004f04:	bf00      	nop
 8004f06:	370c      	adds	r7, #12
 8004f08:	46bd      	mov	sp, r7
 8004f0a:	f85d 7b04 	ldr.w	r7, [sp], #4
 8004f0e:	4770      	bx	lr

08004f10 <HAL_TIM_PWM_PulseFinishedCallback>:
 8004f10:	b480      	push	{r7}
 8004f12:	b083      	sub	sp, #12
 8004f14:	af00      	add	r7, sp, #0
 8004f16:	6078      	str	r0, [r7, #4]
 8004f18:	bf00      	nop
 8004f1a:	370c      	adds	r7, #12
 8004f1c:	46bd      	mov	sp, r7
 8004f1e:	f85d 7b04 	ldr.w	r7, [sp], #4
 8004f22:	4770      	bx	lr

08004f24 <HAL_TIM_PWM_PulseFinishedHalfCpltCallback>:
 8004f24:	b480      	push	{r7}
 8004f26:	b083      	sub	sp, #12
 8004f28:	af00      	add	r7, sp, #0
 8004f2a:	6078      	str	r0, [r7, #4]
 8004f2c:	bf00      	nop
 8004f2e:	370c      	adds	r7, #12
 8004f30:	46bd      	mov	sp, r7
 8004f32:	f85d 7b04 	ldr.w	r7, [sp], #4
 8004f36:	4770      	bx	lr

08004f38 <HAL_TIM_TriggerCallback>:
 8004f38:	b480      	push	{r7}
 8004f3a:	b083      	sub	sp, #12
 8004f3c:	af00      	add	r7, sp, #0
 8004f3e:	6078      	str	r0, [r7, #4]
 8004f40:	bf00      	nop
 8004f42:	370c      	adds	r7, #12
 8004f44:	46bd      	mov	sp, r7
 8004f46:	f85d 7b04 	ldr.w	r7, [sp], #4
 8004f4a:	4770      	bx	lr

08004f4c <HAL_TIM_ErrorCallback>:
 8004f4c:	b480      	push	{r7}
 8004f4e:	b083      	sub	sp, #12
 8004f50:	af00      	add	r7, sp, #0
 8004f52:	6078      	str	r0, [r7, #4]
 8004f54:	bf00      	nop
 8004f56:	370c      	adds	r7, #12
 8004f58:	46bd      	mov	sp, r7
 8004f5a:	f85d 7b04 	ldr.w	r7, [sp], #4
 8004f5e:	4770      	bx	lr

08004f60 <TIM_DMAError>:
 8004f60:	b580      	push	{r7, lr}
 8004f62:	b084      	sub	sp, #16
 8004f64:	af00      	add	r7, sp, #0
 8004f66:	6078      	str	r0, [r7, #4]
 8004f68:	687b      	ldr	r3, [r7, #4]
 8004f6a:	6b9b      	ldr	r3, [r3, #56]	; 0x38
 8004f6c:	60fb      	str	r3, [r7, #12]
 8004f6e:	68fb      	ldr	r3, [r7, #12]
 8004f70:	2201      	movs	r2, #1
 8004f72:	f883 203d 	strb.w	r2, [r3, #61]	; 0x3d
 8004f76:	68f8      	ldr	r0, [r7, #12]
 8004f78:	f7ff ffe8 	bl	8004f4c <HAL_TIM_ErrorCallback>
 8004f7c:	bf00      	nop
 8004f7e:	3710      	adds	r7, #16
 8004f80:	46bd      	mov	sp, r7
 8004f82:	bd80      	pop	{r7, pc}

08004f84 <TIM_DMADelayPulseCplt>:
 8004f84:	b580      	push	{r7, lr}
 8004f86:	b084      	sub	sp, #16
 8004f88:	af00      	add	r7, sp, #0
 8004f8a:	6078      	str	r0, [r7, #4]
 8004f8c:	687b      	ldr	r3, [r7, #4]
 8004f8e:	6b9b      	ldr	r3, [r3, #56]	; 0x38
 8004f90:	60fb      	str	r3, [r7, #12]
 8004f92:	68fb      	ldr	r3, [r7, #12]
 8004f94:	2201      	movs	r2, #1
 8004f96:	f883 203d 	strb.w	r2, [r3, #61]	; 0x3d
 8004f9a:	68fb      	ldr	r3, [r7, #12]
 8004f9c:	6a5b      	ldr	r3, [r3, #36]	; 0x24
 8004f9e:	687a      	ldr	r2, [r7, #4]
 8004fa0:	429a      	cmp	r2, r3
 8004fa2:	d103      	bne.n	8004fac <TIM_DMADelayPulseCplt+0x28>
 8004fa4:	68fb      	ldr	r3, [r7, #12]
 8004fa6:	2201      	movs	r2, #1
 8004fa8:	771a      	strb	r2, [r3, #28]
 8004faa:	e019      	b.n	8004fe0 <TIM_DMADelayPulseCplt+0x5c>
 8004fac:	68fb      	ldr	r3, [r7, #12]
 8004fae:	6a9b      	ldr	r3, [r3, #40]	; 0x28
 8004fb0:	687a      	ldr	r2, [r7, #4]
 8004fb2:	429a      	cmp	r2, r3
 8004fb4:	d103      	bne.n	8004fbe <TIM_DMADelayPulseCplt+0x3a>
 8004fb6:	68fb      	ldr	r3, [r7, #12]
 8004fb8:	2202      	movs	r2, #2
 8004fba:	771a      	strb	r2, [r3, #28]
 8004fbc:	e010      	b.n	8004fe0 <TIM_DMADelayPulseCplt+0x5c>
 8004fbe:	68fb      	ldr	r3, [r7, #12]
 8004fc0:	6adb      	ldr	r3, [r3, #44]	; 0x2c
 8004fc2:	687a      	ldr	r2, [r7, #4]
 8004fc4:	429a      	cmp	r2, r3
 8004fc6:	d103      	bne.n	8004fd0 <TIM_DMADelayPulseCplt+0x4c>
 8004fc8:	68fb      	ldr	r3, [r7, #12]
 8004fca:	2204      	movs	r2, #4
 8004fcc:	771a      	strb	r2, [r3, #28]
 8004fce:	e007      	b.n	8004fe0 <TIM_DMADelayPulseCplt+0x5c>
 8004fd0:	68fb      	ldr	r3, [r7, #12]
 8004fd2:	6b1b      	ldr	r3, [r3, #48]	; 0x30
 8004fd4:	687a      	ldr	r2, [r7, #4]
 8004fd6:	429a      	cmp	r2, r3
 8004fd8:	d102      	bne.n	8004fe0 <TIM_DMADelayPulseCplt+0x5c>
 8004fda:	68fb      	ldr	r3, [r7, #12]
 8004fdc:	2208      	movs	r2, #8
 8004fde:	771a      	strb	r2, [r3, #28]
 8004fe0:	68f8      	ldr	r0, [r7, #12]
 8004fe2:	f7ff ff95 	bl	8004f10 <HAL_TIM_PWM_PulseFinishedCallback>
 8004fe6:	68fb      	ldr	r3, [r7, #12]
 8004fe8:	2200      	movs	r2, #0
 8004fea:	771a      	strb	r2, [r3, #28]
 8004fec:	bf00      	nop
 8004fee:	3710      	adds	r7, #16
 8004ff0:	46bd      	mov	sp, r7
 8004ff2:	bd80      	pop	{r7, pc}

08004ff4 <TIM_DMADelayPulseHalfCplt>:
 8004ff4:	b580      	push	{r7, lr}
 8004ff6:	b084      	sub	sp, #16
 8004ff8:	af00      	add	r7, sp, #0
 8004ffa:	6078      	str	r0, [r7, #4]
 8004ffc:	687b      	ldr	r3, [r7, #4]
 8004ffe:	6b9b      	ldr	r3, [r3, #56]	; 0x38
 8005000:	60fb      	str	r3, [r7, #12]
 8005002:	68fb      	ldr	r3, [r7, #12]
 8005004:	2201      	movs	r2, #1
 8005006:	f883 203d 	strb.w	r2, [r3, #61]	; 0x3d
 800500a:	68fb      	ldr	r3, [r7, #12]
 800500c:	6a5b      	ldr	r3, [r3, #36]	; 0x24
 800500e:	687a      	ldr	r2, [r7, #4]
 8005010:	429a      	cmp	r2, r3
 8005012:	d103      	bne.n	800501c <TIM_DMADelayPulseHalfCplt+0x28>
 8005014:	68fb      	ldr	r3, [r7, #12]
 8005016:	2201      	movs	r2, #1
 8005018:	771a      	strb	r2, [r3, #28]
 800501a:	e019      	b.n	8005050 <TIM_DMADelayPulseHalfCplt+0x5c>
 800501c:	68fb      	ldr	r3, [r7, #12]
 800501e:	6a9b      	ldr	r3, [r3, #40]	; 0x28
 8005020:	687a      	ldr	r2, [r7, #4]
 8005022:	429a      	cmp	r2, r3
 8005024:	d103      	bne.n	800502e <TIM_DMADelayPulseHalfCplt+0x3a>
 8005026:	68fb      	ldr	r3, [r7, #12]
 8005028:	2202      	movs	r2, #2
 800502a:	771a      	strb	r2, [r3, #28]
 800502c:	e010      	b.n	8005050 <TIM_DMADelayPulseHalfCplt+0x5c>
 800502e:	68fb      	ldr	r3, [r7, #12]
 8005030:	6adb      	ldr	r3, [r3, #44]	; 0x2c
 8005032:	687a      	ldr	r2, [r7, #4]
 8005034:	429a      	cmp	r2, r3
 8005036:	d103      	bne.n	8005040 <TIM_DMADelayPulseHalfCplt+0x4c>
 8005038:	68fb      	ldr	r3, [r7, #12]
 800503a:	2204      	movs	r2, #4
 800503c:	771a      	strb	r2, [r3, #28]
 800503e:	e007      	b.n	8005050 <TIM_DMADelayPulseHalfCplt+0x5c>
 8005040:	68fb      	ldr	r3, [r7, #12]
 8005042:	6b1b      	ldr	r3, [r3, #48]	; 0x30
 8005044:	687a      	ldr	r2, [r7, #4]
 8005046:	429a      	cmp	r2, r3
 8005048:	d102      	bne.n	8005050 <TIM_DMADelayPulseHalfCplt+0x5c>
 800504a:	68fb      	ldr	r3, [r7, #12]
 800504c:	2208      	movs	r2, #8
 800504e:	771a      	strb	r2, [r3, #28]
 8005050:	68f8      	ldr	r0, [r7, #12]
 8005052:	f7ff ff67 	bl	8004f24 <HAL_TIM_PWM_PulseFinishedHalfCpltCallback>
 8005056:	68fb      	ldr	r3, [r7, #12]
 8005058:	2200      	movs	r2, #0
 800505a:	771a      	strb	r2, [r3, #28]
 800505c:	bf00      	nop
 800505e:	3710      	adds	r7, #16
 8005060:	46bd      	mov	sp, r7
 8005062:	bd80      	pop	{r7, pc}

08005064 <TIM_Base_SetConfig>:
 8005064:	b480      	push	{r7}
 8005066:	b085      	sub	sp, #20
 8005068:	af00      	add	r7, sp, #0
 800506a:	6078      	str	r0, [r7, #4]
 800506c:	6039      	str	r1, [r7, #0]
 800506e:	687b      	ldr	r3, [r7, #4]
 8005070:	681b      	ldr	r3, [r3, #0]
 8005072:	60fb      	str	r3, [r7, #12]
 8005074:	687b      	ldr	r3, [r7, #4]
 8005076:	4a34      	ldr	r2, [pc, #208]	; (8005148 <TIM_Base_SetConfig+0xe4>)
 8005078:	4293      	cmp	r3, r2
 800507a:	d00f      	beq.n	800509c <TIM_Base_SetConfig+0x38>
 800507c:	687b      	ldr	r3, [r7, #4]
 800507e:	f1b3 4f80 	cmp.w	r3, #1073741824	; 0x40000000
 8005082:	d00b      	beq.n	800509c <TIM_Base_SetConfig+0x38>
 8005084:	687b      	ldr	r3, [r7, #4]
 8005086:	4a31      	ldr	r2, [pc, #196]	; (800514c <TIM_Base_SetConfig+0xe8>)
 8005088:	4293      	cmp	r3, r2
 800508a:	d007      	beq.n	800509c <TIM_Base_SetConfig+0x38>
 800508c:	687b      	ldr	r3, [r7, #4]
 800508e:	4a30      	ldr	r2, [pc, #192]	; (8005150 <TIM_Base_SetConfig+0xec>)
 8005090:	4293      	cmp	r3, r2
 8005092:	d003      	beq.n	800509c <TIM_Base_SetConfig+0x38>
 8005094:	687b      	ldr	r3, [r7, #4]
 8005096:	4a2f      	ldr	r2, [pc, #188]	; (8005154 <TIM_Base_SetConfig+0xf0>)
 8005098:	4293      	cmp	r3, r2
 800509a:	d108      	bne.n	80050ae <TIM_Base_SetConfig+0x4a>
 800509c:	68fb      	ldr	r3, [r7, #12]
 800509e:	f023 0370 	bic.w	r3, r3, #112	; 0x70
 80050a2:	60fb      	str	r3, [r7, #12]
 80050a4:	683b      	ldr	r3, [r7, #0]
 80050a6:	685b      	ldr	r3, [r3, #4]
 80050a8:	68fa      	ldr	r2, [r7, #12]
 80050aa:	4313      	orrs	r3, r2
 80050ac:	60fb      	str	r3, [r7, #12]
 80050ae:	687b      	ldr	r3, [r7, #4]
 80050b0:	4a25      	ldr	r2, [pc, #148]	; (8005148 <TIM_Base_SetConfig+0xe4>)
 80050b2:	4293      	cmp	r3, r2
 80050b4:	d01b      	beq.n	80050ee <TIM_Base_SetConfig+0x8a>
 80050b6:	687b      	ldr	r3, [r7, #4]
 80050b8:	f1b3 4f80 	cmp.w	r3, #1073741824	; 0x40000000
 80050bc:	d017      	beq.n	80050ee <TIM_Base_SetConfig+0x8a>
 80050be:	687b      	ldr	r3, [r7, #4]
 80050c0:	4a22      	ldr	r2, [pc, #136]	; (800514c <TIM_Base_SetConfig+0xe8>)
 80050c2:	4293      	cmp	r3, r2
 80050c4:	d013      	beq.n	80050ee <TIM_Base_SetConfig+0x8a>
 80050c6:	687b      	ldr	r3, [r7, #4]
 80050c8:	4a21      	ldr	r2, [pc, #132]	; (8005150 <TIM_Base_SetConfig+0xec>)
 80050ca:	4293      	cmp	r3, r2
 80050cc:	d00f      	beq.n	80050ee <TIM_Base_SetConfig+0x8a>
 80050ce:	687b      	ldr	r3, [r7, #4]
 80050d0:	4a20      	ldr	r2, [pc, #128]	; (8005154 <TIM_Base_SetConfig+0xf0>)
 80050d2:	4293      	cmp	r3, r2
 80050d4:	d00b      	beq.n	80050ee <TIM_Base_SetConfig+0x8a>
 80050d6:	687b      	ldr	r3, [r7, #4]
 80050d8:	4a1f      	ldr	r2, [pc, #124]	; (8005158 <TIM_Base_SetConfig+0xf4>)
 80050da:	4293      	cmp	r3, r2
 80050dc:	d007      	beq.n	80050ee <TIM_Base_SetConfig+0x8a>
 80050de:	687b      	ldr	r3, [r7, #4]
 80050e0:	4a1e      	ldr	r2, [pc, #120]	; (800515c <TIM_Base_SetConfig+0xf8>)
 80050e2:	4293      	cmp	r3, r2
 80050e4:	d003      	beq.n	80050ee <TIM_Base_SetConfig+0x8a>
 80050e6:	687b      	ldr	r3, [r7, #4]
 80050e8:	4a1d      	ldr	r2, [pc, #116]	; (8005160 <TIM_Base_SetConfig+0xfc>)
 80050ea:	4293      	cmp	r3, r2
 80050ec:	d108      	bne.n	8005100 <TIM_Base_SetConfig+0x9c>
 80050ee:	68fb      	ldr	r3, [r7, #12]
 80050f0:	f423 7340 	bic.w	r3, r3, #768	; 0x300
 80050f4:	60fb      	str	r3, [r7, #12]
 80050f6:	683b      	ldr	r3, [r7, #0]
 80050f8:	68db      	ldr	r3, [r3, #12]
 80050fa:	68fa      	ldr	r2, [r7, #12]
 80050fc:	4313      	orrs	r3, r2
 80050fe:	60fb      	str	r3, [r7, #12]
 8005100:	68fb      	ldr	r3, [r7, #12]
 8005102:	f023 0280 	bic.w	r2, r3, #128	; 0x80
 8005106:	683b      	ldr	r3, [r7, #0]
 8005108:	695b      	ldr	r3, [r3, #20]
 800510a:	4313      	orrs	r3, r2
 800510c:	60fb      	str	r3, [r7, #12]
 800510e:	687b      	ldr	r3, [r7, #4]
 8005110:	68fa      	ldr	r2, [r7, #12]
 8005112:	601a      	str	r2, [r3, #0]
 8005114:	683b      	ldr	r3, [r7, #0]
 8005116:	689a      	ldr	r2, [r3, #8]
 8005118:	687b      	ldr	r3, [r7, #4]
 800511a:	62da      	str	r2, [r3, #44]	; 0x2c
 800511c:	683b      	ldr	r3, [r7, #0]
 800511e:	681a      	ldr	r2, [r3, #0]
 8005120:	687b      	ldr	r3, [r7, #4]
 8005122:	629a      	str	r2, [r3, #40]	; 0x28
 8005124:	687b      	ldr	r3, [r7, #4]
 8005126:	4a08      	ldr	r2, [pc, #32]	; (8005148 <TIM_Base_SetConfig+0xe4>)
 8005128:	4293      	cmp	r3, r2
 800512a:	d103      	bne.n	8005134 <TIM_Base_SetConfig+0xd0>
 800512c:	683b      	ldr	r3, [r7, #0]
 800512e:	691a      	ldr	r2, [r3, #16]
 8005130:	687b      	ldr	r3, [r7, #4]
 8005132:	631a      	str	r2, [r3, #48]	; 0x30
 8005134:	687b      	ldr	r3, [r7, #4]
 8005136:	2201      	movs	r2, #1
 8005138:	615a      	str	r2, [r3, #20]
 800513a:	bf00      	nop
 800513c:	3714      	adds	r7, #20
 800513e:	46bd      	mov	sp, r7
 8005140:	f85d 7b04 	ldr.w	r7, [sp], #4
 8005144:	4770      	bx	lr
 8005146:	bf00      	nop
 8005148:	40010000 	.word	0x40010000
 800514c:	40000400 	.word	0x40000400
 8005150:	40000800 	.word	0x40000800
 8005154:	40000c00 	.word	0x40000c00
 8005158:	40014000 	.word	0x40014000
 800515c:	40014400 	.word	0x40014400
 8005160:	40014800 	.word	0x40014800

08005164 <TIM_OC1_SetConfig>:
 8005164:	b480      	push	{r7}
 8005166:	b087      	sub	sp, #28
 8005168:	af00      	add	r7, sp, #0
 800516a:	6078      	str	r0, [r7, #4]
 800516c:	6039      	str	r1, [r7, #0]
 800516e:	687b      	ldr	r3, [r7, #4]
 8005170:	6a1b      	ldr	r3, [r3, #32]
 8005172:	f023 0201 	bic.w	r2, r3, #1
 8005176:	687b      	ldr	r3, [r7, #4]
 8005178:	621a      	str	r2, [r3, #32]
 800517a:	687b      	ldr	r3, [r7, #4]
 800517c:	6a1b      	ldr	r3, [r3, #32]
 800517e:	617b      	str	r3, [r7, #20]
 8005180:	687b      	ldr	r3, [r7, #4]
 8005182:	685b      	ldr	r3, [r3, #4]
 8005184:	613b      	str	r3, [r7, #16]
 8005186:	687b      	ldr	r3, [r7, #4]
 8005188:	699b      	ldr	r3, [r3, #24]
 800518a:	60fb      	str	r3, [r7, #12]
 800518c:	68fb      	ldr	r3, [r7, #12]
 800518e:	f023 0370 	bic.w	r3, r3, #112	; 0x70
 8005192:	60fb      	str	r3, [r7, #12]
 8005194:	68fb      	ldr	r3, [r7, #12]
 8005196:	f023 0303 	bic.w	r3, r3, #3
 800519a:	60fb      	str	r3, [r7, #12]
 800519c:	683b      	ldr	r3, [r7, #0]
 800519e:	681b      	ldr	r3, [r3, #0]
 80051a0:	68fa      	ldr	r2, [r7, #12]
 80051a2:	4313      	orrs	r3, r2
 80051a4:	60fb      	str	r3, [r7, #12]
 80051a6:	697b      	ldr	r3, [r7, #20]
 80051a8:	f023 0302 	bic.w	r3, r3, #2
 80051ac:	617b      	str	r3, [r7, #20]
 80051ae:	683b      	ldr	r3, [r7, #0]
 80051b0:	689b      	ldr	r3, [r3, #8]
 80051b2:	697a      	ldr	r2, [r7, #20]
 80051b4:	4313      	orrs	r3, r2
 80051b6:	617b      	str	r3, [r7, #20]
 80051b8:	687b      	ldr	r3, [r7, #4]
 80051ba:	4a1c      	ldr	r2, [pc, #112]	; (800522c <TIM_OC1_SetConfig+0xc8>)
 80051bc:	4293      	cmp	r3, r2
 80051be:	d10c      	bne.n	80051da <TIM_OC1_SetConfig+0x76>
 80051c0:	697b      	ldr	r3, [r7, #20]
 80051c2:	f023 0308 	bic.w	r3, r3, #8
 80051c6:	617b      	str	r3, [r7, #20]
 80051c8:	683b      	ldr	r3, [r7, #0]
 80051ca:	68db      	ldr	r3, [r3, #12]
 80051cc:	697a      	ldr	r2, [r7, #20]
 80051ce:	4313      	orrs	r3, r2
 80051d0:	617b      	str	r3, [r7, #20]
 80051d2:	697b      	ldr	r3, [r7, #20]
 80051d4:	f023 0304 	bic.w	r3, r3, #4
 80051d8:	617b      	str	r3, [r7, #20]
 80051da:	687b      	ldr	r3, [r7, #4]
 80051dc:	4a13      	ldr	r2, [pc, #76]	; (800522c <TIM_OC1_SetConfig+0xc8>)
 80051de:	4293      	cmp	r3, r2
 80051e0:	d111      	bne.n	8005206 <TIM_OC1_SetConfig+0xa2>
 80051e2:	693b      	ldr	r3, [r7, #16]
 80051e4:	f423 7380 	bic.w	r3, r3, #256	; 0x100
 80051e8:	613b      	str	r3, [r7, #16]
 80051ea:	693b      	ldr	r3, [r7, #16]
 80051ec:	f423 7300 	bic.w	r3, r3, #512	; 0x200
 80051f0:	613b      	str	r3, [r7, #16]
 80051f2:	683b      	ldr	r3, [r7, #0]
 80051f4:	695b      	ldr	r3, [r3, #20]
 80051f6:	693a      	ldr	r2, [r7, #16]
 80051f8:	4313      	orrs	r3, r2
 80051fa:	613b      	str	r3, [r7, #16]
 80051fc:	683b      	ldr	r3, [r7, #0]
 80051fe:	699b      	ldr	r3, [r3, #24]
 8005200:	693a      	ldr	r2, [r7, #16]
 8005202:	4313      	orrs	r3, r2
 8005204:	613b      	str	r3, [r7, #16]
 8005206:	687b      	ldr	r3, [r7, #4]
 8005208:	693a      	ldr	r2, [r7, #16]
 800520a:	605a      	str	r2, [r3, #4]
 800520c:	687b      	ldr	r3, [r7, #4]
 800520e:	68fa      	ldr	r2, [r7, #12]
 8005210:	619a      	str	r2, [r3, #24]
 8005212:	683b      	ldr	r3, [r7, #0]
 8005214:	685a      	ldr	r2, [r3, #4]
 8005216:	687b      	ldr	r3, [r7, #4]
 8005218:	635a      	str	r2, [r3, #52]	; 0x34
 800521a:	687b      	ldr	r3, [r7, #4]
 800521c:	697a      	ldr	r2, [r7, #20]
 800521e:	621a      	str	r2, [r3, #32]
 8005220:	bf00      	nop
 8005222:	371c      	adds	r7, #28
 8005224:	46bd      	mov	sp, r7
 8005226:	f85d 7b04 	ldr.w	r7, [sp], #4
 800522a:	4770      	bx	lr
 800522c:	40010000 	.word	0x40010000

08005230 <TIM_OC2_SetConfig>:
 8005230:	b480      	push	{r7}
 8005232:	b087      	sub	sp, #28
 8005234:	af00      	add	r7, sp, #0
 8005236:	6078      	str	r0, [r7, #4]
 8005238:	6039      	str	r1, [r7, #0]
 800523a:	687b      	ldr	r3, [r7, #4]
 800523c:	6a1b      	ldr	r3, [r3, #32]
 800523e:	f023 0210 	bic.w	r2, r3, #16
 8005242:	687b      	ldr	r3, [r7, #4]
 8005244:	621a      	str	r2, [r3, #32]
 8005246:	687b      	ldr	r3, [r7, #4]
 8005248:	6a1b      	ldr	r3, [r3, #32]
 800524a:	617b      	str	r3, [r7, #20]
 800524c:	687b      	ldr	r3, [r7, #4]
 800524e:	685b      	ldr	r3, [r3, #4]
 8005250:	613b      	str	r3, [r7, #16]
 8005252:	687b      	ldr	r3, [r7, #4]
 8005254:	699b      	ldr	r3, [r3, #24]
 8005256:	60fb      	str	r3, [r7, #12]
 8005258:	68fb      	ldr	r3, [r7, #12]
 800525a:	f423 43e0 	bic.w	r3, r3, #28672	; 0x7000
 800525e:	60fb      	str	r3, [r7, #12]
 8005260:	68fb      	ldr	r3, [r7, #12]
 8005262:	f423 7340 	bic.w	r3, r3, #768	; 0x300
 8005266:	60fb      	str	r3, [r7, #12]
 8005268:	683b      	ldr	r3, [r7, #0]
 800526a:	681b      	ldr	r3, [r3, #0]
 800526c:	021b      	lsls	r3, r3, #8
 800526e:	68fa      	ldr	r2, [r7, #12]
 8005270:	4313      	orrs	r3, r2
 8005272:	60fb      	str	r3, [r7, #12]
 8005274:	697b      	ldr	r3, [r7, #20]
 8005276:	f023 0320 	bic.w	r3, r3, #32
 800527a:	617b      	str	r3, [r7, #20]
 800527c:	683b      	ldr	r3, [r7, #0]
 800527e:	689b      	ldr	r3, [r3, #8]
 8005280:	011b      	lsls	r3, r3, #4
 8005282:	697a      	ldr	r2, [r7, #20]
 8005284:	4313      	orrs	r3, r2
 8005286:	617b      	str	r3, [r7, #20]
 8005288:	687b      	ldr	r3, [r7, #4]
 800528a:	4a1e      	ldr	r2, [pc, #120]	; (8005304 <TIM_OC2_SetConfig+0xd4>)
 800528c:	4293      	cmp	r3, r2
 800528e:	d10d      	bne.n	80052ac <TIM_OC2_SetConfig+0x7c>
 8005290:	697b      	ldr	r3, [r7, #20]
 8005292:	f023 0380 	bic.w	r3, r3, #128	; 0x80
 8005296:	617b      	str	r3, [r7, #20]
 8005298:	683b      	ldr	r3, [r7, #0]
 800529a:	68db      	ldr	r3, [r3, #12]
 800529c:	011b      	lsls	r3, r3, #4
 800529e:	697a      	ldr	r2, [r7, #20]
 80052a0:	4313      	orrs	r3, r2
 80052a2:	617b      	str	r3, [r7, #20]
 80052a4:	697b      	ldr	r3, [r7, #20]
 80052a6:	f023 0340 	bic.w	r3, r3, #64	; 0x40
 80052aa:	617b      	str	r3, [r7, #20]
 80052ac:	687b      	ldr	r3, [r7, #4]
 80052ae:	4a15      	ldr	r2, [pc, #84]	; (8005304 <TIM_OC2_SetConfig+0xd4>)
 80052b0:	4293      	cmp	r3, r2
 80052b2:	d113      	bne.n	80052dc <TIM_OC2_SetConfig+0xac>
 80052b4:	693b      	ldr	r3, [r7, #16]
 80052b6:	f423 6380 	bic.w	r3, r3, #1024	; 0x400
 80052ba:	613b      	str	r3, [r7, #16]
 80052bc:	693b      	ldr	r3, [r7, #16]
 80052be:	f423 6300 	bic.w	r3, r3, #2048	; 0x800
 80052c2:	613b      	str	r3, [r7, #16]
 80052c4:	683b      	ldr	r3, [r7, #0]
 80052c6:	695b      	ldr	r3, [r3, #20]
 80052c8:	009b      	lsls	r3, r3, #2
 80052ca:	693a      	ldr	r2, [r7, #16]
 80052cc:	4313      	orrs	r3, r2
 80052ce:	613b      	str	r3, [r7, #16]
 80052d0:	683b      	ldr	r3, [r7, #0]
 80052d2:	699b      	ldr	r3, [r3, #24]
 80052d4:	009b      	lsls	r3, r3, #2
 80052d6:	693a      	ldr	r2, [r7, #16]
 80052d8:	4313      	orrs	r3, r2
 80052da:	613b      	str	r3, [r7, #16]
 80052dc:	687b      	ldr	r3, [r7, #4]
 80052de:	693a      	ldr	r2, [r7, #16]
 80052e0:	605a      	str	r2, [r3, #4]
 80052e2:	687b      	ldr	r3, [r7, #4]
 80052e4:	68fa      	ldr	r2, [r7, #12]
 80052e6:	619a      	str	r2, [r3, #24]
 80052e8:	683b      	ldr	r3, [r7, #0]
 80052ea:	685a      	ldr	r2, [r3, #4]
 80052ec:	687b      	ldr	r3, [r7, #4]
 80052ee:	639a      	str	r2, [r3, #56]	; 0x38
 80052f0:	687b      	ldr	r3, [r7, #4]
 80052f2:	697a      	ldr	r2, [r7, #20]
 80052f4:	621a      	str	r2, [r3, #32]
 80052f6:	bf00      	nop
 80052f8:	371c      	adds	r7, #28
 80052fa:	46bd      	mov	sp, r7
 80052fc:	f85d 7b04 	ldr.w	r7, [sp], #4
 8005300:	4770      	bx	lr
 8005302:	bf00      	nop
 8005304:	40010000 	.word	0x40010000

08005308 <TIM_OC3_SetConfig>:
 8005308:	b480      	push	{r7}
 800530a:	b087      	sub	sp, #28
 800530c:	af00      	add	r7, sp, #0
 800530e:	6078      	str	r0, [r7, #4]
 8005310:	6039      	str	r1, [r7, #0]
 8005312:	687b      	ldr	r3, [r7, #4]
 8005314:	6a1b      	ldr	r3, [r3, #32]
 8005316:	f423 7280 	bic.w	r2, r3, #256	; 0x100
 800531a:	687b      	ldr	r3, [r7, #4]
 800531c:	621a      	str	r2, [r3, #32]
 800531e:	687b      	ldr	r3, [r7, #4]
 8005320:	6a1b      	ldr	r3, [r3, #32]
 8005322:	617b      	str	r3, [r7, #20]
 8005324:	687b      	ldr	r3, [r7, #4]
 8005326:	685b      	ldr	r3, [r3, #4]
 8005328:	613b      	str	r3, [r7, #16]
 800532a:	687b      	ldr	r3, [r7, #4]
 800532c:	69db      	ldr	r3, [r3, #28]
 800532e:	60fb      	str	r3, [r7, #12]
 8005330:	68fb      	ldr	r3, [r7, #12]
 8005332:	f023 0370 	bic.w	r3, r3, #112	; 0x70
 8005336:	60fb      	str	r3, [r7, #12]
 8005338:	68fb      	ldr	r3, [r7, #12]
 800533a:	f023 0303 	bic.w	r3, r3, #3
 800533e:	60fb      	str	r3, [r7, #12]
 8005340:	683b      	ldr	r3, [r7, #0]
 8005342:	681b      	ldr	r3, [r3, #0]
 8005344:	68fa      	ldr	r2, [r7, #12]
 8005346:	4313      	orrs	r3, r2
 8005348:	60fb      	str	r3, [r7, #12]
 800534a:	697b      	ldr	r3, [r7, #20]
 800534c:	f423 7300 	bic.w	r3, r3, #512	; 0x200
 8005350:	617b      	str	r3, [r7, #20]
 8005352:	683b      	ldr	r3, [r7, #0]
 8005354:	689b      	ldr	r3, [r3, #8]
 8005356:	021b      	lsls	r3, r3, #8
 8005358:	697a      	ldr	r2, [r7, #20]
 800535a:	4313      	orrs	r3, r2
 800535c:	617b      	str	r3, [r7, #20]
 800535e:	687b      	ldr	r3, [r7, #4]
 8005360:	4a1d      	ldr	r2, [pc, #116]	; (80053d8 <TIM_OC3_SetConfig+0xd0>)
 8005362:	4293      	cmp	r3, r2
 8005364:	d10d      	bne.n	8005382 <TIM_OC3_SetConfig+0x7a>
 8005366:	697b      	ldr	r3, [r7, #20]
 8005368:	f423 6300 	bic.w	r3, r3, #2048	; 0x800
 800536c:	617b      	str	r3, [r7, #20]
 800536e:	683b      	ldr	r3, [r7, #0]
 8005370:	68db      	ldr	r3, [r3, #12]
 8005372:	021b      	lsls	r3, r3, #8
 8005374:	697a      	ldr	r2, [r7, #20]
 8005376:	4313      	orrs	r3, r2
 8005378:	617b      	str	r3, [r7, #20]
 800537a:	697b      	ldr	r3, [r7, #20]
 800537c:	f423 6380 	bic.w	r3, r3, #1024	; 0x400
 8005380:	617b      	str	r3, [r7, #20]
 8005382:	687b      	ldr	r3, [r7, #4]
 8005384:	4a14      	ldr	r2, [pc, #80]	; (80053d8 <TIM_OC3_SetConfig+0xd0>)
 8005386:	4293      	cmp	r3, r2
 8005388:	d113      	bne.n	80053b2 <TIM_OC3_SetConfig+0xaa>
 800538a:	693b      	ldr	r3, [r7, #16]
 800538c:	f423 5380 	bic.w	r3, r3, #4096	; 0x1000
 8005390:	613b      	str	r3, [r7, #16]
 8005392:	693b      	ldr	r3, [r7, #16]
 8005394:	f423 5300 	bic.w	r3, r3, #8192	; 0x2000
 8005398:	613b      	str	r3, [r7, #16]
 800539a:	683b      	ldr	r3, [r7, #0]
 800539c:	695b      	ldr	r3, [r3, #20]
 800539e:	011b      	lsls	r3, r3, #4
 80053a0:	693a      	ldr	r2, [r7, #16]
 80053a2:	4313      	orrs	r3, r2
 80053a4:	613b      	str	r3, [r7, #16]
 80053a6:	683b      	ldr	r3, [r7, #0]
 80053a8:	699b      	ldr	r3, [r3, #24]
 80053aa:	011b      	lsls	r3, r3, #4
 80053ac:	693a      	ldr	r2, [r7, #16]
 80053ae:	4313      	orrs	r3, r2
 80053b0:	613b      	str	r3, [r7, #16]
 80053b2:	687b      	ldr	r3, [r7, #4]
 80053b4:	693a      	ldr	r2, [r7, #16]
 80053b6:	605a      	str	r2, [r3, #4]
 80053b8:	687b      	ldr	r3, [r7, #4]
 80053ba:	68fa      	ldr	r2, [r7, #12]
 80053bc:	61da      	str	r2, [r3, #28]
 80053be:	683b      	ldr	r3, [r7, #0]
 80053c0:	685a      	ldr	r2, [r3, #4]
 80053c2:	687b      	ldr	r3, [r7, #4]
 80053c4:	63da      	str	r2, [r3, #60]	; 0x3c
 80053c6:	687b      	ldr	r3, [r7, #4]
 80053c8:	697a      	ldr	r2, [r7, #20]
 80053ca:	621a      	str	r2, [r3, #32]
 80053cc:	bf00      	nop
 80053ce:	371c      	adds	r7, #28
 80053d0:	46bd      	mov	sp, r7
 80053d2:	f85d 7b04 	ldr.w	r7, [sp], #4
 80053d6:	4770      	bx	lr
 80053d8:	40010000 	.word	0x40010000

080053dc <TIM_OC4_SetConfig>:
 80053dc:	b480      	push	{r7}
 80053de:	b087      	sub	sp, #28
 80053e0:	af00      	add	r7, sp, #0
 80053e2:	6078      	str	r0, [r7, #4]
 80053e4:	6039      	str	r1, [r7, #0]
 80053e6:	687b      	ldr	r3, [r7, #4]
 80053e8:	6a1b      	ldr	r3, [r3, #32]
 80053ea:	f423 5280 	bic.w	r2, r3, #4096	; 0x1000
 80053ee:	687b      	ldr	r3, [r7, #4]
 80053f0:	621a      	str	r2, [r3, #32]
 80053f2:	687b      	ldr	r3, [r7, #4]
 80053f4:	6a1b      	ldr	r3, [r3, #32]
 80053f6:	613b      	str	r3, [r7, #16]
 80053f8:	687b      	ldr	r3, [r7, #4]
 80053fa:	685b      	ldr	r3, [r3, #4]
 80053fc:	617b      	str	r3, [r7, #20]
 80053fe:	687b      	ldr	r3, [r7, #4]
 8005400:	69db      	ldr	r3, [r3, #28]
 8005402:	60fb      	str	r3, [r7, #12]
 8005404:	68fb      	ldr	r3, [r7, #12]
 8005406:	f423 43e0 	bic.w	r3, r3, #28672	; 0x7000
 800540a:	60fb      	str	r3, [r7, #12]
 800540c:	68fb      	ldr	r3, [r7, #12]
 800540e:	f423 7340 	bic.w	r3, r3, #768	; 0x300
 8005412:	60fb      	str	r3, [r7, #12]
 8005414:	683b      	ldr	r3, [r7, #0]
 8005416:	681b      	ldr	r3, [r3, #0]
 8005418:	021b      	lsls	r3, r3, #8
 800541a:	68fa      	ldr	r2, [r7, #12]
 800541c:	4313      	orrs	r3, r2
 800541e:	60fb      	str	r3, [r7, #12]
 8005420:	693b      	ldr	r3, [r7, #16]
 8005422:	f423 5300 	bic.w	r3, r3, #8192	; 0x2000
 8005426:	613b      	str	r3, [r7, #16]
 8005428:	683b      	ldr	r3, [r7, #0]
 800542a:	689b      	ldr	r3, [r3, #8]
 800542c:	031b      	lsls	r3, r3, #12
 800542e:	693a      	ldr	r2, [r7, #16]
 8005430:	4313      	orrs	r3, r2
 8005432:	613b      	str	r3, [r7, #16]
 8005434:	687b      	ldr	r3, [r7, #4]
 8005436:	4a10      	ldr	r2, [pc, #64]	; (8005478 <TIM_OC4_SetConfig+0x9c>)
 8005438:	4293      	cmp	r3, r2
 800543a:	d109      	bne.n	8005450 <TIM_OC4_SetConfig+0x74>
 800543c:	697b      	ldr	r3, [r7, #20]
 800543e:	f423 4380 	bic.w	r3, r3, #16384	; 0x4000
 8005442:	617b      	str	r3, [r7, #20]
 8005444:	683b      	ldr	r3, [r7, #0]
 8005446:	695b      	ldr	r3, [r3, #20]
 8005448:	019b      	lsls	r3, r3, #6
 800544a:	697a      	ldr	r2, [r7, #20]
 800544c:	4313      	orrs	r3, r2
 800544e:	617b      	str	r3, [r7, #20]
 8005450:	687b      	ldr	r3, [r7, #4]
 8005452:	697a      	ldr	r2, [r7, #20]
 8005454:	605a      	str	r2, [r3, #4]
 8005456:	687b      	ldr	r3, [r7, #4]
 8005458:	68fa      	ldr	r2, [r7, #12]
 800545a:	61da      	str	r2, [r3, #28]
 800545c:	683b      	ldr	r3, [r7, #0]
 800545e:	685a      	ldr	r2, [r3, #4]
 8005460:	687b      	ldr	r3, [r7, #4]
 8005462:	641a      	str	r2, [r3, #64]	; 0x40
 8005464:	687b      	ldr	r3, [r7, #4]
 8005466:	693a      	ldr	r2, [r7, #16]
 8005468:	621a      	str	r2, [r3, #32]
 800546a:	bf00      	nop
 800546c:	371c      	adds	r7, #28
 800546e:	46bd      	mov	sp, r7
 8005470:	f85d 7b04 	ldr.w	r7, [sp], #4
 8005474:	4770      	bx	lr
 8005476:	bf00      	nop
 8005478:	40010000 	.word	0x40010000

0800547c <TIM_CCxChannelCmd>:
 800547c:	b480      	push	{r7}
 800547e:	b087      	sub	sp, #28
 8005480:	af00      	add	r7, sp, #0
 8005482:	60f8      	str	r0, [r7, #12]
 8005484:	60b9      	str	r1, [r7, #8]
 8005486:	607a      	str	r2, [r7, #4]
 8005488:	68bb      	ldr	r3, [r7, #8]
 800548a:	f003 031f 	and.w	r3, r3, #31
 800548e:	2201      	movs	r2, #1
 8005490:	fa02 f303 	lsl.w	r3, r2, r3
 8005494:	617b      	str	r3, [r7, #20]
 8005496:	68fb      	ldr	r3, [r7, #12]
 8005498:	6a1a      	ldr	r2, [r3, #32]
 800549a:	697b      	ldr	r3, [r7, #20]
 800549c:	43db      	mvns	r3, r3
 800549e:	401a      	ands	r2, r3
 80054a0:	68fb      	ldr	r3, [r7, #12]
 80054a2:	621a      	str	r2, [r3, #32]
 80054a4:	68fb      	ldr	r3, [r7, #12]
 80054a6:	6a1a      	ldr	r2, [r3, #32]
 80054a8:	68bb      	ldr	r3, [r7, #8]
 80054aa:	f003 031f 	and.w	r3, r3, #31
 80054ae:	6879      	ldr	r1, [r7, #4]
 80054b0:	fa01 f303 	lsl.w	r3, r1, r3
 80054b4:	431a      	orrs	r2, r3
 80054b6:	68fb      	ldr	r3, [r7, #12]
 80054b8:	621a      	str	r2, [r3, #32]
 80054ba:	bf00      	nop
 80054bc:	371c      	adds	r7, #28
 80054be:	46bd      	mov	sp, r7
 80054c0:	f85d 7b04 	ldr.w	r7, [sp], #4
 80054c4:	4770      	bx	lr
	...

080054c8 <HAL_TIMEx_MasterConfigSynchronization>:
 80054c8:	b480      	push	{r7}
 80054ca:	b085      	sub	sp, #20
 80054cc:	af00      	add	r7, sp, #0
 80054ce:	6078      	str	r0, [r7, #4]
 80054d0:	6039      	str	r1, [r7, #0]
 80054d2:	687b      	ldr	r3, [r7, #4]
 80054d4:	f893 303c 	ldrb.w	r3, [r3, #60]	; 0x3c
 80054d8:	2b01      	cmp	r3, #1
 80054da:	d101      	bne.n	80054e0 <HAL_TIMEx_MasterConfigSynchronization+0x18>
 80054dc:	2302      	movs	r3, #2
 80054de:	e050      	b.n	8005582 <HAL_TIMEx_MasterConfigSynchronization+0xba>
 80054e0:	687b      	ldr	r3, [r7, #4]
 80054e2:	2201      	movs	r2, #1
 80054e4:	f883 203c 	strb.w	r2, [r3, #60]	; 0x3c
 80054e8:	687b      	ldr	r3, [r7, #4]
 80054ea:	2202      	movs	r2, #2
 80054ec:	f883 203d 	strb.w	r2, [r3, #61]	; 0x3d
 80054f0:	687b      	ldr	r3, [r7, #4]
 80054f2:	681b      	ldr	r3, [r3, #0]
 80054f4:	685b      	ldr	r3, [r3, #4]
 80054f6:	60fb      	str	r3, [r7, #12]
 80054f8:	687b      	ldr	r3, [r7, #4]
 80054fa:	681b      	ldr	r3, [r3, #0]
 80054fc:	689b      	ldr	r3, [r3, #8]
 80054fe:	60bb      	str	r3, [r7, #8]
 8005500:	68fb      	ldr	r3, [r7, #12]
 8005502:	f023 0370 	bic.w	r3, r3, #112	; 0x70
 8005506:	60fb      	str	r3, [r7, #12]
 8005508:	683b      	ldr	r3, [r7, #0]
 800550a:	681b      	ldr	r3, [r3, #0]
 800550c:	68fa      	ldr	r2, [r7, #12]
 800550e:	4313      	orrs	r3, r2
 8005510:	60fb      	str	r3, [r7, #12]
 8005512:	687b      	ldr	r3, [r7, #4]
 8005514:	681b      	ldr	r3, [r3, #0]
 8005516:	68fa      	ldr	r2, [r7, #12]
 8005518:	605a      	str	r2, [r3, #4]
 800551a:	687b      	ldr	r3, [r7, #4]
 800551c:	681b      	ldr	r3, [r3, #0]
 800551e:	4a1c      	ldr	r2, [pc, #112]	; (8005590 <HAL_TIMEx_MasterConfigSynchronization+0xc8>)
 8005520:	4293      	cmp	r3, r2
 8005522:	d018      	beq.n	8005556 <HAL_TIMEx_MasterConfigSynchronization+0x8e>
 8005524:	687b      	ldr	r3, [r7, #4]
 8005526:	681b      	ldr	r3, [r3, #0]
 8005528:	f1b3 4f80 	cmp.w	r3, #1073741824	; 0x40000000
 800552c:	d013      	beq.n	8005556 <HAL_TIMEx_MasterConfigSynchronization+0x8e>
 800552e:	687b      	ldr	r3, [r7, #4]
 8005530:	681b      	ldr	r3, [r3, #0]
 8005532:	4a18      	ldr	r2, [pc, #96]	; (8005594 <HAL_TIMEx_MasterConfigSynchronization+0xcc>)
 8005534:	4293      	cmp	r3, r2
 8005536:	d00e      	beq.n	8005556 <HAL_TIMEx_MasterConfigSynchronization+0x8e>
 8005538:	687b      	ldr	r3, [r7, #4]
 800553a:	681b      	ldr	r3, [r3, #0]
 800553c:	4a16      	ldr	r2, [pc, #88]	; (8005598 <HAL_TIMEx_MasterConfigSynchronization+0xd0>)
 800553e:	4293      	cmp	r3, r2
 8005540:	d009      	beq.n	8005556 <HAL_TIMEx_MasterConfigSynchronization+0x8e>
 8005542:	687b      	ldr	r3, [r7, #4]
 8005544:	681b      	ldr	r3, [r3, #0]
 8005546:	4a15      	ldr	r2, [pc, #84]	; (800559c <HAL_TIMEx_MasterConfigSynchronization+0xd4>)
 8005548:	4293      	cmp	r3, r2
 800554a:	d004      	beq.n	8005556 <HAL_TIMEx_MasterConfigSynchronization+0x8e>
 800554c:	687b      	ldr	r3, [r7, #4]
 800554e:	681b      	ldr	r3, [r3, #0]
 8005550:	4a13      	ldr	r2, [pc, #76]	; (80055a0 <HAL_TIMEx_MasterConfigSynchronization+0xd8>)
 8005552:	4293      	cmp	r3, r2
 8005554:	d10c      	bne.n	8005570 <HAL_TIMEx_MasterConfigSynchronization+0xa8>
 8005556:	68bb      	ldr	r3, [r7, #8]
 8005558:	f023 0380 	bic.w	r3, r3, #128	; 0x80
 800555c:	60bb      	str	r3, [r7, #8]
 800555e:	683b      	ldr	r3, [r7, #0]
 8005560:	685b      	ldr	r3, [r3, #4]
 8005562:	68ba      	ldr	r2, [r7, #8]
 8005564:	4313      	orrs	r3, r2
 8005566:	60bb      	str	r3, [r7, #8]
 8005568:	687b      	ldr	r3, [r7, #4]
 800556a:	681b      	ldr	r3, [r3, #0]
 800556c:	68ba      	ldr	r2, [r7, #8]
 800556e:	609a      	str	r2, [r3, #8]
 8005570:	687b      	ldr	r3, [r7, #4]
 8005572:	2201      	movs	r2, #1
 8005574:	f883 203d 	strb.w	r2, [r3, #61]	; 0x3d
 8005578:	687b      	ldr	r3, [r7, #4]
 800557a:	2200      	movs	r2, #0
 800557c:	f883 203c 	strb.w	r2, [r3, #60]	; 0x3c
 8005580:	2300      	movs	r3, #0
 8005582:	4618      	mov	r0, r3
 8005584:	3714      	adds	r7, #20
 8005586:	46bd      	mov	sp, r7
 8005588:	f85d 7b04 	ldr.w	r7, [sp], #4
 800558c:	4770      	bx	lr
 800558e:	bf00      	nop
 8005590:	40010000 	.word	0x40010000
 8005594:	40000400 	.word	0x40000400
 8005598:	40000800 	.word	0x40000800
 800559c:	40000c00 	.word	0x40000c00
 80055a0:	40014000 	.word	0x40014000

080055a4 <HAL_TIMEx_CommutCallback>:
 80055a4:	b480      	push	{r7}
 80055a6:	b083      	sub	sp, #12
 80055a8:	af00      	add	r7, sp, #0
 80055aa:	6078      	str	r0, [r7, #4]
 80055ac:	bf00      	nop
 80055ae:	370c      	adds	r7, #12
 80055b0:	46bd      	mov	sp, r7
 80055b2:	f85d 7b04 	ldr.w	r7, [sp], #4
 80055b6:	4770      	bx	lr

080055b8 <HAL_TIMEx_BreakCallback>:
 80055b8:	b480      	push	{r7}
 80055ba:	b083      	sub	sp, #12
 80055bc:	af00      	add	r7, sp, #0
 80055be:	6078      	str	r0, [r7, #4]
 80055c0:	bf00      	nop
 80055c2:	370c      	adds	r7, #12
 80055c4:	46bd      	mov	sp, r7
 80055c6:	f85d 7b04 	ldr.w	r7, [sp], #4
 80055ca:	4770      	bx	lr

080055cc <HAL_UART_Init>:
 80055cc:	b580      	push	{r7, lr}
 80055ce:	b082      	sub	sp, #8
 80055d0:	af00      	add	r7, sp, #0
 80055d2:	6078      	str	r0, [r7, #4]
 80055d4:	687b      	ldr	r3, [r7, #4]
 80055d6:	2b00      	cmp	r3, #0
 80055d8:	d101      	bne.n	80055de <HAL_UART_Init+0x12>
 80055da:	2301      	movs	r3, #1
 80055dc:	e03f      	b.n	800565e <HAL_UART_Init+0x92>
 80055de:	687b      	ldr	r3, [r7, #4]
 80055e0:	f893 3039 	ldrb.w	r3, [r3, #57]	; 0x39
 80055e4:	b2db      	uxtb	r3, r3
 80055e6:	2b00      	cmp	r3, #0
 80055e8:	d106      	bne.n	80055f8 <HAL_UART_Init+0x2c>
 80055ea:	687b      	ldr	r3, [r7, #4]
 80055ec:	2200      	movs	r2, #0
 80055ee:	f883 2038 	strb.w	r2, [r3, #56]	; 0x38
 80055f2:	6878      	ldr	r0, [r7, #4]
 80055f4:	f7fd f84e 	bl	8002694 <HAL_UART_MspInit>
 80055f8:	687b      	ldr	r3, [r7, #4]
 80055fa:	2224      	movs	r2, #36	; 0x24
 80055fc:	f883 2039 	strb.w	r2, [r3, #57]	; 0x39
 8005600:	687b      	ldr	r3, [r7, #4]
 8005602:	681b      	ldr	r3, [r3, #0]
 8005604:	68da      	ldr	r2, [r3, #12]
 8005606:	687b      	ldr	r3, [r7, #4]
 8005608:	681b      	ldr	r3, [r3, #0]
 800560a:	f422 5200 	bic.w	r2, r2, #8192	; 0x2000
 800560e:	60da      	str	r2, [r3, #12]
 8005610:	6878      	ldr	r0, [r7, #4]
 8005612:	f000 fb4f 	bl	8005cb4 <UART_SetConfig>
 8005616:	687b      	ldr	r3, [r7, #4]
 8005618:	681b      	ldr	r3, [r3, #0]
 800561a:	691a      	ldr	r2, [r3, #16]
 800561c:	687b      	ldr	r3, [r7, #4]
 800561e:	681b      	ldr	r3, [r3, #0]
 8005620:	f422 4290 	bic.w	r2, r2, #18432	; 0x4800
 8005624:	611a      	str	r2, [r3, #16]
 8005626:	687b      	ldr	r3, [r7, #4]
 8005628:	681b      	ldr	r3, [r3, #0]
 800562a:	695a      	ldr	r2, [r3, #20]
 800562c:	687b      	ldr	r3, [r7, #4]
 800562e:	681b      	ldr	r3, [r3, #0]
 8005630:	f022 022a 	bic.w	r2, r2, #42	; 0x2a
 8005634:	615a      	str	r2, [r3, #20]
 8005636:	687b      	ldr	r3, [r7, #4]
 8005638:	681b      	ldr	r3, [r3, #0]
 800563a:	68da      	ldr	r2, [r3, #12]
 800563c:	687b      	ldr	r3, [r7, #4]
 800563e:	681b      	ldr	r3, [r3, #0]
 8005640:	f442 5200 	orr.w	r2, r2, #8192	; 0x2000
 8005644:	60da      	str	r2, [r3, #12]
 8005646:	687b      	ldr	r3, [r7, #4]
 8005648:	2200      	movs	r2, #0
 800564a:	63da      	str	r2, [r3, #60]	; 0x3c
 800564c:	687b      	ldr	r3, [r7, #4]
 800564e:	2220      	movs	r2, #32
 8005650:	f883 2039 	strb.w	r2, [r3, #57]	; 0x39
 8005654:	687b      	ldr	r3, [r7, #4]
 8005656:	2220      	movs	r2, #32
 8005658:	f883 203a 	strb.w	r2, [r3, #58]	; 0x3a
 800565c:	2300      	movs	r3, #0
 800565e:	4618      	mov	r0, r3
 8005660:	3708      	adds	r7, #8
 8005662:	46bd      	mov	sp, r7
 8005664:	bd80      	pop	{r7, pc}

08005666 <HAL_UART_Receive>:
 8005666:	b580      	push	{r7, lr}
 8005668:	b088      	sub	sp, #32
 800566a:	af02      	add	r7, sp, #8
 800566c:	60f8      	str	r0, [r7, #12]
 800566e:	60b9      	str	r1, [r7, #8]
 8005670:	603b      	str	r3, [r7, #0]
 8005672:	4613      	mov	r3, r2
 8005674:	80fb      	strh	r3, [r7, #6]
 8005676:	2300      	movs	r3, #0
 8005678:	617b      	str	r3, [r7, #20]
 800567a:	68fb      	ldr	r3, [r7, #12]
 800567c:	f893 303a 	ldrb.w	r3, [r3, #58]	; 0x3a
 8005680:	b2db      	uxtb	r3, r3
 8005682:	2b20      	cmp	r3, #32
 8005684:	f040 8090 	bne.w	80057a8 <HAL_UART_Receive+0x142>
 8005688:	68bb      	ldr	r3, [r7, #8]
 800568a:	2b00      	cmp	r3, #0
 800568c:	d002      	beq.n	8005694 <HAL_UART_Receive+0x2e>
 800568e:	88fb      	ldrh	r3, [r7, #6]
 8005690:	2b00      	cmp	r3, #0
 8005692:	d101      	bne.n	8005698 <HAL_UART_Receive+0x32>
 8005694:	2301      	movs	r3, #1
 8005696:	e088      	b.n	80057aa <HAL_UART_Receive+0x144>
 8005698:	68fb      	ldr	r3, [r7, #12]
 800569a:	f893 3038 	ldrb.w	r3, [r3, #56]	; 0x38
 800569e:	2b01      	cmp	r3, #1
 80056a0:	d101      	bne.n	80056a6 <HAL_UART_Receive+0x40>
 80056a2:	2302      	movs	r3, #2
 80056a4:	e081      	b.n	80057aa <HAL_UART_Receive+0x144>
 80056a6:	68fb      	ldr	r3, [r7, #12]
 80056a8:	2201      	movs	r2, #1
 80056aa:	f883 2038 	strb.w	r2, [r3, #56]	; 0x38
 80056ae:	68fb      	ldr	r3, [r7, #12]
 80056b0:	2200      	movs	r2, #0
 80056b2:	63da      	str	r2, [r3, #60]	; 0x3c
 80056b4:	68fb      	ldr	r3, [r7, #12]
 80056b6:	2222      	movs	r2, #34	; 0x22
 80056b8:	f883 203a 	strb.w	r2, [r3, #58]	; 0x3a
 80056bc:	f7fd f8ca 	bl	8002854 <HAL_GetTick>
 80056c0:	6178      	str	r0, [r7, #20]
 80056c2:	68fb      	ldr	r3, [r7, #12]
 80056c4:	88fa      	ldrh	r2, [r7, #6]
 80056c6:	859a      	strh	r2, [r3, #44]	; 0x2c
 80056c8:	68fb      	ldr	r3, [r7, #12]
 80056ca:	88fa      	ldrh	r2, [r7, #6]
 80056cc:	85da      	strh	r2, [r3, #46]	; 0x2e
 80056ce:	68fb      	ldr	r3, [r7, #12]
 80056d0:	2200      	movs	r2, #0
 80056d2:	f883 2038 	strb.w	r2, [r3, #56]	; 0x38
 80056d6:	e05c      	b.n	8005792 <HAL_UART_Receive+0x12c>
 80056d8:	68fb      	ldr	r3, [r7, #12]
 80056da:	8ddb      	ldrh	r3, [r3, #46]	; 0x2e
 80056dc:	b29b      	uxth	r3, r3
 80056de:	3b01      	subs	r3, #1
 80056e0:	b29a      	uxth	r2, r3
 80056e2:	68fb      	ldr	r3, [r7, #12]
 80056e4:	85da      	strh	r2, [r3, #46]	; 0x2e
 80056e6:	68fb      	ldr	r3, [r7, #12]
 80056e8:	689b      	ldr	r3, [r3, #8]
 80056ea:	f5b3 5f80 	cmp.w	r3, #4096	; 0x1000
 80056ee:	d12b      	bne.n	8005748 <HAL_UART_Receive+0xe2>
 80056f0:	683b      	ldr	r3, [r7, #0]
 80056f2:	9300      	str	r3, [sp, #0]
 80056f4:	697b      	ldr	r3, [r7, #20]
 80056f6:	2200      	movs	r2, #0
 80056f8:	2120      	movs	r1, #32
 80056fa:	68f8      	ldr	r0, [r7, #12]
 80056fc:	f000 f96e 	bl	80059dc <UART_WaitOnFlagUntilTimeout>
 8005700:	4603      	mov	r3, r0
 8005702:	2b00      	cmp	r3, #0
 8005704:	d001      	beq.n	800570a <HAL_UART_Receive+0xa4>
 8005706:	2303      	movs	r3, #3
 8005708:	e04f      	b.n	80057aa <HAL_UART_Receive+0x144>
 800570a:	68bb      	ldr	r3, [r7, #8]
 800570c:	613b      	str	r3, [r7, #16]
 800570e:	68fb      	ldr	r3, [r7, #12]
 8005710:	691b      	ldr	r3, [r3, #16]
 8005712:	2b00      	cmp	r3, #0
 8005714:	d10c      	bne.n	8005730 <HAL_UART_Receive+0xca>
 8005716:	68fb      	ldr	r3, [r7, #12]
 8005718:	681b      	ldr	r3, [r3, #0]
 800571a:	685b      	ldr	r3, [r3, #4]
 800571c:	b29b      	uxth	r3, r3
 800571e:	f3c3 0308 	ubfx	r3, r3, #0, #9
 8005722:	b29a      	uxth	r2, r3
 8005724:	693b      	ldr	r3, [r7, #16]
 8005726:	801a      	strh	r2, [r3, #0]
 8005728:	68bb      	ldr	r3, [r7, #8]
 800572a:	3302      	adds	r3, #2
 800572c:	60bb      	str	r3, [r7, #8]
 800572e:	e030      	b.n	8005792 <HAL_UART_Receive+0x12c>
 8005730:	68fb      	ldr	r3, [r7, #12]
 8005732:	681b      	ldr	r3, [r3, #0]
 8005734:	685b      	ldr	r3, [r3, #4]
 8005736:	b29b      	uxth	r3, r3
 8005738:	b2db      	uxtb	r3, r3
 800573a:	b29a      	uxth	r2, r3
 800573c:	693b      	ldr	r3, [r7, #16]
 800573e:	801a      	strh	r2, [r3, #0]
 8005740:	68bb      	ldr	r3, [r7, #8]
 8005742:	3301      	adds	r3, #1
 8005744:	60bb      	str	r3, [r7, #8]
 8005746:	e024      	b.n	8005792 <HAL_UART_Receive+0x12c>
 8005748:	683b      	ldr	r3, [r7, #0]
 800574a:	9300      	str	r3, [sp, #0]
 800574c:	697b      	ldr	r3, [r7, #20]
 800574e:	2200      	movs	r2, #0
 8005750:	2120      	movs	r1, #32
 8005752:	68f8      	ldr	r0, [r7, #12]
 8005754:	f000 f942 	bl	80059dc <UART_WaitOnFlagUntilTimeout>
 8005758:	4603      	mov	r3, r0
 800575a:	2b00      	cmp	r3, #0
 800575c:	d001      	beq.n	8005762 <HAL_UART_Receive+0xfc>
 800575e:	2303      	movs	r3, #3
 8005760:	e023      	b.n	80057aa <HAL_UART_Receive+0x144>
 8005762:	68fb      	ldr	r3, [r7, #12]
 8005764:	691b      	ldr	r3, [r3, #16]
 8005766:	2b00      	cmp	r3, #0
 8005768:	d108      	bne.n	800577c <HAL_UART_Receive+0x116>
 800576a:	68fb      	ldr	r3, [r7, #12]
 800576c:	681b      	ldr	r3, [r3, #0]
 800576e:	6859      	ldr	r1, [r3, #4]
 8005770:	68bb      	ldr	r3, [r7, #8]
 8005772:	1c5a      	adds	r2, r3, #1
 8005774:	60ba      	str	r2, [r7, #8]
 8005776:	b2ca      	uxtb	r2, r1
 8005778:	701a      	strb	r2, [r3, #0]
 800577a:	e00a      	b.n	8005792 <HAL_UART_Receive+0x12c>
 800577c:	68fb      	ldr	r3, [r7, #12]
 800577e:	681b      	ldr	r3, [r3, #0]
 8005780:	685b      	ldr	r3, [r3, #4]
 8005782:	b2da      	uxtb	r2, r3
 8005784:	68bb      	ldr	r3, [r7, #8]
 8005786:	1c59      	adds	r1, r3, #1
 8005788:	60b9      	str	r1, [r7, #8]
 800578a:	f002 027f 	and.w	r2, r2, #127	; 0x7f
 800578e:	b2d2      	uxtb	r2, r2
 8005790:	701a      	strb	r2, [r3, #0]
 8005792:	68fb      	ldr	r3, [r7, #12]
 8005794:	8ddb      	ldrh	r3, [r3, #46]	; 0x2e
 8005796:	b29b      	uxth	r3, r3
 8005798:	2b00      	cmp	r3, #0
 800579a:	d19d      	bne.n	80056d8 <HAL_UART_Receive+0x72>
 800579c:	68fb      	ldr	r3, [r7, #12]
 800579e:	2220      	movs	r2, #32
 80057a0:	f883 203a 	strb.w	r2, [r3, #58]	; 0x3a
 80057a4:	2300      	movs	r3, #0
 80057a6:	e000      	b.n	80057aa <HAL_UART_Receive+0x144>
 80057a8:	2302      	movs	r3, #2
 80057aa:	4618      	mov	r0, r3
 80057ac:	3718      	adds	r7, #24
 80057ae:	46bd      	mov	sp, r7
 80057b0:	bd80      	pop	{r7, pc}
	...

080057b4 <HAL_UART_IRQHandler>:
 80057b4:	b580      	push	{r7, lr}
 80057b6:	b088      	sub	sp, #32
 80057b8:	af00      	add	r7, sp, #0
 80057ba:	6078      	str	r0, [r7, #4]
 80057bc:	687b      	ldr	r3, [r7, #4]
 80057be:	681b      	ldr	r3, [r3, #0]
 80057c0:	681b      	ldr	r3, [r3, #0]
 80057c2:	61fb      	str	r3, [r7, #28]
 80057c4:	687b      	ldr	r3, [r7, #4]
 80057c6:	681b      	ldr	r3, [r3, #0]
 80057c8:	68db      	ldr	r3, [r3, #12]
 80057ca:	61bb      	str	r3, [r7, #24]
 80057cc:	687b      	ldr	r3, [r7, #4]
 80057ce:	681b      	ldr	r3, [r3, #0]
 80057d0:	695b      	ldr	r3, [r3, #20]
 80057d2:	617b      	str	r3, [r7, #20]
 80057d4:	2300      	movs	r3, #0
 80057d6:	613b      	str	r3, [r7, #16]
 80057d8:	2300      	movs	r3, #0
 80057da:	60fb      	str	r3, [r7, #12]
 80057dc:	69fb      	ldr	r3, [r7, #28]
 80057de:	f003 030f 	and.w	r3, r3, #15
 80057e2:	613b      	str	r3, [r7, #16]
 80057e4:	693b      	ldr	r3, [r7, #16]
 80057e6:	2b00      	cmp	r3, #0
 80057e8:	d10d      	bne.n	8005806 <HAL_UART_IRQHandler+0x52>
 80057ea:	69fb      	ldr	r3, [r7, #28]
 80057ec:	f003 0320 	and.w	r3, r3, #32
 80057f0:	2b00      	cmp	r3, #0
 80057f2:	d008      	beq.n	8005806 <HAL_UART_IRQHandler+0x52>
 80057f4:	69bb      	ldr	r3, [r7, #24]
 80057f6:	f003 0320 	and.w	r3, r3, #32
 80057fa:	2b00      	cmp	r3, #0
 80057fc:	d003      	beq.n	8005806 <HAL_UART_IRQHandler+0x52>
 80057fe:	6878      	ldr	r0, [r7, #4]
 8005800:	f000 f9d6 	bl	8005bb0 <UART_Receive_IT>
 8005804:	e0d1      	b.n	80059aa <HAL_UART_IRQHandler+0x1f6>
 8005806:	693b      	ldr	r3, [r7, #16]
 8005808:	2b00      	cmp	r3, #0
 800580a:	f000 80b0 	beq.w	800596e <HAL_UART_IRQHandler+0x1ba>
 800580e:	697b      	ldr	r3, [r7, #20]
 8005810:	f003 0301 	and.w	r3, r3, #1
 8005814:	2b00      	cmp	r3, #0
 8005816:	d105      	bne.n	8005824 <HAL_UART_IRQHandler+0x70>
 8005818:	69bb      	ldr	r3, [r7, #24]
 800581a:	f403 7390 	and.w	r3, r3, #288	; 0x120
 800581e:	2b00      	cmp	r3, #0
 8005820:	f000 80a5 	beq.w	800596e <HAL_UART_IRQHandler+0x1ba>
 8005824:	69fb      	ldr	r3, [r7, #28]
 8005826:	f003 0301 	and.w	r3, r3, #1
 800582a:	2b00      	cmp	r3, #0
 800582c:	d00a      	beq.n	8005844 <HAL_UART_IRQHandler+0x90>
 800582e:	69bb      	ldr	r3, [r7, #24]
 8005830:	f403 7380 	and.w	r3, r3, #256	; 0x100
 8005834:	2b00      	cmp	r3, #0
 8005836:	d005      	beq.n	8005844 <HAL_UART_IRQHandler+0x90>
 8005838:	687b      	ldr	r3, [r7, #4]
 800583a:	6bdb      	ldr	r3, [r3, #60]	; 0x3c
 800583c:	f043 0201 	orr.w	r2, r3, #1
 8005840:	687b      	ldr	r3, [r7, #4]
 8005842:	63da      	str	r2, [r3, #60]	; 0x3c
 8005844:	69fb      	ldr	r3, [r7, #28]
 8005846:	f003 0304 	and.w	r3, r3, #4
 800584a:	2b00      	cmp	r3, #0
 800584c:	d00a      	beq.n	8005864 <HAL_UART_IRQHandler+0xb0>
 800584e:	697b      	ldr	r3, [r7, #20]
 8005850:	f003 0301 	and.w	r3, r3, #1
 8005854:	2b00      	cmp	r3, #0
 8005856:	d005      	beq.n	8005864 <HAL_UART_IRQHandler+0xb0>
 8005858:	687b      	ldr	r3, [r7, #4]
 800585a:	6bdb      	ldr	r3, [r3, #60]	; 0x3c
 800585c:	f043 0202 	orr.w	r2, r3, #2
 8005860:	687b      	ldr	r3, [r7, #4]
 8005862:	63da      	str	r2, [r3, #60]	; 0x3c
 8005864:	69fb      	ldr	r3, [r7, #28]
 8005866:	f003 0302 	and.w	r3, r3, #2
 800586a:	2b00      	cmp	r3, #0
 800586c:	d00a      	beq.n	8005884 <HAL_UART_IRQHandler+0xd0>
 800586e:	697b      	ldr	r3, [r7, #20]
 8005870:	f003 0301 	and.w	r3, r3, #1
 8005874:	2b00      	cmp	r3, #0
 8005876:	d005      	beq.n	8005884 <HAL_UART_IRQHandler+0xd0>
 8005878:	687b      	ldr	r3, [r7, #4]
 800587a:	6bdb      	ldr	r3, [r3, #60]	; 0x3c
 800587c:	f043 0204 	orr.w	r2, r3, #4
 8005880:	687b      	ldr	r3, [r7, #4]
 8005882:	63da      	str	r2, [r3, #60]	; 0x3c
 8005884:	69fb      	ldr	r3, [r7, #28]
 8005886:	f003 0308 	and.w	r3, r3, #8
 800588a:	2b00      	cmp	r3, #0
 800588c:	d00f      	beq.n	80058ae <HAL_UART_IRQHandler+0xfa>
 800588e:	69bb      	ldr	r3, [r7, #24]
 8005890:	f003 0320 	and.w	r3, r3, #32
 8005894:	2b00      	cmp	r3, #0
 8005896:	d104      	bne.n	80058a2 <HAL_UART_IRQHandler+0xee>
 8005898:	697b      	ldr	r3, [r7, #20]
 800589a:	f003 0301 	and.w	r3, r3, #1
 800589e:	2b00      	cmp	r3, #0
 80058a0:	d005      	beq.n	80058ae <HAL_UART_IRQHandler+0xfa>
 80058a2:	687b      	ldr	r3, [r7, #4]
 80058a4:	6bdb      	ldr	r3, [r3, #60]	; 0x3c
 80058a6:	f043 0208 	orr.w	r2, r3, #8
 80058aa:	687b      	ldr	r3, [r7, #4]
 80058ac:	63da      	str	r2, [r3, #60]	; 0x3c
 80058ae:	687b      	ldr	r3, [r7, #4]
 80058b0:	6bdb      	ldr	r3, [r3, #60]	; 0x3c
 80058b2:	2b00      	cmp	r3, #0
 80058b4:	d078      	beq.n	80059a8 <HAL_UART_IRQHandler+0x1f4>
 80058b6:	69fb      	ldr	r3, [r7, #28]
 80058b8:	f003 0320 	and.w	r3, r3, #32
 80058bc:	2b00      	cmp	r3, #0
 80058be:	d007      	beq.n	80058d0 <HAL_UART_IRQHandler+0x11c>
 80058c0:	69bb      	ldr	r3, [r7, #24]
 80058c2:	f003 0320 	and.w	r3, r3, #32
 80058c6:	2b00      	cmp	r3, #0
 80058c8:	d002      	beq.n	80058d0 <HAL_UART_IRQHandler+0x11c>
 80058ca:	6878      	ldr	r0, [r7, #4]
 80058cc:	f000 f970 	bl	8005bb0 <UART_Receive_IT>
 80058d0:	687b      	ldr	r3, [r7, #4]
 80058d2:	681b      	ldr	r3, [r3, #0]
 80058d4:	695b      	ldr	r3, [r3, #20]
 80058d6:	f003 0340 	and.w	r3, r3, #64	; 0x40
 80058da:	2b40      	cmp	r3, #64	; 0x40
 80058dc:	bf0c      	ite	eq
 80058de:	2301      	moveq	r3, #1
 80058e0:	2300      	movne	r3, #0
 80058e2:	b2db      	uxtb	r3, r3
 80058e4:	60fb      	str	r3, [r7, #12]
 80058e6:	687b      	ldr	r3, [r7, #4]
 80058e8:	6bdb      	ldr	r3, [r3, #60]	; 0x3c
 80058ea:	f003 0308 	and.w	r3, r3, #8
 80058ee:	2b00      	cmp	r3, #0
 80058f0:	d102      	bne.n	80058f8 <HAL_UART_IRQHandler+0x144>
 80058f2:	68fb      	ldr	r3, [r7, #12]
 80058f4:	2b00      	cmp	r3, #0
 80058f6:	d031      	beq.n	800595c <HAL_UART_IRQHandler+0x1a8>
 80058f8:	6878      	ldr	r0, [r7, #4]
 80058fa:	f000 f8b9 	bl	8005a70 <UART_EndRxTransfer>
 80058fe:	687b      	ldr	r3, [r7, #4]
 8005900:	681b      	ldr	r3, [r3, #0]
 8005902:	695b      	ldr	r3, [r3, #20]
 8005904:	f003 0340 	and.w	r3, r3, #64	; 0x40
 8005908:	2b40      	cmp	r3, #64	; 0x40
 800590a:	d123      	bne.n	8005954 <HAL_UART_IRQHandler+0x1a0>
 800590c:	687b      	ldr	r3, [r7, #4]
 800590e:	681b      	ldr	r3, [r3, #0]
 8005910:	695a      	ldr	r2, [r3, #20]
 8005912:	687b      	ldr	r3, [r7, #4]
 8005914:	681b      	ldr	r3, [r3, #0]
 8005916:	f022 0240 	bic.w	r2, r2, #64	; 0x40
 800591a:	615a      	str	r2, [r3, #20]
 800591c:	687b      	ldr	r3, [r7, #4]
 800591e:	6b5b      	ldr	r3, [r3, #52]	; 0x34
 8005920:	2b00      	cmp	r3, #0
 8005922:	d013      	beq.n	800594c <HAL_UART_IRQHandler+0x198>
 8005924:	687b      	ldr	r3, [r7, #4]
 8005926:	6b5b      	ldr	r3, [r3, #52]	; 0x34
 8005928:	4a21      	ldr	r2, [pc, #132]	; (80059b0 <HAL_UART_IRQHandler+0x1fc>)
 800592a:	651a      	str	r2, [r3, #80]	; 0x50
 800592c:	687b      	ldr	r3, [r7, #4]
 800592e:	6b5b      	ldr	r3, [r3, #52]	; 0x34
 8005930:	4618      	mov	r0, r3
 8005932:	f7fd f9d5 	bl	8002ce0 <HAL_DMA_Abort_IT>
 8005936:	4603      	mov	r3, r0
 8005938:	2b00      	cmp	r3, #0
 800593a:	d016      	beq.n	800596a <HAL_UART_IRQHandler+0x1b6>
 800593c:	687b      	ldr	r3, [r7, #4]
 800593e:	6b5b      	ldr	r3, [r3, #52]	; 0x34
 8005940:	6d1b      	ldr	r3, [r3, #80]	; 0x50
 8005942:	687a      	ldr	r2, [r7, #4]
 8005944:	6b52      	ldr	r2, [r2, #52]	; 0x34
 8005946:	4610      	mov	r0, r2
 8005948:	4798      	blx	r3
 800594a:	e00e      	b.n	800596a <HAL_UART_IRQHandler+0x1b6>
 800594c:	6878      	ldr	r0, [r7, #4]
 800594e:	f000 f83b 	bl	80059c8 <HAL_UART_ErrorCallback>
 8005952:	e00a      	b.n	800596a <HAL_UART_IRQHandler+0x1b6>
 8005954:	6878      	ldr	r0, [r7, #4]
 8005956:	f000 f837 	bl	80059c8 <HAL_UART_ErrorCallback>
 800595a:	e006      	b.n	800596a <HAL_UART_IRQHandler+0x1b6>
 800595c:	6878      	ldr	r0, [r7, #4]
 800595e:	f000 f833 	bl	80059c8 <HAL_UART_ErrorCallback>
 8005962:	687b      	ldr	r3, [r7, #4]
 8005964:	2200      	movs	r2, #0
 8005966:	63da      	str	r2, [r3, #60]	; 0x3c
 8005968:	e01e      	b.n	80059a8 <HAL_UART_IRQHandler+0x1f4>
 800596a:	bf00      	nop
 800596c:	e01c      	b.n	80059a8 <HAL_UART_IRQHandler+0x1f4>
 800596e:	69fb      	ldr	r3, [r7, #28]
 8005970:	f003 0380 	and.w	r3, r3, #128	; 0x80
 8005974:	2b00      	cmp	r3, #0
 8005976:	d008      	beq.n	800598a <HAL_UART_IRQHandler+0x1d6>
 8005978:	69bb      	ldr	r3, [r7, #24]
 800597a:	f003 0380 	and.w	r3, r3, #128	; 0x80
 800597e:	2b00      	cmp	r3, #0
 8005980:	d003      	beq.n	800598a <HAL_UART_IRQHandler+0x1d6>
 8005982:	6878      	ldr	r0, [r7, #4]
 8005984:	f000 f8a6 	bl	8005ad4 <UART_Transmit_IT>
 8005988:	e00f      	b.n	80059aa <HAL_UART_IRQHandler+0x1f6>
 800598a:	69fb      	ldr	r3, [r7, #28]
 800598c:	f003 0340 	and.w	r3, r3, #64	; 0x40
 8005990:	2b00      	cmp	r3, #0
 8005992:	d00a      	beq.n	80059aa <HAL_UART_IRQHandler+0x1f6>
 8005994:	69bb      	ldr	r3, [r7, #24]
 8005996:	f003 0340 	and.w	r3, r3, #64	; 0x40
 800599a:	2b00      	cmp	r3, #0
 800599c:	d005      	beq.n	80059aa <HAL_UART_IRQHandler+0x1f6>
 800599e:	6878      	ldr	r0, [r7, #4]
 80059a0:	f000 f8ee 	bl	8005b80 <UART_EndTransmit_IT>
 80059a4:	bf00      	nop
 80059a6:	e000      	b.n	80059aa <HAL_UART_IRQHandler+0x1f6>
 80059a8:	bf00      	nop
 80059aa:	3720      	adds	r7, #32
 80059ac:	46bd      	mov	sp, r7
 80059ae:	bd80      	pop	{r7, pc}
 80059b0:	08005aad 	.word	0x08005aad

080059b4 <HAL_UART_TxCpltCallback>:
 80059b4:	b480      	push	{r7}
 80059b6:	b083      	sub	sp, #12
 80059b8:	af00      	add	r7, sp, #0
 80059ba:	6078      	str	r0, [r7, #4]
 80059bc:	bf00      	nop
 80059be:	370c      	adds	r7, #12
 80059c0:	46bd      	mov	sp, r7
 80059c2:	f85d 7b04 	ldr.w	r7, [sp], #4
 80059c6:	4770      	bx	lr

080059c8 <HAL_UART_ErrorCallback>:
 80059c8:	b480      	push	{r7}
 80059ca:	b083      	sub	sp, #12
 80059cc:	af00      	add	r7, sp, #0
 80059ce:	6078      	str	r0, [r7, #4]
 80059d0:	bf00      	nop
 80059d2:	370c      	adds	r7, #12
 80059d4:	46bd      	mov	sp, r7
 80059d6:	f85d 7b04 	ldr.w	r7, [sp], #4
 80059da:	4770      	bx	lr

080059dc <UART_WaitOnFlagUntilTimeout>:
 80059dc:	b580      	push	{r7, lr}
 80059de:	b084      	sub	sp, #16
 80059e0:	af00      	add	r7, sp, #0
 80059e2:	60f8      	str	r0, [r7, #12]
 80059e4:	60b9      	str	r1, [r7, #8]
 80059e6:	603b      	str	r3, [r7, #0]
 80059e8:	4613      	mov	r3, r2
 80059ea:	71fb      	strb	r3, [r7, #7]
 80059ec:	e02c      	b.n	8005a48 <UART_WaitOnFlagUntilTimeout+0x6c>
 80059ee:	69bb      	ldr	r3, [r7, #24]
 80059f0:	f1b3 3fff 	cmp.w	r3, #4294967295
 80059f4:	d028      	beq.n	8005a48 <UART_WaitOnFlagUntilTimeout+0x6c>
 80059f6:	69bb      	ldr	r3, [r7, #24]
 80059f8:	2b00      	cmp	r3, #0
 80059fa:	d007      	beq.n	8005a0c <UART_WaitOnFlagUntilTimeout+0x30>
 80059fc:	f7fc ff2a 	bl	8002854 <HAL_GetTick>
 8005a00:	4602      	mov	r2, r0
 8005a02:	683b      	ldr	r3, [r7, #0]
 8005a04:	1ad3      	subs	r3, r2, r3
 8005a06:	69ba      	ldr	r2, [r7, #24]
 8005a08:	429a      	cmp	r2, r3
 8005a0a:	d21d      	bcs.n	8005a48 <UART_WaitOnFlagUntilTimeout+0x6c>
 8005a0c:	68fb      	ldr	r3, [r7, #12]
 8005a0e:	681b      	ldr	r3, [r3, #0]
 8005a10:	68da      	ldr	r2, [r3, #12]
 8005a12:	68fb      	ldr	r3, [r7, #12]
 8005a14:	681b      	ldr	r3, [r3, #0]
 8005a16:	f422 72d0 	bic.w	r2, r2, #416	; 0x1a0
 8005a1a:	60da      	str	r2, [r3, #12]
 8005a1c:	68fb      	ldr	r3, [r7, #12]
 8005a1e:	681b      	ldr	r3, [r3, #0]
 8005a20:	695a      	ldr	r2, [r3, #20]
 8005a22:	68fb      	ldr	r3, [r7, #12]
 8005a24:	681b      	ldr	r3, [r3, #0]
 8005a26:	f022 0201 	bic.w	r2, r2, #1
 8005a2a:	615a      	str	r2, [r3, #20]
 8005a2c:	68fb      	ldr	r3, [r7, #12]
 8005a2e:	2220      	movs	r2, #32
 8005a30:	f883 2039 	strb.w	r2, [r3, #57]	; 0x39
 8005a34:	68fb      	ldr	r3, [r7, #12]
 8005a36:	2220      	movs	r2, #32
 8005a38:	f883 203a 	strb.w	r2, [r3, #58]	; 0x3a
 8005a3c:	68fb      	ldr	r3, [r7, #12]
 8005a3e:	2200      	movs	r2, #0
 8005a40:	f883 2038 	strb.w	r2, [r3, #56]	; 0x38
 8005a44:	2303      	movs	r3, #3
 8005a46:	e00f      	b.n	8005a68 <UART_WaitOnFlagUntilTimeout+0x8c>
 8005a48:	68fb      	ldr	r3, [r7, #12]
 8005a4a:	681b      	ldr	r3, [r3, #0]
 8005a4c:	681a      	ldr	r2, [r3, #0]
 8005a4e:	68bb      	ldr	r3, [r7, #8]
 8005a50:	4013      	ands	r3, r2
 8005a52:	68ba      	ldr	r2, [r7, #8]
 8005a54:	429a      	cmp	r2, r3
 8005a56:	bf0c      	ite	eq
 8005a58:	2301      	moveq	r3, #1
 8005a5a:	2300      	movne	r3, #0
 8005a5c:	b2db      	uxtb	r3, r3
 8005a5e:	461a      	mov	r2, r3
 8005a60:	79fb      	ldrb	r3, [r7, #7]
 8005a62:	429a      	cmp	r2, r3
 8005a64:	d0c3      	beq.n	80059ee <UART_WaitOnFlagUntilTimeout+0x12>
 8005a66:	2300      	movs	r3, #0
 8005a68:	4618      	mov	r0, r3
 8005a6a:	3710      	adds	r7, #16
 8005a6c:	46bd      	mov	sp, r7
 8005a6e:	bd80      	pop	{r7, pc}

08005a70 <UART_EndRxTransfer>:
 8005a70:	b480      	push	{r7}
 8005a72:	b083      	sub	sp, #12
 8005a74:	af00      	add	r7, sp, #0
 8005a76:	6078      	str	r0, [r7, #4]
 8005a78:	687b      	ldr	r3, [r7, #4]
 8005a7a:	681b      	ldr	r3, [r3, #0]
 8005a7c:	68da      	ldr	r2, [r3, #12]
 8005a7e:	687b      	ldr	r3, [r7, #4]
 8005a80:	681b      	ldr	r3, [r3, #0]
 8005a82:	f422 7290 	bic.w	r2, r2, #288	; 0x120
 8005a86:	60da      	str	r2, [r3, #12]
 8005a88:	687b      	ldr	r3, [r7, #4]
 8005a8a:	681b      	ldr	r3, [r3, #0]
 8005a8c:	695a      	ldr	r2, [r3, #20]
 8005a8e:	687b      	ldr	r3, [r7, #4]
 8005a90:	681b      	ldr	r3, [r3, #0]
 8005a92:	f022 0201 	bic.w	r2, r2, #1
 8005a96:	615a      	str	r2, [r3, #20]
 8005a98:	687b      	ldr	r3, [r7, #4]
 8005a9a:	2220      	movs	r2, #32
 8005a9c:	f883 203a 	strb.w	r2, [r3, #58]	; 0x3a
 8005aa0:	bf00      	nop
 8005aa2:	370c      	adds	r7, #12
 8005aa4:	46bd      	mov	sp, r7
 8005aa6:	f85d 7b04 	ldr.w	r7, [sp], #4
 8005aaa:	4770      	bx	lr

08005aac <UART_DMAAbortOnError>:
 8005aac:	b580      	push	{r7, lr}
 8005aae:	b084      	sub	sp, #16
 8005ab0:	af00      	add	r7, sp, #0
 8005ab2:	6078      	str	r0, [r7, #4]
 8005ab4:	687b      	ldr	r3, [r7, #4]
 8005ab6:	6b9b      	ldr	r3, [r3, #56]	; 0x38
 8005ab8:	60fb      	str	r3, [r7, #12]
 8005aba:	68fb      	ldr	r3, [r7, #12]
 8005abc:	2200      	movs	r2, #0
 8005abe:	85da      	strh	r2, [r3, #46]	; 0x2e
 8005ac0:	68fb      	ldr	r3, [r7, #12]
 8005ac2:	2200      	movs	r2, #0
 8005ac4:	84da      	strh	r2, [r3, #38]	; 0x26
 8005ac6:	68f8      	ldr	r0, [r7, #12]
 8005ac8:	f7ff ff7e 	bl	80059c8 <HAL_UART_ErrorCallback>
 8005acc:	bf00      	nop
 8005ace:	3710      	adds	r7, #16
 8005ad0:	46bd      	mov	sp, r7
 8005ad2:	bd80      	pop	{r7, pc}

08005ad4 <UART_Transmit_IT>:
 8005ad4:	b480      	push	{r7}
 8005ad6:	b085      	sub	sp, #20
 8005ad8:	af00      	add	r7, sp, #0
 8005ada:	6078      	str	r0, [r7, #4]
 8005adc:	687b      	ldr	r3, [r7, #4]
 8005ade:	f893 3039 	ldrb.w	r3, [r3, #57]	; 0x39
 8005ae2:	b2db      	uxtb	r3, r3
 8005ae4:	2b21      	cmp	r3, #33	; 0x21
 8005ae6:	d144      	bne.n	8005b72 <UART_Transmit_IT+0x9e>
 8005ae8:	687b      	ldr	r3, [r7, #4]
 8005aea:	689b      	ldr	r3, [r3, #8]
 8005aec:	f5b3 5f80 	cmp.w	r3, #4096	; 0x1000
 8005af0:	d11a      	bne.n	8005b28 <UART_Transmit_IT+0x54>
 8005af2:	687b      	ldr	r3, [r7, #4]
 8005af4:	6a1b      	ldr	r3, [r3, #32]
 8005af6:	60fb      	str	r3, [r7, #12]
 8005af8:	68fb      	ldr	r3, [r7, #12]
 8005afa:	881b      	ldrh	r3, [r3, #0]
 8005afc:	461a      	mov	r2, r3
 8005afe:	687b      	ldr	r3, [r7, #4]
 8005b00:	681b      	ldr	r3, [r3, #0]
 8005b02:	f3c2 0208 	ubfx	r2, r2, #0, #9
 8005b06:	605a      	str	r2, [r3, #4]
 8005b08:	687b      	ldr	r3, [r7, #4]
 8005b0a:	691b      	ldr	r3, [r3, #16]
 8005b0c:	2b00      	cmp	r3, #0
 8005b0e:	d105      	bne.n	8005b1c <UART_Transmit_IT+0x48>
 8005b10:	687b      	ldr	r3, [r7, #4]
 8005b12:	6a1b      	ldr	r3, [r3, #32]
 8005b14:	1c9a      	adds	r2, r3, #2
 8005b16:	687b      	ldr	r3, [r7, #4]
 8005b18:	621a      	str	r2, [r3, #32]
 8005b1a:	e00e      	b.n	8005b3a <UART_Transmit_IT+0x66>
 8005b1c:	687b      	ldr	r3, [r7, #4]
 8005b1e:	6a1b      	ldr	r3, [r3, #32]
 8005b20:	1c5a      	adds	r2, r3, #1
 8005b22:	687b      	ldr	r3, [r7, #4]
 8005b24:	621a      	str	r2, [r3, #32]
 8005b26:	e008      	b.n	8005b3a <UART_Transmit_IT+0x66>
 8005b28:	687b      	ldr	r3, [r7, #4]
 8005b2a:	6a1b      	ldr	r3, [r3, #32]
 8005b2c:	1c59      	adds	r1, r3, #1
 8005b2e:	687a      	ldr	r2, [r7, #4]
 8005b30:	6211      	str	r1, [r2, #32]
 8005b32:	781a      	ldrb	r2, [r3, #0]
 8005b34:	687b      	ldr	r3, [r7, #4]
 8005b36:	681b      	ldr	r3, [r3, #0]
 8005b38:	605a      	str	r2, [r3, #4]
 8005b3a:	687b      	ldr	r3, [r7, #4]
 8005b3c:	8cdb      	ldrh	r3, [r3, #38]	; 0x26
 8005b3e:	b29b      	uxth	r3, r3
 8005b40:	3b01      	subs	r3, #1
 8005b42:	b29b      	uxth	r3, r3
 8005b44:	687a      	ldr	r2, [r7, #4]
 8005b46:	4619      	mov	r1, r3
 8005b48:	84d1      	strh	r1, [r2, #38]	; 0x26
 8005b4a:	2b00      	cmp	r3, #0
 8005b4c:	d10f      	bne.n	8005b6e <UART_Transmit_IT+0x9a>
 8005b4e:	687b      	ldr	r3, [r7, #4]
 8005b50:	681b      	ldr	r3, [r3, #0]
 8005b52:	68da      	ldr	r2, [r3, #12]
 8005b54:	687b      	ldr	r3, [r7, #4]
 8005b56:	681b      	ldr	r3, [r3, #0]
 8005b58:	f022 0280 	bic.w	r2, r2, #128	; 0x80
 8005b5c:	60da      	str	r2, [r3, #12]
 8005b5e:	687b      	ldr	r3, [r7, #4]
 8005b60:	681b      	ldr	r3, [r3, #0]
 8005b62:	68da      	ldr	r2, [r3, #12]
 8005b64:	687b      	ldr	r3, [r7, #4]
 8005b66:	681b      	ldr	r3, [r3, #0]
 8005b68:	f042 0240 	orr.w	r2, r2, #64	; 0x40
 8005b6c:	60da      	str	r2, [r3, #12]
 8005b6e:	2300      	movs	r3, #0
 8005b70:	e000      	b.n	8005b74 <UART_Transmit_IT+0xa0>
 8005b72:	2302      	movs	r3, #2
 8005b74:	4618      	mov	r0, r3
 8005b76:	3714      	adds	r7, #20
 8005b78:	46bd      	mov	sp, r7
 8005b7a:	f85d 7b04 	ldr.w	r7, [sp], #4
 8005b7e:	4770      	bx	lr

08005b80 <UART_EndTransmit_IT>:
 8005b80:	b580      	push	{r7, lr}
 8005b82:	b082      	sub	sp, #8
 8005b84:	af00      	add	r7, sp, #0
 8005b86:	6078      	str	r0, [r7, #4]
 8005b88:	687b      	ldr	r3, [r7, #4]
 8005b8a:	681b      	ldr	r3, [r3, #0]
 8005b8c:	68da      	ldr	r2, [r3, #12]
 8005b8e:	687b      	ldr	r3, [r7, #4]
 8005b90:	681b      	ldr	r3, [r3, #0]
 8005b92:	f022 0240 	bic.w	r2, r2, #64	; 0x40
 8005b96:	60da      	str	r2, [r3, #12]
 8005b98:	687b      	ldr	r3, [r7, #4]
 8005b9a:	2220      	movs	r2, #32
 8005b9c:	f883 2039 	strb.w	r2, [r3, #57]	; 0x39
 8005ba0:	6878      	ldr	r0, [r7, #4]
 8005ba2:	f7ff ff07 	bl	80059b4 <HAL_UART_TxCpltCallback>
 8005ba6:	2300      	movs	r3, #0
 8005ba8:	4618      	mov	r0, r3
 8005baa:	3708      	adds	r7, #8
 8005bac:	46bd      	mov	sp, r7
 8005bae:	bd80      	pop	{r7, pc}

08005bb0 <UART_Receive_IT>:
 8005bb0:	b580      	push	{r7, lr}
 8005bb2:	b084      	sub	sp, #16
 8005bb4:	af00      	add	r7, sp, #0
 8005bb6:	6078      	str	r0, [r7, #4]
 8005bb8:	687b      	ldr	r3, [r7, #4]
 8005bba:	f893 303a 	ldrb.w	r3, [r3, #58]	; 0x3a
 8005bbe:	b2db      	uxtb	r3, r3
 8005bc0:	2b22      	cmp	r3, #34	; 0x22
 8005bc2:	d171      	bne.n	8005ca8 <UART_Receive_IT+0xf8>
 8005bc4:	687b      	ldr	r3, [r7, #4]
 8005bc6:	689b      	ldr	r3, [r3, #8]
 8005bc8:	f5b3 5f80 	cmp.w	r3, #4096	; 0x1000
 8005bcc:	d123      	bne.n	8005c16 <UART_Receive_IT+0x66>
 8005bce:	687b      	ldr	r3, [r7, #4]
 8005bd0:	6a9b      	ldr	r3, [r3, #40]	; 0x28
 8005bd2:	60fb      	str	r3, [r7, #12]
 8005bd4:	687b      	ldr	r3, [r7, #4]
 8005bd6:	691b      	ldr	r3, [r3, #16]
 8005bd8:	2b00      	cmp	r3, #0
 8005bda:	d10e      	bne.n	8005bfa <UART_Receive_IT+0x4a>
 8005bdc:	687b      	ldr	r3, [r7, #4]
 8005bde:	681b      	ldr	r3, [r3, #0]
 8005be0:	685b      	ldr	r3, [r3, #4]
 8005be2:	b29b      	uxth	r3, r3
 8005be4:	f3c3 0308 	ubfx	r3, r3, #0, #9
 8005be8:	b29a      	uxth	r2, r3
 8005bea:	68fb      	ldr	r3, [r7, #12]
 8005bec:	801a      	strh	r2, [r3, #0]
 8005bee:	687b      	ldr	r3, [r7, #4]
 8005bf0:	6a9b      	ldr	r3, [r3, #40]	; 0x28
 8005bf2:	1c9a      	adds	r2, r3, #2
 8005bf4:	687b      	ldr	r3, [r7, #4]
 8005bf6:	629a      	str	r2, [r3, #40]	; 0x28
 8005bf8:	e029      	b.n	8005c4e <UART_Receive_IT+0x9e>
 8005bfa:	687b      	ldr	r3, [r7, #4]
 8005bfc:	681b      	ldr	r3, [r3, #0]
 8005bfe:	685b      	ldr	r3, [r3, #4]
 8005c00:	b29b      	uxth	r3, r3
 8005c02:	b2db      	uxtb	r3, r3
 8005c04:	b29a      	uxth	r2, r3
 8005c06:	68fb      	ldr	r3, [r7, #12]
 8005c08:	801a      	strh	r2, [r3, #0]
 8005c0a:	687b      	ldr	r3, [r7, #4]
 8005c0c:	6a9b      	ldr	r3, [r3, #40]	; 0x28
 8005c0e:	1c5a      	adds	r2, r3, #1
 8005c10:	687b      	ldr	r3, [r7, #4]
 8005c12:	629a      	str	r2, [r3, #40]	; 0x28
 8005c14:	e01b      	b.n	8005c4e <UART_Receive_IT+0x9e>
 8005c16:	687b      	ldr	r3, [r7, #4]
 8005c18:	691b      	ldr	r3, [r3, #16]
 8005c1a:	2b00      	cmp	r3, #0
 8005c1c:	d10a      	bne.n	8005c34 <UART_Receive_IT+0x84>
 8005c1e:	687b      	ldr	r3, [r7, #4]
 8005c20:	681b      	ldr	r3, [r3, #0]
 8005c22:	6858      	ldr	r0, [r3, #4]
 8005c24:	687b      	ldr	r3, [r7, #4]
 8005c26:	6a9b      	ldr	r3, [r3, #40]	; 0x28
 8005c28:	1c59      	adds	r1, r3, #1
 8005c2a:	687a      	ldr	r2, [r7, #4]
 8005c2c:	6291      	str	r1, [r2, #40]	; 0x28
 8005c2e:	b2c2      	uxtb	r2, r0
 8005c30:	701a      	strb	r2, [r3, #0]
 8005c32:	e00c      	b.n	8005c4e <UART_Receive_IT+0x9e>
 8005c34:	687b      	ldr	r3, [r7, #4]
 8005c36:	681b      	ldr	r3, [r3, #0]
 8005c38:	685b      	ldr	r3, [r3, #4]
 8005c3a:	b2da      	uxtb	r2, r3
 8005c3c:	687b      	ldr	r3, [r7, #4]
 8005c3e:	6a9b      	ldr	r3, [r3, #40]	; 0x28
 8005c40:	1c58      	adds	r0, r3, #1
 8005c42:	6879      	ldr	r1, [r7, #4]
 8005c44:	6288      	str	r0, [r1, #40]	; 0x28
 8005c46:	f002 027f 	and.w	r2, r2, #127	; 0x7f
 8005c4a:	b2d2      	uxtb	r2, r2
 8005c4c:	701a      	strb	r2, [r3, #0]
 8005c4e:	687b      	ldr	r3, [r7, #4]
 8005c50:	8ddb      	ldrh	r3, [r3, #46]	; 0x2e
 8005c52:	b29b      	uxth	r3, r3
 8005c54:	3b01      	subs	r3, #1
 8005c56:	b29b      	uxth	r3, r3
 8005c58:	687a      	ldr	r2, [r7, #4]
 8005c5a:	4619      	mov	r1, r3
 8005c5c:	85d1      	strh	r1, [r2, #46]	; 0x2e
 8005c5e:	2b00      	cmp	r3, #0
 8005c60:	d120      	bne.n	8005ca4 <UART_Receive_IT+0xf4>
 8005c62:	687b      	ldr	r3, [r7, #4]
 8005c64:	681b      	ldr	r3, [r3, #0]
 8005c66:	68da      	ldr	r2, [r3, #12]
 8005c68:	687b      	ldr	r3, [r7, #4]
 8005c6a:	681b      	ldr	r3, [r3, #0]
 8005c6c:	f022 0220 	bic.w	r2, r2, #32
 8005c70:	60da      	str	r2, [r3, #12]
 8005c72:	687b      	ldr	r3, [r7, #4]
 8005c74:	681b      	ldr	r3, [r3, #0]
 8005c76:	68da      	ldr	r2, [r3, #12]
 8005c78:	687b      	ldr	r3, [r7, #4]
 8005c7a:	681b      	ldr	r3, [r3, #0]
 8005c7c:	f422 7280 	bic.w	r2, r2, #256	; 0x100
 8005c80:	60da      	str	r2, [r3, #12]
 8005c82:	687b      	ldr	r3, [r7, #4]
 8005c84:	681b      	ldr	r3, [r3, #0]
 8005c86:	695a      	ldr	r2, [r3, #20]
 8005c88:	687b      	ldr	r3, [r7, #4]
 8005c8a:	681b      	ldr	r3, [r3, #0]
 8005c8c:	f022 0201 	bic.w	r2, r2, #1
 8005c90:	615a      	str	r2, [r3, #20]
 8005c92:	687b      	ldr	r3, [r7, #4]
 8005c94:	2220      	movs	r2, #32
 8005c96:	f883 203a 	strb.w	r2, [r3, #58]	; 0x3a
 8005c9a:	6878      	ldr	r0, [r7, #4]
 8005c9c:	f7fb ff6c 	bl	8001b78 <HAL_UART_RxCpltCallback>
 8005ca0:	2300      	movs	r3, #0
 8005ca2:	e002      	b.n	8005caa <UART_Receive_IT+0xfa>
 8005ca4:	2300      	movs	r3, #0
 8005ca6:	e000      	b.n	8005caa <UART_Receive_IT+0xfa>
 8005ca8:	2302      	movs	r3, #2
 8005caa:	4618      	mov	r0, r3
 8005cac:	3710      	adds	r7, #16
 8005cae:	46bd      	mov	sp, r7
 8005cb0:	bd80      	pop	{r7, pc}
	...

08005cb4 <UART_SetConfig>:
 8005cb4:	e92d 4ff0 	stmdb	sp!, {r4, r5, r6, r7, r8, r9, sl, fp, lr}
 8005cb8:	b085      	sub	sp, #20
 8005cba:	af00      	add	r7, sp, #0
 8005cbc:	6078      	str	r0, [r7, #4]
 8005cbe:	687b      	ldr	r3, [r7, #4]
 8005cc0:	681b      	ldr	r3, [r3, #0]
 8005cc2:	691b      	ldr	r3, [r3, #16]
 8005cc4:	f423 5140 	bic.w	r1, r3, #12288	; 0x3000
 8005cc8:	687b      	ldr	r3, [r7, #4]
 8005cca:	68da      	ldr	r2, [r3, #12]
 8005ccc:	687b      	ldr	r3, [r7, #4]
 8005cce:	681b      	ldr	r3, [r3, #0]
 8005cd0:	430a      	orrs	r2, r1
 8005cd2:	611a      	str	r2, [r3, #16]
 8005cd4:	687b      	ldr	r3, [r7, #4]
 8005cd6:	689a      	ldr	r2, [r3, #8]
 8005cd8:	687b      	ldr	r3, [r7, #4]
 8005cda:	691b      	ldr	r3, [r3, #16]
 8005cdc:	431a      	orrs	r2, r3
 8005cde:	687b      	ldr	r3, [r7, #4]
 8005ce0:	695b      	ldr	r3, [r3, #20]
 8005ce2:	431a      	orrs	r2, r3
 8005ce4:	687b      	ldr	r3, [r7, #4]
 8005ce6:	69db      	ldr	r3, [r3, #28]
 8005ce8:	4313      	orrs	r3, r2
 8005cea:	60fb      	str	r3, [r7, #12]
 8005cec:	687b      	ldr	r3, [r7, #4]
 8005cee:	681b      	ldr	r3, [r3, #0]
 8005cf0:	68db      	ldr	r3, [r3, #12]
 8005cf2:	f423 4316 	bic.w	r3, r3, #38400	; 0x9600
 8005cf6:	f023 030c 	bic.w	r3, r3, #12
 8005cfa:	687a      	ldr	r2, [r7, #4]
 8005cfc:	6812      	ldr	r2, [r2, #0]
 8005cfe:	68f9      	ldr	r1, [r7, #12]
 8005d00:	430b      	orrs	r3, r1
 8005d02:	60d3      	str	r3, [r2, #12]
 8005d04:	687b      	ldr	r3, [r7, #4]
 8005d06:	681b      	ldr	r3, [r3, #0]
 8005d08:	695b      	ldr	r3, [r3, #20]
 8005d0a:	f423 7140 	bic.w	r1, r3, #768	; 0x300
 8005d0e:	687b      	ldr	r3, [r7, #4]
 8005d10:	699a      	ldr	r2, [r3, #24]
 8005d12:	687b      	ldr	r3, [r7, #4]
 8005d14:	681b      	ldr	r3, [r3, #0]
 8005d16:	430a      	orrs	r2, r1
 8005d18:	615a      	str	r2, [r3, #20]
 8005d1a:	687b      	ldr	r3, [r7, #4]
 8005d1c:	69db      	ldr	r3, [r3, #28]
 8005d1e:	f5b3 4f00 	cmp.w	r3, #32768	; 0x8000
 8005d22:	f040 818b 	bne.w	800603c <UART_SetConfig+0x388>
 8005d26:	687b      	ldr	r3, [r7, #4]
 8005d28:	681b      	ldr	r3, [r3, #0]
 8005d2a:	4ac1      	ldr	r2, [pc, #772]	; (8006030 <UART_SetConfig+0x37c>)
 8005d2c:	4293      	cmp	r3, r2
 8005d2e:	d005      	beq.n	8005d3c <UART_SetConfig+0x88>
 8005d30:	687b      	ldr	r3, [r7, #4]
 8005d32:	681b      	ldr	r3, [r3, #0]
 8005d34:	4abf      	ldr	r2, [pc, #764]	; (8006034 <UART_SetConfig+0x380>)
 8005d36:	4293      	cmp	r3, r2
 8005d38:	f040 80bd 	bne.w	8005eb6 <UART_SetConfig+0x202>
 8005d3c:	f7fe f81e 	bl	8003d7c <HAL_RCC_GetPCLK2Freq>
 8005d40:	60b8      	str	r0, [r7, #8]
 8005d42:	68bb      	ldr	r3, [r7, #8]
 8005d44:	461d      	mov	r5, r3
 8005d46:	f04f 0600 	mov.w	r6, #0
 8005d4a:	46a8      	mov	r8, r5
 8005d4c:	46b1      	mov	r9, r6
 8005d4e:	eb18 0308 	adds.w	r3, r8, r8
 8005d52:	eb49 0409 	adc.w	r4, r9, r9
 8005d56:	4698      	mov	r8, r3
 8005d58:	46a1      	mov	r9, r4
 8005d5a:	eb18 0805 	adds.w	r8, r8, r5
 8005d5e:	eb49 0906 	adc.w	r9, r9, r6
 8005d62:	f04f 0100 	mov.w	r1, #0
 8005d66:	f04f 0200 	mov.w	r2, #0
 8005d6a:	ea4f 02c9 	mov.w	r2, r9, lsl #3
 8005d6e:	ea42 7258 	orr.w	r2, r2, r8, lsr #29
 8005d72:	ea4f 01c8 	mov.w	r1, r8, lsl #3
 8005d76:	4688      	mov	r8, r1
 8005d78:	4691      	mov	r9, r2
 8005d7a:	eb18 0005 	adds.w	r0, r8, r5
 8005d7e:	eb49 0106 	adc.w	r1, r9, r6
 8005d82:	687b      	ldr	r3, [r7, #4]
 8005d84:	685b      	ldr	r3, [r3, #4]
 8005d86:	461d      	mov	r5, r3
 8005d88:	f04f 0600 	mov.w	r6, #0
 8005d8c:	196b      	adds	r3, r5, r5
 8005d8e:	eb46 0406 	adc.w	r4, r6, r6
 8005d92:	461a      	mov	r2, r3
 8005d94:	4623      	mov	r3, r4
 8005d96:	f7fa feab 	bl	8000af0 <__aeabi_uldivmod>
 8005d9a:	4603      	mov	r3, r0
 8005d9c:	460c      	mov	r4, r1
 8005d9e:	461a      	mov	r2, r3
 8005da0:	4ba5      	ldr	r3, [pc, #660]	; (8006038 <UART_SetConfig+0x384>)
 8005da2:	fba3 2302 	umull	r2, r3, r3, r2
 8005da6:	095b      	lsrs	r3, r3, #5
 8005da8:	ea4f 1803 	mov.w	r8, r3, lsl #4
 8005dac:	68bb      	ldr	r3, [r7, #8]
 8005dae:	461d      	mov	r5, r3
 8005db0:	f04f 0600 	mov.w	r6, #0
 8005db4:	46a9      	mov	r9, r5
 8005db6:	46b2      	mov	sl, r6
 8005db8:	eb19 0309 	adds.w	r3, r9, r9
 8005dbc:	eb4a 040a 	adc.w	r4, sl, sl
 8005dc0:	4699      	mov	r9, r3
 8005dc2:	46a2      	mov	sl, r4
 8005dc4:	eb19 0905 	adds.w	r9, r9, r5
 8005dc8:	eb4a 0a06 	adc.w	sl, sl, r6
 8005dcc:	f04f 0100 	mov.w	r1, #0
 8005dd0:	f04f 0200 	mov.w	r2, #0
 8005dd4:	ea4f 02ca 	mov.w	r2, sl, lsl #3
 8005dd8:	ea42 7259 	orr.w	r2, r2, r9, lsr #29
 8005ddc:	ea4f 01c9 	mov.w	r1, r9, lsl #3
 8005de0:	4689      	mov	r9, r1
 8005de2:	4692      	mov	sl, r2
 8005de4:	eb19 0005 	adds.w	r0, r9, r5
 8005de8:	eb4a 0106 	adc.w	r1, sl, r6
 8005dec:	687b      	ldr	r3, [r7, #4]
 8005dee:	685b      	ldr	r3, [r3, #4]
 8005df0:	461d      	mov	r5, r3
 8005df2:	f04f 0600 	mov.w	r6, #0
 8005df6:	196b      	adds	r3, r5, r5
 8005df8:	eb46 0406 	adc.w	r4, r6, r6
 8005dfc:	461a      	mov	r2, r3
 8005dfe:	4623      	mov	r3, r4
 8005e00:	f7fa fe76 	bl	8000af0 <__aeabi_uldivmod>
 8005e04:	4603      	mov	r3, r0
 8005e06:	460c      	mov	r4, r1
 8005e08:	461a      	mov	r2, r3
 8005e0a:	4b8b      	ldr	r3, [pc, #556]	; (8006038 <UART_SetConfig+0x384>)
 8005e0c:	fba3 1302 	umull	r1, r3, r3, r2
 8005e10:	095b      	lsrs	r3, r3, #5
 8005e12:	2164      	movs	r1, #100	; 0x64
 8005e14:	fb01 f303 	mul.w	r3, r1, r3
 8005e18:	1ad3      	subs	r3, r2, r3
 8005e1a:	00db      	lsls	r3, r3, #3
 8005e1c:	3332      	adds	r3, #50	; 0x32
 8005e1e:	4a86      	ldr	r2, [pc, #536]	; (8006038 <UART_SetConfig+0x384>)
 8005e20:	fba2 2303 	umull	r2, r3, r2, r3
 8005e24:	095b      	lsrs	r3, r3, #5
 8005e26:	005b      	lsls	r3, r3, #1
 8005e28:	f403 73f8 	and.w	r3, r3, #496	; 0x1f0
 8005e2c:	4498      	add	r8, r3
 8005e2e:	68bb      	ldr	r3, [r7, #8]
 8005e30:	461d      	mov	r5, r3
 8005e32:	f04f 0600 	mov.w	r6, #0
 8005e36:	46a9      	mov	r9, r5
 8005e38:	46b2      	mov	sl, r6
 8005e3a:	eb19 0309 	adds.w	r3, r9, r9
 8005e3e:	eb4a 040a 	adc.w	r4, sl, sl
 8005e42:	4699      	mov	r9, r3
 8005e44:	46a2      	mov	sl, r4
 8005e46:	eb19 0905 	adds.w	r9, r9, r5
 8005e4a:	eb4a 0a06 	adc.w	sl, sl, r6
 8005e4e:	f04f 0100 	mov.w	r1, #0
 8005e52:	f04f 0200 	mov.w	r2, #0
 8005e56:	ea4f 02ca 	mov.w	r2, sl, lsl #3
 8005e5a:	ea42 7259 	orr.w	r2, r2, r9, lsr #29
 8005e5e:	ea4f 01c9 	mov.w	r1, r9, lsl #3
 8005e62:	4689      	mov	r9, r1
 8005e64:	4692      	mov	sl, r2
 8005e66:	eb19 0005 	adds.w	r0, r9, r5
 8005e6a:	eb4a 0106 	adc.w	r1, sl, r6
 8005e6e:	687b      	ldr	r3, [r7, #4]
 8005e70:	685b      	ldr	r3, [r3, #4]
 8005e72:	461d      	mov	r5, r3
 8005e74:	f04f 0600 	mov.w	r6, #0
 8005e78:	196b      	adds	r3, r5, r5
 8005e7a:	eb46 0406 	adc.w	r4, r6, r6
 8005e7e:	461a      	mov	r2, r3
 8005e80:	4623      	mov	r3, r4
 8005e82:	f7fa fe35 	bl	8000af0 <__aeabi_uldivmod>
 8005e86:	4603      	mov	r3, r0
 8005e88:	460c      	mov	r4, r1
 8005e8a:	461a      	mov	r2, r3
 8005e8c:	4b6a      	ldr	r3, [pc, #424]	; (8006038 <UART_SetConfig+0x384>)
 8005e8e:	fba3 1302 	umull	r1, r3, r3, r2
 8005e92:	095b      	lsrs	r3, r3, #5
 8005e94:	2164      	movs	r1, #100	; 0x64
 8005e96:	fb01 f303 	mul.w	r3, r1, r3
 8005e9a:	1ad3      	subs	r3, r2, r3
 8005e9c:	00db      	lsls	r3, r3, #3
 8005e9e:	3332      	adds	r3, #50	; 0x32
 8005ea0:	4a65      	ldr	r2, [pc, #404]	; (8006038 <UART_SetConfig+0x384>)
 8005ea2:	fba2 2303 	umull	r2, r3, r2, r3
 8005ea6:	095b      	lsrs	r3, r3, #5
 8005ea8:	f003 0207 	and.w	r2, r3, #7
 8005eac:	687b      	ldr	r3, [r7, #4]
 8005eae:	681b      	ldr	r3, [r3, #0]
 8005eb0:	4442      	add	r2, r8
 8005eb2:	609a      	str	r2, [r3, #8]
 8005eb4:	e26f      	b.n	8006396 <UART_SetConfig+0x6e2>
 8005eb6:	f7fd ff4d 	bl	8003d54 <HAL_RCC_GetPCLK1Freq>
 8005eba:	60b8      	str	r0, [r7, #8]
 8005ebc:	68bb      	ldr	r3, [r7, #8]
 8005ebe:	461d      	mov	r5, r3
 8005ec0:	f04f 0600 	mov.w	r6, #0
 8005ec4:	46a8      	mov	r8, r5
 8005ec6:	46b1      	mov	r9, r6
 8005ec8:	eb18 0308 	adds.w	r3, r8, r8
 8005ecc:	eb49 0409 	adc.w	r4, r9, r9
 8005ed0:	4698      	mov	r8, r3
 8005ed2:	46a1      	mov	r9, r4
 8005ed4:	eb18 0805 	adds.w	r8, r8, r5
 8005ed8:	eb49 0906 	adc.w	r9, r9, r6
 8005edc:	f04f 0100 	mov.w	r1, #0
 8005ee0:	f04f 0200 	mov.w	r2, #0
 8005ee4:	ea4f 02c9 	mov.w	r2, r9, lsl #3
 8005ee8:	ea42 7258 	orr.w	r2, r2, r8, lsr #29
 8005eec:	ea4f 01c8 	mov.w	r1, r8, lsl #3
 8005ef0:	4688      	mov	r8, r1
 8005ef2:	4691      	mov	r9, r2
 8005ef4:	eb18 0005 	adds.w	r0, r8, r5
 8005ef8:	eb49 0106 	adc.w	r1, r9, r6
 8005efc:	687b      	ldr	r3, [r7, #4]
 8005efe:	685b      	ldr	r3, [r3, #4]
 8005f00:	461d      	mov	r5, r3
 8005f02:	f04f 0600 	mov.w	r6, #0
 8005f06:	196b      	adds	r3, r5, r5
 8005f08:	eb46 0406 	adc.w	r4, r6, r6
 8005f0c:	461a      	mov	r2, r3
 8005f0e:	4623      	mov	r3, r4
 8005f10:	f7fa fdee 	bl	8000af0 <__aeabi_uldivmod>
 8005f14:	4603      	mov	r3, r0
 8005f16:	460c      	mov	r4, r1
 8005f18:	461a      	mov	r2, r3
 8005f1a:	4b47      	ldr	r3, [pc, #284]	; (8006038 <UART_SetConfig+0x384>)
 8005f1c:	fba3 2302 	umull	r2, r3, r3, r2
 8005f20:	095b      	lsrs	r3, r3, #5
 8005f22:	ea4f 1803 	mov.w	r8, r3, lsl #4
 8005f26:	68bb      	ldr	r3, [r7, #8]
 8005f28:	461d      	mov	r5, r3
 8005f2a:	f04f 0600 	mov.w	r6, #0
 8005f2e:	46a9      	mov	r9, r5
 8005f30:	46b2      	mov	sl, r6
 8005f32:	eb19 0309 	adds.w	r3, r9, r9
 8005f36:	eb4a 040a 	adc.w	r4, sl, sl
 8005f3a:	4699      	mov	r9, r3
 8005f3c:	46a2      	mov	sl, r4
 8005f3e:	eb19 0905 	adds.w	r9, r9, r5
 8005f42:	eb4a 0a06 	adc.w	sl, sl, r6
 8005f46:	f04f 0100 	mov.w	r1, #0
 8005f4a:	f04f 0200 	mov.w	r2, #0
 8005f4e:	ea4f 02ca 	mov.w	r2, sl, lsl #3
 8005f52:	ea42 7259 	orr.w	r2, r2, r9, lsr #29
 8005f56:	ea4f 01c9 	mov.w	r1, r9, lsl #3
 8005f5a:	4689      	mov	r9, r1
 8005f5c:	4692      	mov	sl, r2
 8005f5e:	eb19 0005 	adds.w	r0, r9, r5
 8005f62:	eb4a 0106 	adc.w	r1, sl, r6
 8005f66:	687b      	ldr	r3, [r7, #4]
 8005f68:	685b      	ldr	r3, [r3, #4]
 8005f6a:	461d      	mov	r5, r3
 8005f6c:	f04f 0600 	mov.w	r6, #0
 8005f70:	196b      	adds	r3, r5, r5
 8005f72:	eb46 0406 	adc.w	r4, r6, r6
 8005f76:	461a      	mov	r2, r3
 8005f78:	4623      	mov	r3, r4
 8005f7a:	f7fa fdb9 	bl	8000af0 <__aeabi_uldivmod>
 8005f7e:	4603      	mov	r3, r0
 8005f80:	460c      	mov	r4, r1
 8005f82:	461a      	mov	r2, r3
 8005f84:	4b2c      	ldr	r3, [pc, #176]	; (8006038 <UART_SetConfig+0x384>)
 8005f86:	fba3 1302 	umull	r1, r3, r3, r2
 8005f8a:	095b      	lsrs	r3, r3, #5
 8005f8c:	2164      	movs	r1, #100	; 0x64
 8005f8e:	fb01 f303 	mul.w	r3, r1, r3
 8005f92:	1ad3      	subs	r3, r2, r3
 8005f94:	00db      	lsls	r3, r3, #3
 8005f96:	3332      	adds	r3, #50	; 0x32
 8005f98:	4a27      	ldr	r2, [pc, #156]	; (8006038 <UART_SetConfig+0x384>)
 8005f9a:	fba2 2303 	umull	r2, r3, r2, r3
 8005f9e:	095b      	lsrs	r3, r3, #5
 8005fa0:	005b      	lsls	r3, r3, #1
 8005fa2:	f403 73f8 	and.w	r3, r3, #496	; 0x1f0
 8005fa6:	4498      	add	r8, r3
 8005fa8:	68bb      	ldr	r3, [r7, #8]
 8005faa:	461d      	mov	r5, r3
 8005fac:	f04f 0600 	mov.w	r6, #0
 8005fb0:	46a9      	mov	r9, r5
 8005fb2:	46b2      	mov	sl, r6
 8005fb4:	eb19 0309 	adds.w	r3, r9, r9
 8005fb8:	eb4a 040a 	adc.w	r4, sl, sl
 8005fbc:	4699      	mov	r9, r3
 8005fbe:	46a2      	mov	sl, r4
 8005fc0:	eb19 0905 	adds.w	r9, r9, r5
 8005fc4:	eb4a 0a06 	adc.w	sl, sl, r6
 8005fc8:	f04f 0100 	mov.w	r1, #0
 8005fcc:	f04f 0200 	mov.w	r2, #0
 8005fd0:	ea4f 02ca 	mov.w	r2, sl, lsl #3
 8005fd4:	ea42 7259 	orr.w	r2, r2, r9, lsr #29
 8005fd8:	ea4f 01c9 	mov.w	r1, r9, lsl #3
 8005fdc:	4689      	mov	r9, r1
 8005fde:	4692      	mov	sl, r2
 8005fe0:	eb19 0005 	adds.w	r0, r9, r5
 8005fe4:	eb4a 0106 	adc.w	r1, sl, r6
 8005fe8:	687b      	ldr	r3, [r7, #4]
 8005fea:	685b      	ldr	r3, [r3, #4]
 8005fec:	461d      	mov	r5, r3
 8005fee:	f04f 0600 	mov.w	r6, #0
 8005ff2:	196b      	adds	r3, r5, r5
 8005ff4:	eb46 0406 	adc.w	r4, r6, r6
 8005ff8:	461a      	mov	r2, r3
 8005ffa:	4623      	mov	r3, r4
 8005ffc:	f7fa fd78 	bl	8000af0 <__aeabi_uldivmod>
 8006000:	4603      	mov	r3, r0
 8006002:	460c      	mov	r4, r1
 8006004:	461a      	mov	r2, r3
 8006006:	4b0c      	ldr	r3, [pc, #48]	; (8006038 <UART_SetConfig+0x384>)
 8006008:	fba3 1302 	umull	r1, r3, r3, r2
 800600c:	095b      	lsrs	r3, r3, #5
 800600e:	2164      	movs	r1, #100	; 0x64
 8006010:	fb01 f303 	mul.w	r3, r1, r3
 8006014:	1ad3      	subs	r3, r2, r3
 8006016:	00db      	lsls	r3, r3, #3
 8006018:	3332      	adds	r3, #50	; 0x32
 800601a:	4a07      	ldr	r2, [pc, #28]	; (8006038 <UART_SetConfig+0x384>)
 800601c:	fba2 2303 	umull	r2, r3, r2, r3
 8006020:	095b      	lsrs	r3, r3, #5
 8006022:	f003 0207 	and.w	r2, r3, #7
 8006026:	687b      	ldr	r3, [r7, #4]
 8006028:	681b      	ldr	r3, [r3, #0]
 800602a:	4442      	add	r2, r8
 800602c:	609a      	str	r2, [r3, #8]
 800602e:	e1b2      	b.n	8006396 <UART_SetConfig+0x6e2>
 8006030:	40011000 	.word	0x40011000
 8006034:	40011400 	.word	0x40011400
 8006038:	51eb851f 	.word	0x51eb851f
 800603c:	687b      	ldr	r3, [r7, #4]
 800603e:	681b      	ldr	r3, [r3, #0]
 8006040:	4ad7      	ldr	r2, [pc, #860]	; (80063a0 <UART_SetConfig+0x6ec>)
 8006042:	4293      	cmp	r3, r2
 8006044:	d005      	beq.n	8006052 <UART_SetConfig+0x39e>
 8006046:	687b      	ldr	r3, [r7, #4]
 8006048:	681b      	ldr	r3, [r3, #0]
 800604a:	4ad6      	ldr	r2, [pc, #856]	; (80063a4 <UART_SetConfig+0x6f0>)
 800604c:	4293      	cmp	r3, r2
 800604e:	f040 80d1 	bne.w	80061f4 <UART_SetConfig+0x540>
 8006052:	f7fd fe93 	bl	8003d7c <HAL_RCC_GetPCLK2Freq>
 8006056:	60b8      	str	r0, [r7, #8]
 8006058:	68bb      	ldr	r3, [r7, #8]
 800605a:	469a      	mov	sl, r3
 800605c:	f04f 0b00 	mov.w	fp, #0
 8006060:	46d0      	mov	r8, sl
 8006062:	46d9      	mov	r9, fp
 8006064:	eb18 0308 	adds.w	r3, r8, r8
 8006068:	eb49 0409 	adc.w	r4, r9, r9
 800606c:	4698      	mov	r8, r3
 800606e:	46a1      	mov	r9, r4
 8006070:	eb18 080a 	adds.w	r8, r8, sl
 8006074:	eb49 090b 	adc.w	r9, r9, fp
 8006078:	f04f 0100 	mov.w	r1, #0
 800607c:	f04f 0200 	mov.w	r2, #0
 8006080:	ea4f 02c9 	mov.w	r2, r9, lsl #3
 8006084:	ea42 7258 	orr.w	r2, r2, r8, lsr #29
 8006088:	ea4f 01c8 	mov.w	r1, r8, lsl #3
 800608c:	4688      	mov	r8, r1
 800608e:	4691      	mov	r9, r2
 8006090:	eb1a 0508 	adds.w	r5, sl, r8
 8006094:	eb4b 0609 	adc.w	r6, fp, r9
 8006098:	687b      	ldr	r3, [r7, #4]
 800609a:	685b      	ldr	r3, [r3, #4]
 800609c:	4619      	mov	r1, r3
 800609e:	f04f 0200 	mov.w	r2, #0
 80060a2:	f04f 0300 	mov.w	r3, #0
 80060a6:	f04f 0400 	mov.w	r4, #0
 80060aa:	0094      	lsls	r4, r2, #2
 80060ac:	ea44 7491 	orr.w	r4, r4, r1, lsr #30
 80060b0:	008b      	lsls	r3, r1, #2
 80060b2:	461a      	mov	r2, r3
 80060b4:	4623      	mov	r3, r4
 80060b6:	4628      	mov	r0, r5
 80060b8:	4631      	mov	r1, r6
 80060ba:	f7fa fd19 	bl	8000af0 <__aeabi_uldivmod>
 80060be:	4603      	mov	r3, r0
 80060c0:	460c      	mov	r4, r1
 80060c2:	461a      	mov	r2, r3
 80060c4:	4bb8      	ldr	r3, [pc, #736]	; (80063a8 <UART_SetConfig+0x6f4>)
 80060c6:	fba3 2302 	umull	r2, r3, r3, r2
 80060ca:	095b      	lsrs	r3, r3, #5
 80060cc:	ea4f 1803 	mov.w	r8, r3, lsl #4
 80060d0:	68bb      	ldr	r3, [r7, #8]
 80060d2:	469b      	mov	fp, r3
 80060d4:	f04f 0c00 	mov.w	ip, #0
 80060d8:	46d9      	mov	r9, fp
 80060da:	46e2      	mov	sl, ip
 80060dc:	eb19 0309 	adds.w	r3, r9, r9
 80060e0:	eb4a 040a 	adc.w	r4, sl, sl
 80060e4:	4699      	mov	r9, r3
 80060e6:	46a2      	mov	sl, r4
 80060e8:	eb19 090b 	adds.w	r9, r9, fp
 80060ec:	eb4a 0a0c 	adc.w	sl, sl, ip
 80060f0:	f04f 0100 	mov.w	r1, #0
 80060f4:	f04f 0200 	mov.w	r2, #0
 80060f8:	ea4f 02ca 	mov.w	r2, sl, lsl #3
 80060fc:	ea42 7259 	orr.w	r2, r2, r9, lsr #29
 8006100:	ea4f 01c9 	mov.w	r1, r9, lsl #3
 8006104:	4689      	mov	r9, r1
 8006106:	4692      	mov	sl, r2
 8006108:	eb1b 0509 	adds.w	r5, fp, r9
 800610c:	eb4c 060a 	adc.w	r6, ip, sl
 8006110:	687b      	ldr	r3, [r7, #4]
 8006112:	685b      	ldr	r3, [r3, #4]
 8006114:	4619      	mov	r1, r3
 8006116:	f04f 0200 	mov.w	r2, #0
 800611a:	f04f 0300 	mov.w	r3, #0
 800611e:	f04f 0400 	mov.w	r4, #0
 8006122:	0094      	lsls	r4, r2, #2
 8006124:	ea44 7491 	orr.w	r4, r4, r1, lsr #30
 8006128:	008b      	lsls	r3, r1, #2
 800612a:	461a      	mov	r2, r3
 800612c:	4623      	mov	r3, r4
 800612e:	4628      	mov	r0, r5
 8006130:	4631      	mov	r1, r6
 8006132:	f7fa fcdd 	bl	8000af0 <__aeabi_uldivmod>
 8006136:	4603      	mov	r3, r0
 8006138:	460c      	mov	r4, r1
 800613a:	461a      	mov	r2, r3
 800613c:	4b9a      	ldr	r3, [pc, #616]	; (80063a8 <UART_SetConfig+0x6f4>)
 800613e:	fba3 1302 	umull	r1, r3, r3, r2
 8006142:	095b      	lsrs	r3, r3, #5
 8006144:	2164      	movs	r1, #100	; 0x64
 8006146:	fb01 f303 	mul.w	r3, r1, r3
 800614a:	1ad3      	subs	r3, r2, r3
 800614c:	011b      	lsls	r3, r3, #4
 800614e:	3332      	adds	r3, #50	; 0x32
 8006150:	4a95      	ldr	r2, [pc, #596]	; (80063a8 <UART_SetConfig+0x6f4>)
 8006152:	fba2 2303 	umull	r2, r3, r2, r3
 8006156:	095b      	lsrs	r3, r3, #5
 8006158:	f003 03f0 	and.w	r3, r3, #240	; 0xf0
 800615c:	4498      	add	r8, r3
 800615e:	68bb      	ldr	r3, [r7, #8]
 8006160:	469b      	mov	fp, r3
 8006162:	f04f 0c00 	mov.w	ip, #0
 8006166:	46d9      	mov	r9, fp
 8006168:	46e2      	mov	sl, ip
 800616a:	eb19 0309 	adds.w	r3, r9, r9
 800616e:	eb4a 040a 	adc.w	r4, sl, sl
 8006172:	4699      	mov	r9, r3
 8006174:	46a2      	mov	sl, r4
 8006176:	eb19 090b 	adds.w	r9, r9, fp
 800617a:	eb4a 0a0c 	adc.w	sl, sl, ip
 800617e:	f04f 0100 	mov.w	r1, #0
 8006182:	f04f 0200 	mov.w	r2, #0
 8006186:	ea4f 02ca 	mov.w	r2, sl, lsl #3
 800618a:	ea42 7259 	orr.w	r2, r2, r9, lsr #29
 800618e:	ea4f 01c9 	mov.w	r1, r9, lsl #3
 8006192:	4689      	mov	r9, r1
 8006194:	4692      	mov	sl, r2
 8006196:	eb1b 0509 	adds.w	r5, fp, r9
 800619a:	eb4c 060a 	adc.w	r6, ip, sl
 800619e:	687b      	ldr	r3, [r7, #4]
 80061a0:	685b      	ldr	r3, [r3, #4]
 80061a2:	4619      	mov	r1, r3
 80061a4:	f04f 0200 	mov.w	r2, #0
 80061a8:	f04f 0300 	mov.w	r3, #0
 80061ac:	f04f 0400 	mov.w	r4, #0
 80061b0:	0094      	lsls	r4, r2, #2
 80061b2:	ea44 7491 	orr.w	r4, r4, r1, lsr #30
 80061b6:	008b      	lsls	r3, r1, #2
 80061b8:	461a      	mov	r2, r3
 80061ba:	4623      	mov	r3, r4
 80061bc:	4628      	mov	r0, r5
 80061be:	4631      	mov	r1, r6
 80061c0:	f7fa fc96 	bl	8000af0 <__aeabi_uldivmod>
 80061c4:	4603      	mov	r3, r0
 80061c6:	460c      	mov	r4, r1
 80061c8:	461a      	mov	r2, r3
 80061ca:	4b77      	ldr	r3, [pc, #476]	; (80063a8 <UART_SetConfig+0x6f4>)
 80061cc:	fba3 1302 	umull	r1, r3, r3, r2
 80061d0:	095b      	lsrs	r3, r3, #5
 80061d2:	2164      	movs	r1, #100	; 0x64
 80061d4:	fb01 f303 	mul.w	r3, r1, r3
 80061d8:	1ad3      	subs	r3, r2, r3
 80061da:	011b      	lsls	r3, r3, #4
 80061dc:	3332      	adds	r3, #50	; 0x32
 80061de:	4a72      	ldr	r2, [pc, #456]	; (80063a8 <UART_SetConfig+0x6f4>)
 80061e0:	fba2 2303 	umull	r2, r3, r2, r3
 80061e4:	095b      	lsrs	r3, r3, #5
 80061e6:	f003 020f 	and.w	r2, r3, #15
 80061ea:	687b      	ldr	r3, [r7, #4]
 80061ec:	681b      	ldr	r3, [r3, #0]
 80061ee:	4442      	add	r2, r8
 80061f0:	609a      	str	r2, [r3, #8]
 80061f2:	e0d0      	b.n	8006396 <UART_SetConfig+0x6e2>
 80061f4:	f7fd fdae 	bl	8003d54 <HAL_RCC_GetPCLK1Freq>
 80061f8:	60b8      	str	r0, [r7, #8]
 80061fa:	68bb      	ldr	r3, [r7, #8]
 80061fc:	469a      	mov	sl, r3
 80061fe:	f04f 0b00 	mov.w	fp, #0
 8006202:	46d0      	mov	r8, sl
 8006204:	46d9      	mov	r9, fp
 8006206:	eb18 0308 	adds.w	r3, r8, r8
 800620a:	eb49 0409 	adc.w	r4, r9, r9
 800620e:	4698      	mov	r8, r3
 8006210:	46a1      	mov	r9, r4
 8006212:	eb18 080a 	adds.w	r8, r8, sl
 8006216:	eb49 090b 	adc.w	r9, r9, fp
 800621a:	f04f 0100 	mov.w	r1, #0
 800621e:	f04f 0200 	mov.w	r2, #0
 8006222:	ea4f 02c9 	mov.w	r2, r9, lsl #3
 8006226:	ea42 7258 	orr.w	r2, r2, r8, lsr #29
 800622a:	ea4f 01c8 	mov.w	r1, r8, lsl #3
 800622e:	4688      	mov	r8, r1
 8006230:	4691      	mov	r9, r2
 8006232:	eb1a 0508 	adds.w	r5, sl, r8
 8006236:	eb4b 0609 	adc.w	r6, fp, r9
 800623a:	687b      	ldr	r3, [r7, #4]
 800623c:	685b      	ldr	r3, [r3, #4]
 800623e:	4619      	mov	r1, r3
 8006240:	f04f 0200 	mov.w	r2, #0
 8006244:	f04f 0300 	mov.w	r3, #0
 8006248:	f04f 0400 	mov.w	r4, #0
 800624c:	0094      	lsls	r4, r2, #2
 800624e:	ea44 7491 	orr.w	r4, r4, r1, lsr #30
 8006252:	008b      	lsls	r3, r1, #2
 8006254:	461a      	mov	r2, r3
 8006256:	4623      	mov	r3, r4
 8006258:	4628      	mov	r0, r5
 800625a:	4631      	mov	r1, r6
 800625c:	f7fa fc48 	bl	8000af0 <__aeabi_uldivmod>
 8006260:	4603      	mov	r3, r0
 8006262:	460c      	mov	r4, r1
 8006264:	461a      	mov	r2, r3
 8006266:	4b50      	ldr	r3, [pc, #320]	; (80063a8 <UART_SetConfig+0x6f4>)
 8006268:	fba3 2302 	umull	r2, r3, r3, r2
 800626c:	095b      	lsrs	r3, r3, #5
 800626e:	ea4f 1803 	mov.w	r8, r3, lsl #4
 8006272:	68bb      	ldr	r3, [r7, #8]
 8006274:	469b      	mov	fp, r3
 8006276:	f04f 0c00 	mov.w	ip, #0
 800627a:	46d9      	mov	r9, fp
 800627c:	46e2      	mov	sl, ip
 800627e:	eb19 0309 	adds.w	r3, r9, r9
 8006282:	eb4a 040a 	adc.w	r4, sl, sl
 8006286:	4699      	mov	r9, r3
 8006288:	46a2      	mov	sl, r4
 800628a:	eb19 090b 	adds.w	r9, r9, fp
 800628e:	eb4a 0a0c 	adc.w	sl, sl, ip
 8006292:	f04f 0100 	mov.w	r1, #0
 8006296:	f04f 0200 	mov.w	r2, #0
 800629a:	ea4f 02ca 	mov.w	r2, sl, lsl #3
 800629e:	ea42 7259 	orr.w	r2, r2, r9, lsr #29
 80062a2:	ea4f 01c9 	mov.w	r1, r9, lsl #3
 80062a6:	4689      	mov	r9, r1
 80062a8:	4692      	mov	sl, r2
 80062aa:	eb1b 0509 	adds.w	r5, fp, r9
 80062ae:	eb4c 060a 	adc.w	r6, ip, sl
 80062b2:	687b      	ldr	r3, [r7, #4]
 80062b4:	685b      	ldr	r3, [r3, #4]
 80062b6:	4619      	mov	r1, r3
 80062b8:	f04f 0200 	mov.w	r2, #0
 80062bc:	f04f 0300 	mov.w	r3, #0
 80062c0:	f04f 0400 	mov.w	r4, #0
 80062c4:	0094      	lsls	r4, r2, #2
 80062c6:	ea44 7491 	orr.w	r4, r4, r1, lsr #30
 80062ca:	008b      	lsls	r3, r1, #2
 80062cc:	461a      	mov	r2, r3
 80062ce:	4623      	mov	r3, r4
 80062d0:	4628      	mov	r0, r5
 80062d2:	4631      	mov	r1, r6
 80062d4:	f7fa fc0c 	bl	8000af0 <__aeabi_uldivmod>
 80062d8:	4603      	mov	r3, r0
 80062da:	460c      	mov	r4, r1
 80062dc:	461a      	mov	r2, r3
 80062de:	4b32      	ldr	r3, [pc, #200]	; (80063a8 <UART_SetConfig+0x6f4>)
 80062e0:	fba3 1302 	umull	r1, r3, r3, r2
 80062e4:	095b      	lsrs	r3, r3, #5
 80062e6:	2164      	movs	r1, #100	; 0x64
 80062e8:	fb01 f303 	mul.w	r3, r1, r3
 80062ec:	1ad3      	subs	r3, r2, r3
 80062ee:	011b      	lsls	r3, r3, #4
 80062f0:	3332      	adds	r3, #50	; 0x32
 80062f2:	4a2d      	ldr	r2, [pc, #180]	; (80063a8 <UART_SetConfig+0x6f4>)
 80062f4:	fba2 2303 	umull	r2, r3, r2, r3
 80062f8:	095b      	lsrs	r3, r3, #5
 80062fa:	f003 03f0 	and.w	r3, r3, #240	; 0xf0
 80062fe:	4498      	add	r8, r3
 8006300:	68bb      	ldr	r3, [r7, #8]
 8006302:	469b      	mov	fp, r3
 8006304:	f04f 0c00 	mov.w	ip, #0
 8006308:	46d9      	mov	r9, fp
 800630a:	46e2      	mov	sl, ip
 800630c:	eb19 0309 	adds.w	r3, r9, r9
 8006310:	eb4a 040a 	adc.w	r4, sl, sl
 8006314:	4699      	mov	r9, r3
 8006316:	46a2      	mov	sl, r4
 8006318:	eb19 090b 	adds.w	r9, r9, fp
 800631c:	eb4a 0a0c 	adc.w	sl, sl, ip
 8006320:	f04f 0100 	mov.w	r1, #0
 8006324:	f04f 0200 	mov.w	r2, #0
 8006328:	ea4f 02ca 	mov.w	r2, sl, lsl #3
 800632c:	ea42 7259 	orr.w	r2, r2, r9, lsr #29
 8006330:	ea4f 01c9 	mov.w	r1, r9, lsl #3
 8006334:	4689      	mov	r9, r1
 8006336:	4692      	mov	sl, r2
 8006338:	eb1b 0509 	adds.w	r5, fp, r9
 800633c:	eb4c 060a 	adc.w	r6, ip, sl
 8006340:	687b      	ldr	r3, [r7, #4]
 8006342:	685b      	ldr	r3, [r3, #4]
 8006344:	4619      	mov	r1, r3
 8006346:	f04f 0200 	mov.w	r2, #0
 800634a:	f04f 0300 	mov.w	r3, #0
 800634e:	f04f 0400 	mov.w	r4, #0
 8006352:	0094      	lsls	r4, r2, #2
 8006354:	ea44 7491 	orr.w	r4, r4, r1, lsr #30
 8006358:	008b      	lsls	r3, r1, #2
 800635a:	461a      	mov	r2, r3
 800635c:	4623      	mov	r3, r4
 800635e:	4628      	mov	r0, r5
 8006360:	4631      	mov	r1, r6
 8006362:	f7fa fbc5 	bl	8000af0 <__aeabi_uldivmod>
 8006366:	4603      	mov	r3, r0
 8006368:	460c      	mov	r4, r1
 800636a:	461a      	mov	r2, r3
 800636c:	4b0e      	ldr	r3, [pc, #56]	; (80063a8 <UART_SetConfig+0x6f4>)
 800636e:	fba3 1302 	umull	r1, r3, r3, r2
 8006372:	095b      	lsrs	r3, r3, #5
 8006374:	2164      	movs	r1, #100	; 0x64
 8006376:	fb01 f303 	mul.w	r3, r1, r3
 800637a:	1ad3      	subs	r3, r2, r3
 800637c:	011b      	lsls	r3, r3, #4
 800637e:	3332      	adds	r3, #50	; 0x32
 8006380:	4a09      	ldr	r2, [pc, #36]	; (80063a8 <UART_SetConfig+0x6f4>)
 8006382:	fba2 2303 	umull	r2, r3, r2, r3
 8006386:	095b      	lsrs	r3, r3, #5
 8006388:	f003 020f 	and.w	r2, r3, #15
 800638c:	687b      	ldr	r3, [r7, #4]
 800638e:	681b      	ldr	r3, [r3, #0]
 8006390:	4442      	add	r2, r8
 8006392:	609a      	str	r2, [r3, #8]
 8006394:	e7ff      	b.n	8006396 <UART_SetConfig+0x6e2>
 8006396:	bf00      	nop
 8006398:	3714      	adds	r7, #20
 800639a:	46bd      	mov	sp, r7
 800639c:	e8bd 8ff0 	ldmia.w	sp!, {r4, r5, r6, r7, r8, r9, sl, fp, pc}
 80063a0:	40011000 	.word	0x40011000
 80063a4:	40011400 	.word	0x40011400
 80063a8:	51eb851f 	.word	0x51eb851f

080063ac <__errno>:
 80063ac:	4b01      	ldr	r3, [pc, #4]	; (80063b4 <__errno+0x8>)
 80063ae:	6818      	ldr	r0, [r3, #0]
 80063b0:	4770      	bx	lr
 80063b2:	bf00      	nop
 80063b4:	2000000c 	.word	0x2000000c

080063b8 <__libc_init_array>:
 80063b8:	b570      	push	{r4, r5, r6, lr}
 80063ba:	4e0d      	ldr	r6, [pc, #52]	; (80063f0 <__libc_init_array+0x38>)
 80063bc:	4c0d      	ldr	r4, [pc, #52]	; (80063f4 <__libc_init_array+0x3c>)
 80063be:	1ba4      	subs	r4, r4, r6
 80063c0:	10a4      	asrs	r4, r4, #2
 80063c2:	2500      	movs	r5, #0
 80063c4:	42a5      	cmp	r5, r4
 80063c6:	d109      	bne.n	80063dc <__libc_init_array+0x24>
 80063c8:	4e0b      	ldr	r6, [pc, #44]	; (80063f8 <__libc_init_array+0x40>)
 80063ca:	4c0c      	ldr	r4, [pc, #48]	; (80063fc <__libc_init_array+0x44>)
 80063cc:	f001 fa6e 	bl	80078ac <_init>
 80063d0:	1ba4      	subs	r4, r4, r6
 80063d2:	10a4      	asrs	r4, r4, #2
 80063d4:	2500      	movs	r5, #0
 80063d6:	42a5      	cmp	r5, r4
 80063d8:	d105      	bne.n	80063e6 <__libc_init_array+0x2e>
 80063da:	bd70      	pop	{r4, r5, r6, pc}
 80063dc:	f856 3025 	ldr.w	r3, [r6, r5, lsl #2]
 80063e0:	4798      	blx	r3
 80063e2:	3501      	adds	r5, #1
 80063e4:	e7ee      	b.n	80063c4 <__libc_init_array+0xc>
 80063e6:	f856 3025 	ldr.w	r3, [r6, r5, lsl #2]
 80063ea:	4798      	blx	r3
 80063ec:	3501      	adds	r5, #1
 80063ee:	e7f2      	b.n	80063d6 <__libc_init_array+0x1e>
 80063f0:	08007980 	.word	0x08007980
 80063f4:	08007980 	.word	0x08007980
 80063f8:	08007980 	.word	0x08007980
 80063fc:	08007984 	.word	0x08007984

08006400 <memset>:
 8006400:	4402      	add	r2, r0
 8006402:	4603      	mov	r3, r0
 8006404:	4293      	cmp	r3, r2
 8006406:	d100      	bne.n	800640a <memset+0xa>
 8006408:	4770      	bx	lr
 800640a:	f803 1b01 	strb.w	r1, [r3], #1
 800640e:	e7f9      	b.n	8006404 <memset+0x4>

08006410 <atan>:
 8006410:	e92d 4ff8 	stmdb	sp!, {r3, r4, r5, r6, r7, r8, r9, sl, fp, lr}
 8006414:	ec55 4b10 	vmov	r4, r5, d0
 8006418:	4bc3      	ldr	r3, [pc, #780]	; (8006728 <atan+0x318>)
 800641a:	f025 4600 	bic.w	r6, r5, #2147483648	; 0x80000000
 800641e:	429e      	cmp	r6, r3
 8006420:	46ab      	mov	fp, r5
 8006422:	dd18      	ble.n	8006456 <atan+0x46>
 8006424:	4bc1      	ldr	r3, [pc, #772]	; (800672c <atan+0x31c>)
 8006426:	429e      	cmp	r6, r3
 8006428:	dc01      	bgt.n	800642e <atan+0x1e>
 800642a:	d109      	bne.n	8006440 <atan+0x30>
 800642c:	b144      	cbz	r4, 8006440 <atan+0x30>
 800642e:	4622      	mov	r2, r4
 8006430:	462b      	mov	r3, r5
 8006432:	4620      	mov	r0, r4
 8006434:	4629      	mov	r1, r5
 8006436:	f7f9 fed5 	bl	80001e4 <__adddf3>
 800643a:	4604      	mov	r4, r0
 800643c:	460d      	mov	r5, r1
 800643e:	e006      	b.n	800644e <atan+0x3e>
 8006440:	f1bb 0f00 	cmp.w	fp, #0
 8006444:	f340 8131 	ble.w	80066aa <atan+0x29a>
 8006448:	a59b      	add	r5, pc, #620	; (adr r5, 80066b8 <atan+0x2a8>)
 800644a:	e9d5 4500 	ldrd	r4, r5, [r5]
 800644e:	ec45 4b10 	vmov	d0, r4, r5
 8006452:	e8bd 8ff8 	ldmia.w	sp!, {r3, r4, r5, r6, r7, r8, r9, sl, fp, pc}
 8006456:	4bb6      	ldr	r3, [pc, #728]	; (8006730 <atan+0x320>)
 8006458:	429e      	cmp	r6, r3
 800645a:	dc14      	bgt.n	8006486 <atan+0x76>
 800645c:	f1a3 73de 	sub.w	r3, r3, #29097984	; 0x1bc0000
 8006460:	429e      	cmp	r6, r3
 8006462:	dc0d      	bgt.n	8006480 <atan+0x70>
 8006464:	a396      	add	r3, pc, #600	; (adr r3, 80066c0 <atan+0x2b0>)
 8006466:	e9d3 2300 	ldrd	r2, r3, [r3]
 800646a:	ee10 0a10 	vmov	r0, s0
 800646e:	4629      	mov	r1, r5
 8006470:	f7f9 feb8 	bl	80001e4 <__adddf3>
 8006474:	2200      	movs	r2, #0
 8006476:	4baf      	ldr	r3, [pc, #700]	; (8006734 <atan+0x324>)
 8006478:	f7fa fafa 	bl	8000a70 <__aeabi_dcmpgt>
 800647c:	2800      	cmp	r0, #0
 800647e:	d1e6      	bne.n	800644e <atan+0x3e>
 8006480:	f04f 3aff 	mov.w	sl, #4294967295
 8006484:	e02b      	b.n	80064de <atan+0xce>
 8006486:	f000 f963 	bl	8006750 <fabs>
 800648a:	4bab      	ldr	r3, [pc, #684]	; (8006738 <atan+0x328>)
 800648c:	429e      	cmp	r6, r3
 800648e:	ec55 4b10 	vmov	r4, r5, d0
 8006492:	f300 80bf 	bgt.w	8006614 <atan+0x204>
 8006496:	f5a3 2350 	sub.w	r3, r3, #851968	; 0xd0000
 800649a:	429e      	cmp	r6, r3
 800649c:	f300 80a0 	bgt.w	80065e0 <atan+0x1d0>
 80064a0:	ee10 2a10 	vmov	r2, s0
 80064a4:	ee10 0a10 	vmov	r0, s0
 80064a8:	462b      	mov	r3, r5
 80064aa:	4629      	mov	r1, r5
 80064ac:	f7f9 fe9a 	bl	80001e4 <__adddf3>
 80064b0:	2200      	movs	r2, #0
 80064b2:	4ba0      	ldr	r3, [pc, #640]	; (8006734 <atan+0x324>)
 80064b4:	f7f9 fe94 	bl	80001e0 <__aeabi_dsub>
 80064b8:	2200      	movs	r2, #0
 80064ba:	4606      	mov	r6, r0
 80064bc:	460f      	mov	r7, r1
 80064be:	f04f 4380 	mov.w	r3, #1073741824	; 0x40000000
 80064c2:	4620      	mov	r0, r4
 80064c4:	4629      	mov	r1, r5
 80064c6:	f7f9 fe8d 	bl	80001e4 <__adddf3>
 80064ca:	4602      	mov	r2, r0
 80064cc:	460b      	mov	r3, r1
 80064ce:	4630      	mov	r0, r6
 80064d0:	4639      	mov	r1, r7
 80064d2:	f7fa f967 	bl	80007a4 <__aeabi_ddiv>
 80064d6:	f04f 0a00 	mov.w	sl, #0
 80064da:	4604      	mov	r4, r0
 80064dc:	460d      	mov	r5, r1
 80064de:	4622      	mov	r2, r4
 80064e0:	462b      	mov	r3, r5
 80064e2:	4620      	mov	r0, r4
 80064e4:	4629      	mov	r1, r5
 80064e6:	f7fa f833 	bl	8000550 <__aeabi_dmul>
 80064ea:	4602      	mov	r2, r0
 80064ec:	460b      	mov	r3, r1
 80064ee:	4680      	mov	r8, r0
 80064f0:	4689      	mov	r9, r1
 80064f2:	f7fa f82d 	bl	8000550 <__aeabi_dmul>
 80064f6:	a374      	add	r3, pc, #464	; (adr r3, 80066c8 <atan+0x2b8>)
 80064f8:	e9d3 2300 	ldrd	r2, r3, [r3]
 80064fc:	4606      	mov	r6, r0
 80064fe:	460f      	mov	r7, r1
 8006500:	f7fa f826 	bl	8000550 <__aeabi_dmul>
 8006504:	a372      	add	r3, pc, #456	; (adr r3, 80066d0 <atan+0x2c0>)
 8006506:	e9d3 2300 	ldrd	r2, r3, [r3]
 800650a:	f7f9 fe6b 	bl	80001e4 <__adddf3>
 800650e:	4632      	mov	r2, r6
 8006510:	463b      	mov	r3, r7
 8006512:	f7fa f81d 	bl	8000550 <__aeabi_dmul>
 8006516:	a370      	add	r3, pc, #448	; (adr r3, 80066d8 <atan+0x2c8>)
 8006518:	e9d3 2300 	ldrd	r2, r3, [r3]
 800651c:	f7f9 fe62 	bl	80001e4 <__adddf3>
 8006520:	4632      	mov	r2, r6
 8006522:	463b      	mov	r3, r7
 8006524:	f7fa f814 	bl	8000550 <__aeabi_dmul>
 8006528:	a36d      	add	r3, pc, #436	; (adr r3, 80066e0 <atan+0x2d0>)
 800652a:	e9d3 2300 	ldrd	r2, r3, [r3]
 800652e:	f7f9 fe59 	bl	80001e4 <__adddf3>
 8006532:	4632      	mov	r2, r6
 8006534:	463b      	mov	r3, r7
 8006536:	f7fa f80b 	bl	8000550 <__aeabi_dmul>
 800653a:	a36b      	add	r3, pc, #428	; (adr r3, 80066e8 <atan+0x2d8>)
 800653c:	e9d3 2300 	ldrd	r2, r3, [r3]
 8006540:	f7f9 fe50 	bl	80001e4 <__adddf3>
 8006544:	4632      	mov	r2, r6
 8006546:	463b      	mov	r3, r7
 8006548:	f7fa f802 	bl	8000550 <__aeabi_dmul>
 800654c:	a368      	add	r3, pc, #416	; (adr r3, 80066f0 <atan+0x2e0>)
 800654e:	e9d3 2300 	ldrd	r2, r3, [r3]
 8006552:	f7f9 fe47 	bl	80001e4 <__adddf3>
 8006556:	4642      	mov	r2, r8
 8006558:	464b      	mov	r3, r9
 800655a:	f7f9 fff9 	bl	8000550 <__aeabi_dmul>
 800655e:	a366      	add	r3, pc, #408	; (adr r3, 80066f8 <atan+0x2e8>)
 8006560:	e9d3 2300 	ldrd	r2, r3, [r3]
 8006564:	4680      	mov	r8, r0
 8006566:	4689      	mov	r9, r1
 8006568:	4630      	mov	r0, r6
 800656a:	4639      	mov	r1, r7
 800656c:	f7f9 fff0 	bl	8000550 <__aeabi_dmul>
 8006570:	a363      	add	r3, pc, #396	; (adr r3, 8006700 <atan+0x2f0>)
 8006572:	e9d3 2300 	ldrd	r2, r3, [r3]
 8006576:	f7f9 fe33 	bl	80001e0 <__aeabi_dsub>
 800657a:	4632      	mov	r2, r6
 800657c:	463b      	mov	r3, r7
 800657e:	f7f9 ffe7 	bl	8000550 <__aeabi_dmul>
 8006582:	a361      	add	r3, pc, #388	; (adr r3, 8006708 <atan+0x2f8>)
 8006584:	e9d3 2300 	ldrd	r2, r3, [r3]
 8006588:	f7f9 fe2a 	bl	80001e0 <__aeabi_dsub>
 800658c:	4632      	mov	r2, r6
 800658e:	463b      	mov	r3, r7
 8006590:	f7f9 ffde 	bl	8000550 <__aeabi_dmul>
 8006594:	a35e      	add	r3, pc, #376	; (adr r3, 8006710 <atan+0x300>)
 8006596:	e9d3 2300 	ldrd	r2, r3, [r3]
 800659a:	f7f9 fe21 	bl	80001e0 <__aeabi_dsub>
 800659e:	4632      	mov	r2, r6
 80065a0:	463b      	mov	r3, r7
 80065a2:	f7f9 ffd5 	bl	8000550 <__aeabi_dmul>
 80065a6:	a35c      	add	r3, pc, #368	; (adr r3, 8006718 <atan+0x308>)
 80065a8:	e9d3 2300 	ldrd	r2, r3, [r3]
 80065ac:	f7f9 fe18 	bl	80001e0 <__aeabi_dsub>
 80065b0:	4632      	mov	r2, r6
 80065b2:	463b      	mov	r3, r7
 80065b4:	f7f9 ffcc 	bl	8000550 <__aeabi_dmul>
 80065b8:	4602      	mov	r2, r0
 80065ba:	460b      	mov	r3, r1
 80065bc:	4640      	mov	r0, r8
 80065be:	4649      	mov	r1, r9
 80065c0:	f7f9 fe10 	bl	80001e4 <__adddf3>
 80065c4:	4622      	mov	r2, r4
 80065c6:	462b      	mov	r3, r5
 80065c8:	f7f9 ffc2 	bl	8000550 <__aeabi_dmul>
 80065cc:	f1ba 3fff 	cmp.w	sl, #4294967295
 80065d0:	4602      	mov	r2, r0
 80065d2:	460b      	mov	r3, r1
 80065d4:	d14b      	bne.n	800666e <atan+0x25e>
 80065d6:	4620      	mov	r0, r4
 80065d8:	4629      	mov	r1, r5
 80065da:	f7f9 fe01 	bl	80001e0 <__aeabi_dsub>
 80065de:	e72c      	b.n	800643a <atan+0x2a>
 80065e0:	ee10 0a10 	vmov	r0, s0
 80065e4:	2200      	movs	r2, #0
 80065e6:	4b53      	ldr	r3, [pc, #332]	; (8006734 <atan+0x324>)
 80065e8:	4629      	mov	r1, r5
 80065ea:	f7f9 fdf9 	bl	80001e0 <__aeabi_dsub>
 80065ee:	2200      	movs	r2, #0
 80065f0:	4606      	mov	r6, r0
 80065f2:	460f      	mov	r7, r1
 80065f4:	4b4f      	ldr	r3, [pc, #316]	; (8006734 <atan+0x324>)
 80065f6:	4620      	mov	r0, r4
 80065f8:	4629      	mov	r1, r5
 80065fa:	f7f9 fdf3 	bl	80001e4 <__adddf3>
 80065fe:	4602      	mov	r2, r0
 8006600:	460b      	mov	r3, r1
 8006602:	4630      	mov	r0, r6
 8006604:	4639      	mov	r1, r7
 8006606:	f7fa f8cd 	bl	80007a4 <__aeabi_ddiv>
 800660a:	f04f 0a01 	mov.w	sl, #1
 800660e:	4604      	mov	r4, r0
 8006610:	460d      	mov	r5, r1
 8006612:	e764      	b.n	80064de <atan+0xce>
 8006614:	4b49      	ldr	r3, [pc, #292]	; (800673c <atan+0x32c>)
 8006616:	429e      	cmp	r6, r3
 8006618:	dc1d      	bgt.n	8006656 <atan+0x246>
 800661a:	ee10 0a10 	vmov	r0, s0
 800661e:	2200      	movs	r2, #0
 8006620:	4b47      	ldr	r3, [pc, #284]	; (8006740 <atan+0x330>)
 8006622:	4629      	mov	r1, r5
 8006624:	f7f9 fddc 	bl	80001e0 <__aeabi_dsub>
 8006628:	2200      	movs	r2, #0
 800662a:	4606      	mov	r6, r0
 800662c:	460f      	mov	r7, r1
 800662e:	4b44      	ldr	r3, [pc, #272]	; (8006740 <atan+0x330>)
 8006630:	4620      	mov	r0, r4
 8006632:	4629      	mov	r1, r5
 8006634:	f7f9 ff8c 	bl	8000550 <__aeabi_dmul>
 8006638:	2200      	movs	r2, #0
 800663a:	4b3e      	ldr	r3, [pc, #248]	; (8006734 <atan+0x324>)
 800663c:	f7f9 fdd2 	bl	80001e4 <__adddf3>
 8006640:	4602      	mov	r2, r0
 8006642:	460b      	mov	r3, r1
 8006644:	4630      	mov	r0, r6
 8006646:	4639      	mov	r1, r7
 8006648:	f7fa f8ac 	bl	80007a4 <__aeabi_ddiv>
 800664c:	f04f 0a02 	mov.w	sl, #2
 8006650:	4604      	mov	r4, r0
 8006652:	460d      	mov	r5, r1
 8006654:	e743      	b.n	80064de <atan+0xce>
 8006656:	462b      	mov	r3, r5
 8006658:	ee10 2a10 	vmov	r2, s0
 800665c:	2000      	movs	r0, #0
 800665e:	4939      	ldr	r1, [pc, #228]	; (8006744 <atan+0x334>)
 8006660:	f7fa f8a0 	bl	80007a4 <__aeabi_ddiv>
 8006664:	f04f 0a03 	mov.w	sl, #3
 8006668:	4604      	mov	r4, r0
 800666a:	460d      	mov	r5, r1
 800666c:	e737      	b.n	80064de <atan+0xce>
 800666e:	4b36      	ldr	r3, [pc, #216]	; (8006748 <atan+0x338>)
 8006670:	4e36      	ldr	r6, [pc, #216]	; (800674c <atan+0x33c>)
 8006672:	ea4f 0aca 	mov.w	sl, sl, lsl #3
 8006676:	4456      	add	r6, sl
 8006678:	449a      	add	sl, r3
 800667a:	e9da 2300 	ldrd	r2, r3, [sl]
 800667e:	f7f9 fdaf 	bl	80001e0 <__aeabi_dsub>
 8006682:	4622      	mov	r2, r4
 8006684:	462b      	mov	r3, r5
 8006686:	f7f9 fdab 	bl	80001e0 <__aeabi_dsub>
 800668a:	4602      	mov	r2, r0
 800668c:	460b      	mov	r3, r1
 800668e:	e9d6 0100 	ldrd	r0, r1, [r6]
 8006692:	f7f9 fda5 	bl	80001e0 <__aeabi_dsub>
 8006696:	f1bb 0f00 	cmp.w	fp, #0
 800669a:	4604      	mov	r4, r0
 800669c:	460d      	mov	r5, r1
 800669e:	f6bf aed6 	bge.w	800644e <atan+0x3e>
 80066a2:	f101 4300 	add.w	r3, r1, #2147483648	; 0x80000000
 80066a6:	461d      	mov	r5, r3
 80066a8:	e6d1      	b.n	800644e <atan+0x3e>
 80066aa:	a51d      	add	r5, pc, #116	; (adr r5, 8006720 <atan+0x310>)
 80066ac:	e9d5 4500 	ldrd	r4, r5, [r5]
 80066b0:	e6cd      	b.n	800644e <atan+0x3e>
 80066b2:	bf00      	nop
 80066b4:	f3af 8000 	nop.w
 80066b8:	54442d18 	.word	0x54442d18
 80066bc:	3ff921fb 	.word	0x3ff921fb
 80066c0:	8800759c 	.word	0x8800759c
 80066c4:	7e37e43c 	.word	0x7e37e43c
 80066c8:	e322da11 	.word	0xe322da11
 80066cc:	3f90ad3a 	.word	0x3f90ad3a
 80066d0:	24760deb 	.word	0x24760deb
 80066d4:	3fa97b4b 	.word	0x3fa97b4b
 80066d8:	a0d03d51 	.word	0xa0d03d51
 80066dc:	3fb10d66 	.word	0x3fb10d66
 80066e0:	c54c206e 	.word	0xc54c206e
 80066e4:	3fb745cd 	.word	0x3fb745cd
 80066e8:	920083ff 	.word	0x920083ff
 80066ec:	3fc24924 	.word	0x3fc24924
 80066f0:	5555550d 	.word	0x5555550d
 80066f4:	3fd55555 	.word	0x3fd55555
 80066f8:	2c6a6c2f 	.word	0x2c6a6c2f
 80066fc:	bfa2b444 	.word	0xbfa2b444
 8006700:	52defd9a 	.word	0x52defd9a
 8006704:	3fadde2d 	.word	0x3fadde2d
 8006708:	af749a6d 	.word	0xaf749a6d
 800670c:	3fb3b0f2 	.word	0x3fb3b0f2
 8006710:	fe231671 	.word	0xfe231671
 8006714:	3fbc71c6 	.word	0x3fbc71c6
 8006718:	9998ebc4 	.word	0x9998ebc4
 800671c:	3fc99999 	.word	0x3fc99999
 8006720:	54442d18 	.word	0x54442d18
 8006724:	bff921fb 	.word	0xbff921fb
 8006728:	440fffff 	.word	0x440fffff
 800672c:	7ff00000 	.word	0x7ff00000
 8006730:	3fdbffff 	.word	0x3fdbffff
 8006734:	3ff00000 	.word	0x3ff00000
 8006738:	3ff2ffff 	.word	0x3ff2ffff
 800673c:	40037fff 	.word	0x40037fff
 8006740:	3ff80000 	.word	0x3ff80000
 8006744:	bff00000 	.word	0xbff00000
 8006748:	08007908 	.word	0x08007908
 800674c:	080078e8 	.word	0x080078e8

08006750 <fabs>:
 8006750:	ec51 0b10 	vmov	r0, r1, d0
 8006754:	ee10 2a10 	vmov	r2, s0
 8006758:	f021 4300 	bic.w	r3, r1, #2147483648	; 0x80000000
 800675c:	ec43 2b10 	vmov	d0, r2, r3
 8006760:	4770      	bx	lr
	...

08006764 <pow>:
 8006764:	e92d 4ff0 	stmdb	sp!, {r4, r5, r6, r7, r8, r9, sl, fp, lr}
 8006768:	ed2d 8b04 	vpush	{d8-d9}
 800676c:	f8df 92d0 	ldr.w	r9, [pc, #720]	; 8006a40 <pow+0x2dc>
 8006770:	b08d      	sub	sp, #52	; 0x34
 8006772:	ec57 6b10 	vmov	r6, r7, d0
 8006776:	ec55 4b11 	vmov	r4, r5, d1
 800677a:	f000 f9bd 	bl	8006af8 <__ieee754_pow>
 800677e:	f999 3000 	ldrsb.w	r3, [r9]
 8006782:	9300      	str	r3, [sp, #0]
 8006784:	3301      	adds	r3, #1
 8006786:	eeb0 8a40 	vmov.f32	s16, s0
 800678a:	eef0 8a60 	vmov.f32	s17, s1
 800678e:	46c8      	mov	r8, r9
 8006790:	d05f      	beq.n	8006852 <pow+0xee>
 8006792:	4622      	mov	r2, r4
 8006794:	462b      	mov	r3, r5
 8006796:	4620      	mov	r0, r4
 8006798:	4629      	mov	r1, r5
 800679a:	f7fa f973 	bl	8000a84 <__aeabi_dcmpun>
 800679e:	4683      	mov	fp, r0
 80067a0:	2800      	cmp	r0, #0
 80067a2:	d156      	bne.n	8006852 <pow+0xee>
 80067a4:	4632      	mov	r2, r6
 80067a6:	463b      	mov	r3, r7
 80067a8:	4630      	mov	r0, r6
 80067aa:	4639      	mov	r1, r7
 80067ac:	f7fa f96a 	bl	8000a84 <__aeabi_dcmpun>
 80067b0:	9001      	str	r0, [sp, #4]
 80067b2:	b1e8      	cbz	r0, 80067f0 <pow+0x8c>
 80067b4:	2200      	movs	r2, #0
 80067b6:	2300      	movs	r3, #0
 80067b8:	4620      	mov	r0, r4
 80067ba:	4629      	mov	r1, r5
 80067bc:	f7fa f930 	bl	8000a20 <__aeabi_dcmpeq>
 80067c0:	2800      	cmp	r0, #0
 80067c2:	d046      	beq.n	8006852 <pow+0xee>
 80067c4:	2301      	movs	r3, #1
 80067c6:	9302      	str	r3, [sp, #8]
 80067c8:	4b96      	ldr	r3, [pc, #600]	; (8006a24 <pow+0x2c0>)
 80067ca:	9303      	str	r3, [sp, #12]
 80067cc:	4b96      	ldr	r3, [pc, #600]	; (8006a28 <pow+0x2c4>)
 80067ce:	f8cd b028 	str.w	fp, [sp, #40]	; 0x28
 80067d2:	2200      	movs	r2, #0
 80067d4:	e9cd 2308 	strd	r2, r3, [sp, #32]
 80067d8:	9b00      	ldr	r3, [sp, #0]
 80067da:	2b02      	cmp	r3, #2
 80067dc:	e9cd 6704 	strd	r6, r7, [sp, #16]
 80067e0:	e9cd 4506 	strd	r4, r5, [sp, #24]
 80067e4:	d033      	beq.n	800684e <pow+0xea>
 80067e6:	a802      	add	r0, sp, #8
 80067e8:	f000 ff4c 	bl	8007684 <matherr>
 80067ec:	bb48      	cbnz	r0, 8006842 <pow+0xde>
 80067ee:	e05d      	b.n	80068ac <pow+0x148>
 80067f0:	f04f 0a00 	mov.w	sl, #0
 80067f4:	f04f 0b00 	mov.w	fp, #0
 80067f8:	4652      	mov	r2, sl
 80067fa:	465b      	mov	r3, fp
 80067fc:	4630      	mov	r0, r6
 80067fe:	4639      	mov	r1, r7
 8006800:	f7fa f90e 	bl	8000a20 <__aeabi_dcmpeq>
 8006804:	ec4b ab19 	vmov	d9, sl, fp
 8006808:	2800      	cmp	r0, #0
 800680a:	d054      	beq.n	80068b6 <pow+0x152>
 800680c:	4652      	mov	r2, sl
 800680e:	465b      	mov	r3, fp
 8006810:	4620      	mov	r0, r4
 8006812:	4629      	mov	r1, r5
 8006814:	f7fa f904 	bl	8000a20 <__aeabi_dcmpeq>
 8006818:	4680      	mov	r8, r0
 800681a:	b318      	cbz	r0, 8006864 <pow+0x100>
 800681c:	2301      	movs	r3, #1
 800681e:	9302      	str	r3, [sp, #8]
 8006820:	4b80      	ldr	r3, [pc, #512]	; (8006a24 <pow+0x2c0>)
 8006822:	9303      	str	r3, [sp, #12]
 8006824:	9b01      	ldr	r3, [sp, #4]
 8006826:	930a      	str	r3, [sp, #40]	; 0x28
 8006828:	9b00      	ldr	r3, [sp, #0]
 800682a:	e9cd 6704 	strd	r6, r7, [sp, #16]
 800682e:	e9cd 4506 	strd	r4, r5, [sp, #24]
 8006832:	e9cd ab08 	strd	sl, fp, [sp, #32]
 8006836:	2b00      	cmp	r3, #0
 8006838:	d0d5      	beq.n	80067e6 <pow+0x82>
 800683a:	4b7b      	ldr	r3, [pc, #492]	; (8006a28 <pow+0x2c4>)
 800683c:	2200      	movs	r2, #0
 800683e:	e9cd 2308 	strd	r2, r3, [sp, #32]
 8006842:	9b0a      	ldr	r3, [sp, #40]	; 0x28
 8006844:	b11b      	cbz	r3, 800684e <pow+0xea>
 8006846:	f7ff fdb1 	bl	80063ac <__errno>
 800684a:	9b0a      	ldr	r3, [sp, #40]	; 0x28
 800684c:	6003      	str	r3, [r0, #0]
 800684e:	ed9d 8b08 	vldr	d8, [sp, #32]
 8006852:	eeb0 0a48 	vmov.f32	s0, s16
 8006856:	eef0 0a68 	vmov.f32	s1, s17
 800685a:	b00d      	add	sp, #52	; 0x34
 800685c:	ecbd 8b04 	vpop	{d8-d9}
 8006860:	e8bd 8ff0 	ldmia.w	sp!, {r4, r5, r6, r7, r8, r9, sl, fp, pc}
 8006864:	ec45 4b10 	vmov	d0, r4, r5
 8006868:	f000 ff04 	bl	8007674 <finite>
 800686c:	2800      	cmp	r0, #0
 800686e:	d0f0      	beq.n	8006852 <pow+0xee>
 8006870:	4652      	mov	r2, sl
 8006872:	465b      	mov	r3, fp
 8006874:	4620      	mov	r0, r4
 8006876:	4629      	mov	r1, r5
 8006878:	f7fa f8dc 	bl	8000a34 <__aeabi_dcmplt>
 800687c:	2800      	cmp	r0, #0
 800687e:	d0e8      	beq.n	8006852 <pow+0xee>
 8006880:	2301      	movs	r3, #1
 8006882:	9302      	str	r3, [sp, #8]
 8006884:	4b67      	ldr	r3, [pc, #412]	; (8006a24 <pow+0x2c0>)
 8006886:	9303      	str	r3, [sp, #12]
 8006888:	f999 3000 	ldrsb.w	r3, [r9]
 800688c:	f8cd 8028 	str.w	r8, [sp, #40]	; 0x28
 8006890:	e9cd 6704 	strd	r6, r7, [sp, #16]
 8006894:	e9cd 4506 	strd	r4, r5, [sp, #24]
 8006898:	b913      	cbnz	r3, 80068a0 <pow+0x13c>
 800689a:	e9cd ab08 	strd	sl, fp, [sp, #32]
 800689e:	e7a2      	b.n	80067e6 <pow+0x82>
 80068a0:	4962      	ldr	r1, [pc, #392]	; (8006a2c <pow+0x2c8>)
 80068a2:	2000      	movs	r0, #0
 80068a4:	e9cd 0108 	strd	r0, r1, [sp, #32]
 80068a8:	2b02      	cmp	r3, #2
 80068aa:	d19c      	bne.n	80067e6 <pow+0x82>
 80068ac:	f7ff fd7e 	bl	80063ac <__errno>
 80068b0:	2321      	movs	r3, #33	; 0x21
 80068b2:	6003      	str	r3, [r0, #0]
 80068b4:	e7c5      	b.n	8006842 <pow+0xde>
 80068b6:	eeb0 0a48 	vmov.f32	s0, s16
 80068ba:	eef0 0a68 	vmov.f32	s1, s17
 80068be:	f000 fed9 	bl	8007674 <finite>
 80068c2:	9000      	str	r0, [sp, #0]
 80068c4:	2800      	cmp	r0, #0
 80068c6:	f040 8081 	bne.w	80069cc <pow+0x268>
 80068ca:	ec47 6b10 	vmov	d0, r6, r7
 80068ce:	f000 fed1 	bl	8007674 <finite>
 80068d2:	2800      	cmp	r0, #0
 80068d4:	d07a      	beq.n	80069cc <pow+0x268>
 80068d6:	ec45 4b10 	vmov	d0, r4, r5
 80068da:	f000 fecb 	bl	8007674 <finite>
 80068de:	2800      	cmp	r0, #0
 80068e0:	d074      	beq.n	80069cc <pow+0x268>
 80068e2:	ec53 2b18 	vmov	r2, r3, d8
 80068e6:	ee18 0a10 	vmov	r0, s16
 80068ea:	4619      	mov	r1, r3
 80068ec:	f7fa f8ca 	bl	8000a84 <__aeabi_dcmpun>
 80068f0:	f999 9000 	ldrsb.w	r9, [r9]
 80068f4:	4b4b      	ldr	r3, [pc, #300]	; (8006a24 <pow+0x2c0>)
 80068f6:	b1b0      	cbz	r0, 8006926 <pow+0x1c2>
 80068f8:	2201      	movs	r2, #1
 80068fa:	e9cd 2302 	strd	r2, r3, [sp, #8]
 80068fe:	9b00      	ldr	r3, [sp, #0]
 8006900:	930a      	str	r3, [sp, #40]	; 0x28
 8006902:	e9cd 6704 	strd	r6, r7, [sp, #16]
 8006906:	e9cd 4506 	strd	r4, r5, [sp, #24]
 800690a:	f1b9 0f00 	cmp.w	r9, #0
 800690e:	d0c4      	beq.n	800689a <pow+0x136>
 8006910:	4652      	mov	r2, sl
 8006912:	465b      	mov	r3, fp
 8006914:	4650      	mov	r0, sl
 8006916:	4659      	mov	r1, fp
 8006918:	f7f9 ff44 	bl	80007a4 <__aeabi_ddiv>
 800691c:	f1b9 0f02 	cmp.w	r9, #2
 8006920:	e9cd 0108 	strd	r0, r1, [sp, #32]
 8006924:	e7c1      	b.n	80068aa <pow+0x146>
 8006926:	2203      	movs	r2, #3
 8006928:	e9cd 2302 	strd	r2, r3, [sp, #8]
 800692c:	900a      	str	r0, [sp, #40]	; 0x28
 800692e:	4629      	mov	r1, r5
 8006930:	4620      	mov	r0, r4
 8006932:	2200      	movs	r2, #0
 8006934:	4b3e      	ldr	r3, [pc, #248]	; (8006a30 <pow+0x2cc>)
 8006936:	e9cd 4506 	strd	r4, r5, [sp, #24]
 800693a:	e9cd 6704 	strd	r6, r7, [sp, #16]
 800693e:	f7f9 fe07 	bl	8000550 <__aeabi_dmul>
 8006942:	4604      	mov	r4, r0
 8006944:	460d      	mov	r5, r1
 8006946:	f1b9 0f00 	cmp.w	r9, #0
 800694a:	d124      	bne.n	8006996 <pow+0x232>
 800694c:	4b39      	ldr	r3, [pc, #228]	; (8006a34 <pow+0x2d0>)
 800694e:	f04f 4260 	mov.w	r2, #3758096384	; 0xe0000000
 8006952:	e9cd 2308 	strd	r2, r3, [sp, #32]
 8006956:	4630      	mov	r0, r6
 8006958:	4652      	mov	r2, sl
 800695a:	465b      	mov	r3, fp
 800695c:	4639      	mov	r1, r7
 800695e:	f7fa f869 	bl	8000a34 <__aeabi_dcmplt>
 8006962:	2800      	cmp	r0, #0
 8006964:	d056      	beq.n	8006a14 <pow+0x2b0>
 8006966:	ec45 4b10 	vmov	d0, r4, r5
 800696a:	f000 fe95 	bl	8007698 <rint>
 800696e:	4622      	mov	r2, r4
 8006970:	462b      	mov	r3, r5
 8006972:	ec51 0b10 	vmov	r0, r1, d0
 8006976:	f7fa f853 	bl	8000a20 <__aeabi_dcmpeq>
 800697a:	b920      	cbnz	r0, 8006986 <pow+0x222>
 800697c:	4b2e      	ldr	r3, [pc, #184]	; (8006a38 <pow+0x2d4>)
 800697e:	f04f 4260 	mov.w	r2, #3758096384	; 0xe0000000
 8006982:	e9cd 2308 	strd	r2, r3, [sp, #32]
 8006986:	f998 3000 	ldrsb.w	r3, [r8]
 800698a:	2b02      	cmp	r3, #2
 800698c:	d142      	bne.n	8006a14 <pow+0x2b0>
 800698e:	f7ff fd0d 	bl	80063ac <__errno>
 8006992:	2322      	movs	r3, #34	; 0x22
 8006994:	e78d      	b.n	80068b2 <pow+0x14e>
 8006996:	4b29      	ldr	r3, [pc, #164]	; (8006a3c <pow+0x2d8>)
 8006998:	2200      	movs	r2, #0
 800699a:	e9cd 2308 	strd	r2, r3, [sp, #32]
 800699e:	4630      	mov	r0, r6
 80069a0:	4652      	mov	r2, sl
 80069a2:	465b      	mov	r3, fp
 80069a4:	4639      	mov	r1, r7
 80069a6:	f7fa f845 	bl	8000a34 <__aeabi_dcmplt>
 80069aa:	2800      	cmp	r0, #0
 80069ac:	d0eb      	beq.n	8006986 <pow+0x222>
 80069ae:	ec45 4b10 	vmov	d0, r4, r5
 80069b2:	f000 fe71 	bl	8007698 <rint>
 80069b6:	4622      	mov	r2, r4
 80069b8:	462b      	mov	r3, r5
 80069ba:	ec51 0b10 	vmov	r0, r1, d0
 80069be:	f7fa f82f 	bl	8000a20 <__aeabi_dcmpeq>
 80069c2:	2800      	cmp	r0, #0
 80069c4:	d1df      	bne.n	8006986 <pow+0x222>
 80069c6:	2200      	movs	r2, #0
 80069c8:	4b18      	ldr	r3, [pc, #96]	; (8006a2c <pow+0x2c8>)
 80069ca:	e7da      	b.n	8006982 <pow+0x21e>
 80069cc:	2200      	movs	r2, #0
 80069ce:	2300      	movs	r3, #0
 80069d0:	ec51 0b18 	vmov	r0, r1, d8
 80069d4:	f7fa f824 	bl	8000a20 <__aeabi_dcmpeq>
 80069d8:	2800      	cmp	r0, #0
 80069da:	f43f af3a 	beq.w	8006852 <pow+0xee>
 80069de:	ec47 6b10 	vmov	d0, r6, r7
 80069e2:	f000 fe47 	bl	8007674 <finite>
 80069e6:	2800      	cmp	r0, #0
 80069e8:	f43f af33 	beq.w	8006852 <pow+0xee>
 80069ec:	ec45 4b10 	vmov	d0, r4, r5
 80069f0:	f000 fe40 	bl	8007674 <finite>
 80069f4:	2800      	cmp	r0, #0
 80069f6:	f43f af2c 	beq.w	8006852 <pow+0xee>
 80069fa:	2304      	movs	r3, #4
 80069fc:	9302      	str	r3, [sp, #8]
 80069fe:	4b09      	ldr	r3, [pc, #36]	; (8006a24 <pow+0x2c0>)
 8006a00:	9303      	str	r3, [sp, #12]
 8006a02:	2300      	movs	r3, #0
 8006a04:	930a      	str	r3, [sp, #40]	; 0x28
 8006a06:	e9cd 6704 	strd	r6, r7, [sp, #16]
 8006a0a:	e9cd 4506 	strd	r4, r5, [sp, #24]
 8006a0e:	ed8d 9b08 	vstr	d9, [sp, #32]
 8006a12:	e7b8      	b.n	8006986 <pow+0x222>
 8006a14:	a802      	add	r0, sp, #8
 8006a16:	f000 fe35 	bl	8007684 <matherr>
 8006a1a:	2800      	cmp	r0, #0
 8006a1c:	f47f af11 	bne.w	8006842 <pow+0xde>
 8006a20:	e7b5      	b.n	800698e <pow+0x22a>
 8006a22:	bf00      	nop
 8006a24:	08007928 	.word	0x08007928
 8006a28:	3ff00000 	.word	0x3ff00000
 8006a2c:	fff00000 	.word	0xfff00000
 8006a30:	3fe00000 	.word	0x3fe00000
 8006a34:	47efffff 	.word	0x47efffff
 8006a38:	c7efffff 	.word	0xc7efffff
 8006a3c:	7ff00000 	.word	0x7ff00000
 8006a40:	20000070 	.word	0x20000070

08006a44 <sqrt>:
 8006a44:	e92d 43f0 	stmdb	sp!, {r4, r5, r6, r7, r8, r9, lr}
 8006a48:	ed2d 8b02 	vpush	{d8}
 8006a4c:	b08b      	sub	sp, #44	; 0x2c
 8006a4e:	ec55 4b10 	vmov	r4, r5, d0
 8006a52:	f000 fd5f 	bl	8007514 <__ieee754_sqrt>
 8006a56:	4b26      	ldr	r3, [pc, #152]	; (8006af0 <sqrt+0xac>)
 8006a58:	eeb0 8a40 	vmov.f32	s16, s0
 8006a5c:	eef0 8a60 	vmov.f32	s17, s1
 8006a60:	f993 6000 	ldrsb.w	r6, [r3]
 8006a64:	1c73      	adds	r3, r6, #1
 8006a66:	d02a      	beq.n	8006abe <sqrt+0x7a>
 8006a68:	4622      	mov	r2, r4
 8006a6a:	462b      	mov	r3, r5
 8006a6c:	4620      	mov	r0, r4
 8006a6e:	4629      	mov	r1, r5
 8006a70:	f7fa f808 	bl	8000a84 <__aeabi_dcmpun>
 8006a74:	4607      	mov	r7, r0
 8006a76:	bb10      	cbnz	r0, 8006abe <sqrt+0x7a>
 8006a78:	f04f 0800 	mov.w	r8, #0
 8006a7c:	f04f 0900 	mov.w	r9, #0
 8006a80:	4642      	mov	r2, r8
 8006a82:	464b      	mov	r3, r9
 8006a84:	4620      	mov	r0, r4
 8006a86:	4629      	mov	r1, r5
 8006a88:	f7f9 ffd4 	bl	8000a34 <__aeabi_dcmplt>
 8006a8c:	b1b8      	cbz	r0, 8006abe <sqrt+0x7a>
 8006a8e:	2301      	movs	r3, #1
 8006a90:	9300      	str	r3, [sp, #0]
 8006a92:	4b18      	ldr	r3, [pc, #96]	; (8006af4 <sqrt+0xb0>)
 8006a94:	9301      	str	r3, [sp, #4]
 8006a96:	9708      	str	r7, [sp, #32]
 8006a98:	e9cd 4504 	strd	r4, r5, [sp, #16]
 8006a9c:	e9cd 4502 	strd	r4, r5, [sp, #8]
 8006aa0:	b9b6      	cbnz	r6, 8006ad0 <sqrt+0x8c>
 8006aa2:	e9cd 8906 	strd	r8, r9, [sp, #24]
 8006aa6:	4668      	mov	r0, sp
 8006aa8:	f000 fdec 	bl	8007684 <matherr>
 8006aac:	b1d0      	cbz	r0, 8006ae4 <sqrt+0xa0>
 8006aae:	9b08      	ldr	r3, [sp, #32]
 8006ab0:	b11b      	cbz	r3, 8006aba <sqrt+0x76>
 8006ab2:	f7ff fc7b 	bl	80063ac <__errno>
 8006ab6:	9b08      	ldr	r3, [sp, #32]
 8006ab8:	6003      	str	r3, [r0, #0]
 8006aba:	ed9d 8b06 	vldr	d8, [sp, #24]
 8006abe:	eeb0 0a48 	vmov.f32	s0, s16
 8006ac2:	eef0 0a68 	vmov.f32	s1, s17
 8006ac6:	b00b      	add	sp, #44	; 0x2c
 8006ac8:	ecbd 8b02 	vpop	{d8}
 8006acc:	e8bd 83f0 	ldmia.w	sp!, {r4, r5, r6, r7, r8, r9, pc}
 8006ad0:	4642      	mov	r2, r8
 8006ad2:	464b      	mov	r3, r9
 8006ad4:	4640      	mov	r0, r8
 8006ad6:	4649      	mov	r1, r9
 8006ad8:	f7f9 fe64 	bl	80007a4 <__aeabi_ddiv>
 8006adc:	2e02      	cmp	r6, #2
 8006ade:	e9cd 0106 	strd	r0, r1, [sp, #24]
 8006ae2:	d1e0      	bne.n	8006aa6 <sqrt+0x62>
 8006ae4:	f7ff fc62 	bl	80063ac <__errno>
 8006ae8:	2321      	movs	r3, #33	; 0x21
 8006aea:	6003      	str	r3, [r0, #0]
 8006aec:	e7df      	b.n	8006aae <sqrt+0x6a>
 8006aee:	bf00      	nop
 8006af0:	20000070 	.word	0x20000070
 8006af4:	0800792c 	.word	0x0800792c

08006af8 <__ieee754_pow>:
 8006af8:	e92d 4ff0 	stmdb	sp!, {r4, r5, r6, r7, r8, r9, sl, fp, lr}
 8006afc:	b091      	sub	sp, #68	; 0x44
 8006afe:	ed8d 1b00 	vstr	d1, [sp]
 8006b02:	e9dd 2900 	ldrd	r2, r9, [sp]
 8006b06:	f029 4800 	bic.w	r8, r9, #2147483648	; 0x80000000
 8006b0a:	ea58 0302 	orrs.w	r3, r8, r2
 8006b0e:	ec57 6b10 	vmov	r6, r7, d0
 8006b12:	f000 84be 	beq.w	8007492 <__ieee754_pow+0x99a>
 8006b16:	4b7a      	ldr	r3, [pc, #488]	; (8006d00 <__ieee754_pow+0x208>)
 8006b18:	f027 4400 	bic.w	r4, r7, #2147483648	; 0x80000000
 8006b1c:	429c      	cmp	r4, r3
 8006b1e:	463d      	mov	r5, r7
 8006b20:	ee10 aa10 	vmov	sl, s0
 8006b24:	dc09      	bgt.n	8006b3a <__ieee754_pow+0x42>
 8006b26:	d103      	bne.n	8006b30 <__ieee754_pow+0x38>
 8006b28:	b93e      	cbnz	r6, 8006b3a <__ieee754_pow+0x42>
 8006b2a:	45a0      	cmp	r8, r4
 8006b2c:	dc0d      	bgt.n	8006b4a <__ieee754_pow+0x52>
 8006b2e:	e001      	b.n	8006b34 <__ieee754_pow+0x3c>
 8006b30:	4598      	cmp	r8, r3
 8006b32:	dc02      	bgt.n	8006b3a <__ieee754_pow+0x42>
 8006b34:	4598      	cmp	r8, r3
 8006b36:	d10e      	bne.n	8006b56 <__ieee754_pow+0x5e>
 8006b38:	b16a      	cbz	r2, 8006b56 <__ieee754_pow+0x5e>
 8006b3a:	f104 4440 	add.w	r4, r4, #3221225472	; 0xc0000000
 8006b3e:	f504 1480 	add.w	r4, r4, #1048576	; 0x100000
 8006b42:	ea54 030a 	orrs.w	r3, r4, sl
 8006b46:	f000 84a4 	beq.w	8007492 <__ieee754_pow+0x99a>
 8006b4a:	486e      	ldr	r0, [pc, #440]	; (8006d04 <__ieee754_pow+0x20c>)
 8006b4c:	b011      	add	sp, #68	; 0x44
 8006b4e:	e8bd 4ff0 	ldmia.w	sp!, {r4, r5, r6, r7, r8, r9, sl, fp, lr}
 8006b52:	f000 bd99 	b.w	8007688 <nan>
 8006b56:	2d00      	cmp	r5, #0
 8006b58:	da53      	bge.n	8006c02 <__ieee754_pow+0x10a>
 8006b5a:	4b6b      	ldr	r3, [pc, #428]	; (8006d08 <__ieee754_pow+0x210>)
 8006b5c:	4598      	cmp	r8, r3
 8006b5e:	dc4d      	bgt.n	8006bfc <__ieee754_pow+0x104>
 8006b60:	f1a3 7354 	sub.w	r3, r3, #55574528	; 0x3500000
 8006b64:	4598      	cmp	r8, r3
 8006b66:	dd4c      	ble.n	8006c02 <__ieee754_pow+0x10a>
 8006b68:	ea4f 5328 	mov.w	r3, r8, asr #20
 8006b6c:	f2a3 33ff 	subw	r3, r3, #1023	; 0x3ff
 8006b70:	2b14      	cmp	r3, #20
 8006b72:	dd26      	ble.n	8006bc2 <__ieee754_pow+0xca>
 8006b74:	f1c3 0334 	rsb	r3, r3, #52	; 0x34
 8006b78:	fa22 f103 	lsr.w	r1, r2, r3
 8006b7c:	fa01 f303 	lsl.w	r3, r1, r3
 8006b80:	4293      	cmp	r3, r2
 8006b82:	d13e      	bne.n	8006c02 <__ieee754_pow+0x10a>
 8006b84:	f001 0101 	and.w	r1, r1, #1
 8006b88:	f1c1 0b02 	rsb	fp, r1, #2
 8006b8c:	2a00      	cmp	r2, #0
 8006b8e:	d15b      	bne.n	8006c48 <__ieee754_pow+0x150>
 8006b90:	4b5b      	ldr	r3, [pc, #364]	; (8006d00 <__ieee754_pow+0x208>)
 8006b92:	4598      	cmp	r8, r3
 8006b94:	d124      	bne.n	8006be0 <__ieee754_pow+0xe8>
 8006b96:	f104 4340 	add.w	r3, r4, #3221225472	; 0xc0000000
 8006b9a:	f503 1380 	add.w	r3, r3, #1048576	; 0x100000
 8006b9e:	ea53 030a 	orrs.w	r3, r3, sl
 8006ba2:	f000 8476 	beq.w	8007492 <__ieee754_pow+0x99a>
 8006ba6:	4b59      	ldr	r3, [pc, #356]	; (8006d0c <__ieee754_pow+0x214>)
 8006ba8:	429c      	cmp	r4, r3
 8006baa:	dd2d      	ble.n	8006c08 <__ieee754_pow+0x110>
 8006bac:	f1b9 0f00 	cmp.w	r9, #0
 8006bb0:	f280 8473 	bge.w	800749a <__ieee754_pow+0x9a2>
 8006bb4:	2000      	movs	r0, #0
 8006bb6:	2100      	movs	r1, #0
 8006bb8:	ec41 0b10 	vmov	d0, r0, r1
 8006bbc:	b011      	add	sp, #68	; 0x44
 8006bbe:	e8bd 8ff0 	ldmia.w	sp!, {r4, r5, r6, r7, r8, r9, sl, fp, pc}
 8006bc2:	2a00      	cmp	r2, #0
 8006bc4:	d13e      	bne.n	8006c44 <__ieee754_pow+0x14c>
 8006bc6:	f1c3 0314 	rsb	r3, r3, #20
 8006bca:	fa48 f103 	asr.w	r1, r8, r3
 8006bce:	fa01 f303 	lsl.w	r3, r1, r3
 8006bd2:	4543      	cmp	r3, r8
 8006bd4:	f040 8469 	bne.w	80074aa <__ieee754_pow+0x9b2>
 8006bd8:	f001 0101 	and.w	r1, r1, #1
 8006bdc:	f1c1 0b02 	rsb	fp, r1, #2
 8006be0:	4b4b      	ldr	r3, [pc, #300]	; (8006d10 <__ieee754_pow+0x218>)
 8006be2:	4598      	cmp	r8, r3
 8006be4:	d118      	bne.n	8006c18 <__ieee754_pow+0x120>
 8006be6:	f1b9 0f00 	cmp.w	r9, #0
 8006bea:	f280 845a 	bge.w	80074a2 <__ieee754_pow+0x9aa>
 8006bee:	4948      	ldr	r1, [pc, #288]	; (8006d10 <__ieee754_pow+0x218>)
 8006bf0:	4632      	mov	r2, r6
 8006bf2:	463b      	mov	r3, r7
 8006bf4:	2000      	movs	r0, #0
 8006bf6:	f7f9 fdd5 	bl	80007a4 <__aeabi_ddiv>
 8006bfa:	e7dd      	b.n	8006bb8 <__ieee754_pow+0xc0>
 8006bfc:	f04f 0b02 	mov.w	fp, #2
 8006c00:	e7c4      	b.n	8006b8c <__ieee754_pow+0x94>
 8006c02:	f04f 0b00 	mov.w	fp, #0
 8006c06:	e7c1      	b.n	8006b8c <__ieee754_pow+0x94>
 8006c08:	f1b9 0f00 	cmp.w	r9, #0
 8006c0c:	dad2      	bge.n	8006bb4 <__ieee754_pow+0xbc>
 8006c0e:	e9dd 0300 	ldrd	r0, r3, [sp]
 8006c12:	f103 4100 	add.w	r1, r3, #2147483648	; 0x80000000
 8006c16:	e7cf      	b.n	8006bb8 <__ieee754_pow+0xc0>
 8006c18:	f1b9 4f80 	cmp.w	r9, #1073741824	; 0x40000000
 8006c1c:	d106      	bne.n	8006c2c <__ieee754_pow+0x134>
 8006c1e:	4632      	mov	r2, r6
 8006c20:	463b      	mov	r3, r7
 8006c22:	4610      	mov	r0, r2
 8006c24:	4619      	mov	r1, r3
 8006c26:	f7f9 fc93 	bl	8000550 <__aeabi_dmul>
 8006c2a:	e7c5      	b.n	8006bb8 <__ieee754_pow+0xc0>
 8006c2c:	4b39      	ldr	r3, [pc, #228]	; (8006d14 <__ieee754_pow+0x21c>)
 8006c2e:	4599      	cmp	r9, r3
 8006c30:	d10a      	bne.n	8006c48 <__ieee754_pow+0x150>
 8006c32:	2d00      	cmp	r5, #0
 8006c34:	db08      	blt.n	8006c48 <__ieee754_pow+0x150>
 8006c36:	ec47 6b10 	vmov	d0, r6, r7
 8006c3a:	b011      	add	sp, #68	; 0x44
 8006c3c:	e8bd 4ff0 	ldmia.w	sp!, {r4, r5, r6, r7, r8, r9, sl, fp, lr}
 8006c40:	f000 bc68 	b.w	8007514 <__ieee754_sqrt>
 8006c44:	f04f 0b00 	mov.w	fp, #0
 8006c48:	ec47 6b10 	vmov	d0, r6, r7
 8006c4c:	f7ff fd80 	bl	8006750 <fabs>
 8006c50:	ec51 0b10 	vmov	r0, r1, d0
 8006c54:	f1ba 0f00 	cmp.w	sl, #0
 8006c58:	d127      	bne.n	8006caa <__ieee754_pow+0x1b2>
 8006c5a:	b124      	cbz	r4, 8006c66 <__ieee754_pow+0x16e>
 8006c5c:	4b2c      	ldr	r3, [pc, #176]	; (8006d10 <__ieee754_pow+0x218>)
 8006c5e:	f025 4240 	bic.w	r2, r5, #3221225472	; 0xc0000000
 8006c62:	429a      	cmp	r2, r3
 8006c64:	d121      	bne.n	8006caa <__ieee754_pow+0x1b2>
 8006c66:	f1b9 0f00 	cmp.w	r9, #0
 8006c6a:	da05      	bge.n	8006c78 <__ieee754_pow+0x180>
 8006c6c:	4602      	mov	r2, r0
 8006c6e:	460b      	mov	r3, r1
 8006c70:	2000      	movs	r0, #0
 8006c72:	4927      	ldr	r1, [pc, #156]	; (8006d10 <__ieee754_pow+0x218>)
 8006c74:	f7f9 fd96 	bl	80007a4 <__aeabi_ddiv>
 8006c78:	2d00      	cmp	r5, #0
 8006c7a:	da9d      	bge.n	8006bb8 <__ieee754_pow+0xc0>
 8006c7c:	f104 4440 	add.w	r4, r4, #3221225472	; 0xc0000000
 8006c80:	f504 1480 	add.w	r4, r4, #1048576	; 0x100000
 8006c84:	ea54 030b 	orrs.w	r3, r4, fp
 8006c88:	d108      	bne.n	8006c9c <__ieee754_pow+0x1a4>
 8006c8a:	4602      	mov	r2, r0
 8006c8c:	460b      	mov	r3, r1
 8006c8e:	4610      	mov	r0, r2
 8006c90:	4619      	mov	r1, r3
 8006c92:	f7f9 faa5 	bl	80001e0 <__aeabi_dsub>
 8006c96:	4602      	mov	r2, r0
 8006c98:	460b      	mov	r3, r1
 8006c9a:	e7ac      	b.n	8006bf6 <__ieee754_pow+0xfe>
 8006c9c:	f1bb 0f01 	cmp.w	fp, #1
 8006ca0:	d18a      	bne.n	8006bb8 <__ieee754_pow+0xc0>
 8006ca2:	f101 4300 	add.w	r3, r1, #2147483648	; 0x80000000
 8006ca6:	4619      	mov	r1, r3
 8006ca8:	e786      	b.n	8006bb8 <__ieee754_pow+0xc0>
 8006caa:	0fed      	lsrs	r5, r5, #31
 8006cac:	1e6b      	subs	r3, r5, #1
 8006cae:	930d      	str	r3, [sp, #52]	; 0x34
 8006cb0:	ea5b 0303 	orrs.w	r3, fp, r3
 8006cb4:	d102      	bne.n	8006cbc <__ieee754_pow+0x1c4>
 8006cb6:	4632      	mov	r2, r6
 8006cb8:	463b      	mov	r3, r7
 8006cba:	e7e8      	b.n	8006c8e <__ieee754_pow+0x196>
 8006cbc:	4b16      	ldr	r3, [pc, #88]	; (8006d18 <__ieee754_pow+0x220>)
 8006cbe:	4598      	cmp	r8, r3
 8006cc0:	f340 80fe 	ble.w	8006ec0 <__ieee754_pow+0x3c8>
 8006cc4:	f103 7304 	add.w	r3, r3, #34603008	; 0x2100000
 8006cc8:	4598      	cmp	r8, r3
 8006cca:	dd0a      	ble.n	8006ce2 <__ieee754_pow+0x1ea>
 8006ccc:	4b0f      	ldr	r3, [pc, #60]	; (8006d0c <__ieee754_pow+0x214>)
 8006cce:	429c      	cmp	r4, r3
 8006cd0:	dc0d      	bgt.n	8006cee <__ieee754_pow+0x1f6>
 8006cd2:	f1b9 0f00 	cmp.w	r9, #0
 8006cd6:	f6bf af6d 	bge.w	8006bb4 <__ieee754_pow+0xbc>
 8006cda:	a307      	add	r3, pc, #28	; (adr r3, 8006cf8 <__ieee754_pow+0x200>)
 8006cdc:	e9d3 2300 	ldrd	r2, r3, [r3]
 8006ce0:	e79f      	b.n	8006c22 <__ieee754_pow+0x12a>
 8006ce2:	4b0e      	ldr	r3, [pc, #56]	; (8006d1c <__ieee754_pow+0x224>)
 8006ce4:	429c      	cmp	r4, r3
 8006ce6:	ddf4      	ble.n	8006cd2 <__ieee754_pow+0x1da>
 8006ce8:	4b09      	ldr	r3, [pc, #36]	; (8006d10 <__ieee754_pow+0x218>)
 8006cea:	429c      	cmp	r4, r3
 8006cec:	dd18      	ble.n	8006d20 <__ieee754_pow+0x228>
 8006cee:	f1b9 0f00 	cmp.w	r9, #0
 8006cf2:	dcf2      	bgt.n	8006cda <__ieee754_pow+0x1e2>
 8006cf4:	e75e      	b.n	8006bb4 <__ieee754_pow+0xbc>
 8006cf6:	bf00      	nop
 8006cf8:	8800759c 	.word	0x8800759c
 8006cfc:	7e37e43c 	.word	0x7e37e43c
 8006d00:	7ff00000 	.word	0x7ff00000
 8006d04:	08007930 	.word	0x08007930
 8006d08:	433fffff 	.word	0x433fffff
 8006d0c:	3fefffff 	.word	0x3fefffff
 8006d10:	3ff00000 	.word	0x3ff00000
 8006d14:	3fe00000 	.word	0x3fe00000
 8006d18:	41e00000 	.word	0x41e00000
 8006d1c:	3feffffe 	.word	0x3feffffe
 8006d20:	2200      	movs	r2, #0
 8006d22:	4b63      	ldr	r3, [pc, #396]	; (8006eb0 <__ieee754_pow+0x3b8>)
 8006d24:	f7f9 fa5c 	bl	80001e0 <__aeabi_dsub>
 8006d28:	a355      	add	r3, pc, #340	; (adr r3, 8006e80 <__ieee754_pow+0x388>)
 8006d2a:	e9d3 2300 	ldrd	r2, r3, [r3]
 8006d2e:	4604      	mov	r4, r0
 8006d30:	460d      	mov	r5, r1
 8006d32:	f7f9 fc0d 	bl	8000550 <__aeabi_dmul>
 8006d36:	a354      	add	r3, pc, #336	; (adr r3, 8006e88 <__ieee754_pow+0x390>)
 8006d38:	e9d3 2300 	ldrd	r2, r3, [r3]
 8006d3c:	4606      	mov	r6, r0
 8006d3e:	460f      	mov	r7, r1
 8006d40:	4620      	mov	r0, r4
 8006d42:	4629      	mov	r1, r5
 8006d44:	f7f9 fc04 	bl	8000550 <__aeabi_dmul>
 8006d48:	2200      	movs	r2, #0
 8006d4a:	e9cd 0102 	strd	r0, r1, [sp, #8]
 8006d4e:	4b59      	ldr	r3, [pc, #356]	; (8006eb4 <__ieee754_pow+0x3bc>)
 8006d50:	4620      	mov	r0, r4
 8006d52:	4629      	mov	r1, r5
 8006d54:	f7f9 fbfc 	bl	8000550 <__aeabi_dmul>
 8006d58:	4602      	mov	r2, r0
 8006d5a:	460b      	mov	r3, r1
 8006d5c:	a14c      	add	r1, pc, #304	; (adr r1, 8006e90 <__ieee754_pow+0x398>)
 8006d5e:	e9d1 0100 	ldrd	r0, r1, [r1]
 8006d62:	f7f9 fa3d 	bl	80001e0 <__aeabi_dsub>
 8006d66:	4622      	mov	r2, r4
 8006d68:	462b      	mov	r3, r5
 8006d6a:	f7f9 fbf1 	bl	8000550 <__aeabi_dmul>
 8006d6e:	4602      	mov	r2, r0
 8006d70:	460b      	mov	r3, r1
 8006d72:	2000      	movs	r0, #0
 8006d74:	4950      	ldr	r1, [pc, #320]	; (8006eb8 <__ieee754_pow+0x3c0>)
 8006d76:	f7f9 fa33 	bl	80001e0 <__aeabi_dsub>
 8006d7a:	4622      	mov	r2, r4
 8006d7c:	462b      	mov	r3, r5
 8006d7e:	4680      	mov	r8, r0
 8006d80:	4689      	mov	r9, r1
 8006d82:	4620      	mov	r0, r4
 8006d84:	4629      	mov	r1, r5
 8006d86:	f7f9 fbe3 	bl	8000550 <__aeabi_dmul>
 8006d8a:	4602      	mov	r2, r0
 8006d8c:	460b      	mov	r3, r1
 8006d8e:	4640      	mov	r0, r8
 8006d90:	4649      	mov	r1, r9
 8006d92:	f7f9 fbdd 	bl	8000550 <__aeabi_dmul>
 8006d96:	a340      	add	r3, pc, #256	; (adr r3, 8006e98 <__ieee754_pow+0x3a0>)
 8006d98:	e9d3 2300 	ldrd	r2, r3, [r3]
 8006d9c:	f7f9 fbd8 	bl	8000550 <__aeabi_dmul>
 8006da0:	4602      	mov	r2, r0
 8006da2:	460b      	mov	r3, r1
 8006da4:	e9dd 0102 	ldrd	r0, r1, [sp, #8]
 8006da8:	f7f9 fa1a 	bl	80001e0 <__aeabi_dsub>
 8006dac:	4602      	mov	r2, r0
 8006dae:	460b      	mov	r3, r1
 8006db0:	4604      	mov	r4, r0
 8006db2:	460d      	mov	r5, r1
 8006db4:	4630      	mov	r0, r6
 8006db6:	4639      	mov	r1, r7
 8006db8:	f7f9 fa14 	bl	80001e4 <__adddf3>
 8006dbc:	2000      	movs	r0, #0
 8006dbe:	e9cd 0104 	strd	r0, r1, [sp, #16]
 8006dc2:	4632      	mov	r2, r6
 8006dc4:	463b      	mov	r3, r7
 8006dc6:	f7f9 fa0b 	bl	80001e0 <__aeabi_dsub>
 8006dca:	4602      	mov	r2, r0
 8006dcc:	460b      	mov	r3, r1
 8006dce:	4620      	mov	r0, r4
 8006dd0:	4629      	mov	r1, r5
 8006dd2:	f7f9 fa05 	bl	80001e0 <__aeabi_dsub>
 8006dd6:	9a0d      	ldr	r2, [sp, #52]	; 0x34
 8006dd8:	f10b 33ff 	add.w	r3, fp, #4294967295
 8006ddc:	4313      	orrs	r3, r2
 8006dde:	4606      	mov	r6, r0
 8006de0:	460f      	mov	r7, r1
 8006de2:	f040 81eb 	bne.w	80071bc <__ieee754_pow+0x6c4>
 8006de6:	ed9f 7b2e 	vldr	d7, [pc, #184]	; 8006ea0 <__ieee754_pow+0x3a8>
 8006dea:	e9dd 4500 	ldrd	r4, r5, [sp]
 8006dee:	2400      	movs	r4, #0
 8006df0:	4622      	mov	r2, r4
 8006df2:	462b      	mov	r3, r5
 8006df4:	e9dd 0100 	ldrd	r0, r1, [sp]
 8006df8:	ed8d 7b02 	vstr	d7, [sp, #8]
 8006dfc:	f7f9 f9f0 	bl	80001e0 <__aeabi_dsub>
 8006e00:	e9dd 2304 	ldrd	r2, r3, [sp, #16]
 8006e04:	f7f9 fba4 	bl	8000550 <__aeabi_dmul>
 8006e08:	e9dd 2300 	ldrd	r2, r3, [sp]
 8006e0c:	4680      	mov	r8, r0
 8006e0e:	4689      	mov	r9, r1
 8006e10:	4630      	mov	r0, r6
 8006e12:	4639      	mov	r1, r7
 8006e14:	f7f9 fb9c 	bl	8000550 <__aeabi_dmul>
 8006e18:	4602      	mov	r2, r0
 8006e1a:	460b      	mov	r3, r1
 8006e1c:	4640      	mov	r0, r8
 8006e1e:	4649      	mov	r1, r9
 8006e20:	f7f9 f9e0 	bl	80001e4 <__adddf3>
 8006e24:	4622      	mov	r2, r4
 8006e26:	462b      	mov	r3, r5
 8006e28:	4680      	mov	r8, r0
 8006e2a:	4689      	mov	r9, r1
 8006e2c:	e9dd 0104 	ldrd	r0, r1, [sp, #16]
 8006e30:	f7f9 fb8e 	bl	8000550 <__aeabi_dmul>
 8006e34:	460b      	mov	r3, r1
 8006e36:	4604      	mov	r4, r0
 8006e38:	460d      	mov	r5, r1
 8006e3a:	4602      	mov	r2, r0
 8006e3c:	4649      	mov	r1, r9
 8006e3e:	4640      	mov	r0, r8
 8006e40:	e9cd 4500 	strd	r4, r5, [sp]
 8006e44:	f7f9 f9ce 	bl	80001e4 <__adddf3>
 8006e48:	4b1c      	ldr	r3, [pc, #112]	; (8006ebc <__ieee754_pow+0x3c4>)
 8006e4a:	4299      	cmp	r1, r3
 8006e4c:	4606      	mov	r6, r0
 8006e4e:	460f      	mov	r7, r1
 8006e50:	468b      	mov	fp, r1
 8006e52:	f340 82f7 	ble.w	8007444 <__ieee754_pow+0x94c>
 8006e56:	f101 433f 	add.w	r3, r1, #3204448256	; 0xbf000000
 8006e5a:	f503 03e0 	add.w	r3, r3, #7340032	; 0x700000
 8006e5e:	4303      	orrs	r3, r0
 8006e60:	f000 81ea 	beq.w	8007238 <__ieee754_pow+0x740>
 8006e64:	a310      	add	r3, pc, #64	; (adr r3, 8006ea8 <__ieee754_pow+0x3b0>)
 8006e66:	e9d3 2300 	ldrd	r2, r3, [r3]
 8006e6a:	e9dd 0102 	ldrd	r0, r1, [sp, #8]
 8006e6e:	f7f9 fb6f 	bl	8000550 <__aeabi_dmul>
 8006e72:	a30d      	add	r3, pc, #52	; (adr r3, 8006ea8 <__ieee754_pow+0x3b0>)
 8006e74:	e9d3 2300 	ldrd	r2, r3, [r3]
 8006e78:	e6d5      	b.n	8006c26 <__ieee754_pow+0x12e>
 8006e7a:	bf00      	nop
 8006e7c:	f3af 8000 	nop.w
 8006e80:	60000000 	.word	0x60000000
 8006e84:	3ff71547 	.word	0x3ff71547
 8006e88:	f85ddf44 	.word	0xf85ddf44
 8006e8c:	3e54ae0b 	.word	0x3e54ae0b
 8006e90:	55555555 	.word	0x55555555
 8006e94:	3fd55555 	.word	0x3fd55555
 8006e98:	652b82fe 	.word	0x652b82fe
 8006e9c:	3ff71547 	.word	0x3ff71547
 8006ea0:	00000000 	.word	0x00000000
 8006ea4:	bff00000 	.word	0xbff00000
 8006ea8:	8800759c 	.word	0x8800759c
 8006eac:	7e37e43c 	.word	0x7e37e43c
 8006eb0:	3ff00000 	.word	0x3ff00000
 8006eb4:	3fd00000 	.word	0x3fd00000
 8006eb8:	3fe00000 	.word	0x3fe00000
 8006ebc:	408fffff 	.word	0x408fffff
 8006ec0:	f5b4 1f80 	cmp.w	r4, #1048576	; 0x100000
 8006ec4:	f04f 0200 	mov.w	r2, #0
 8006ec8:	da05      	bge.n	8006ed6 <__ieee754_pow+0x3de>
 8006eca:	4bd3      	ldr	r3, [pc, #844]	; (8007218 <__ieee754_pow+0x720>)
 8006ecc:	f7f9 fb40 	bl	8000550 <__aeabi_dmul>
 8006ed0:	f06f 0234 	mvn.w	r2, #52	; 0x34
 8006ed4:	460c      	mov	r4, r1
 8006ed6:	1523      	asrs	r3, r4, #20
 8006ed8:	f2a3 33ff 	subw	r3, r3, #1023	; 0x3ff
 8006edc:	4413      	add	r3, r2
 8006ede:	9309      	str	r3, [sp, #36]	; 0x24
 8006ee0:	4bce      	ldr	r3, [pc, #824]	; (800721c <__ieee754_pow+0x724>)
 8006ee2:	f3c4 0413 	ubfx	r4, r4, #0, #20
 8006ee6:	f044 557f 	orr.w	r5, r4, #1069547520	; 0x3fc00000
 8006eea:	429c      	cmp	r4, r3
 8006eec:	f445 1540 	orr.w	r5, r5, #3145728	; 0x300000
 8006ef0:	dd08      	ble.n	8006f04 <__ieee754_pow+0x40c>
 8006ef2:	4bcb      	ldr	r3, [pc, #812]	; (8007220 <__ieee754_pow+0x728>)
 8006ef4:	429c      	cmp	r4, r3
 8006ef6:	f340 815e 	ble.w	80071b6 <__ieee754_pow+0x6be>
 8006efa:	9b09      	ldr	r3, [sp, #36]	; 0x24
 8006efc:	3301      	adds	r3, #1
 8006efe:	9309      	str	r3, [sp, #36]	; 0x24
 8006f00:	f5a5 1580 	sub.w	r5, r5, #1048576	; 0x100000
 8006f04:	f04f 0a00 	mov.w	sl, #0
 8006f08:	ea4f 03ca 	mov.w	r3, sl, lsl #3
 8006f0c:	930c      	str	r3, [sp, #48]	; 0x30
 8006f0e:	9a0c      	ldr	r2, [sp, #48]	; 0x30
 8006f10:	4bc4      	ldr	r3, [pc, #784]	; (8007224 <__ieee754_pow+0x72c>)
 8006f12:	4413      	add	r3, r2
 8006f14:	ed93 7b00 	vldr	d7, [r3]
 8006f18:	4629      	mov	r1, r5
 8006f1a:	ec53 2b17 	vmov	r2, r3, d7
 8006f1e:	ed8d 7b06 	vstr	d7, [sp, #24]
 8006f22:	e9cd 010a 	strd	r0, r1, [sp, #40]	; 0x28
 8006f26:	f7f9 f95b 	bl	80001e0 <__aeabi_dsub>
 8006f2a:	e9dd 230a 	ldrd	r2, r3, [sp, #40]	; 0x28
 8006f2e:	4606      	mov	r6, r0
 8006f30:	460f      	mov	r7, r1
 8006f32:	e9dd 0106 	ldrd	r0, r1, [sp, #24]
 8006f36:	f7f9 f955 	bl	80001e4 <__adddf3>
 8006f3a:	4602      	mov	r2, r0
 8006f3c:	460b      	mov	r3, r1
 8006f3e:	2000      	movs	r0, #0
 8006f40:	49b9      	ldr	r1, [pc, #740]	; (8007228 <__ieee754_pow+0x730>)
 8006f42:	f7f9 fc2f 	bl	80007a4 <__aeabi_ddiv>
 8006f46:	e9cd 010e 	strd	r0, r1, [sp, #56]	; 0x38
 8006f4a:	4602      	mov	r2, r0
 8006f4c:	460b      	mov	r3, r1
 8006f4e:	4630      	mov	r0, r6
 8006f50:	4639      	mov	r1, r7
 8006f52:	f7f9 fafd 	bl	8000550 <__aeabi_dmul>
 8006f56:	e9cd 0104 	strd	r0, r1, [sp, #16]
 8006f5a:	e9dd 3404 	ldrd	r3, r4, [sp, #16]
 8006f5e:	e9cd 3402 	strd	r3, r4, [sp, #8]
 8006f62:	2300      	movs	r3, #0
 8006f64:	9302      	str	r3, [sp, #8]
 8006f66:	e9dd 8902 	ldrd	r8, r9, [sp, #8]
 8006f6a:	106d      	asrs	r5, r5, #1
 8006f6c:	f045 5500 	orr.w	r5, r5, #536870912	; 0x20000000
 8006f70:	f505 2500 	add.w	r5, r5, #524288	; 0x80000
 8006f74:	2200      	movs	r2, #0
 8006f76:	eb05 438a 	add.w	r3, r5, sl, lsl #18
 8006f7a:	4640      	mov	r0, r8
 8006f7c:	4649      	mov	r1, r9
 8006f7e:	4614      	mov	r4, r2
 8006f80:	461d      	mov	r5, r3
 8006f82:	f7f9 fae5 	bl	8000550 <__aeabi_dmul>
 8006f86:	4602      	mov	r2, r0
 8006f88:	460b      	mov	r3, r1
 8006f8a:	4630      	mov	r0, r6
 8006f8c:	4639      	mov	r1, r7
 8006f8e:	f7f9 f927 	bl	80001e0 <__aeabi_dsub>
 8006f92:	e9dd 2306 	ldrd	r2, r3, [sp, #24]
 8006f96:	4606      	mov	r6, r0
 8006f98:	460f      	mov	r7, r1
 8006f9a:	4620      	mov	r0, r4
 8006f9c:	4629      	mov	r1, r5
 8006f9e:	f7f9 f91f 	bl	80001e0 <__aeabi_dsub>
 8006fa2:	4602      	mov	r2, r0
 8006fa4:	460b      	mov	r3, r1
 8006fa6:	e9dd 010a 	ldrd	r0, r1, [sp, #40]	; 0x28
 8006faa:	f7f9 f919 	bl	80001e0 <__aeabi_dsub>
 8006fae:	4642      	mov	r2, r8
 8006fb0:	464b      	mov	r3, r9
 8006fb2:	f7f9 facd 	bl	8000550 <__aeabi_dmul>
 8006fb6:	4602      	mov	r2, r0
 8006fb8:	460b      	mov	r3, r1
 8006fba:	4630      	mov	r0, r6
 8006fbc:	4639      	mov	r1, r7
 8006fbe:	f7f9 f90f 	bl	80001e0 <__aeabi_dsub>
 8006fc2:	e9dd 230e 	ldrd	r2, r3, [sp, #56]	; 0x38
 8006fc6:	f7f9 fac3 	bl	8000550 <__aeabi_dmul>
 8006fca:	e9dd 2304 	ldrd	r2, r3, [sp, #16]
 8006fce:	e9cd 0106 	strd	r0, r1, [sp, #24]
 8006fd2:	4610      	mov	r0, r2
 8006fd4:	4619      	mov	r1, r3
 8006fd6:	f7f9 fabb 	bl	8000550 <__aeabi_dmul>
 8006fda:	a37b      	add	r3, pc, #492	; (adr r3, 80071c8 <__ieee754_pow+0x6d0>)
 8006fdc:	e9d3 2300 	ldrd	r2, r3, [r3]
 8006fe0:	4604      	mov	r4, r0
 8006fe2:	460d      	mov	r5, r1
 8006fe4:	f7f9 fab4 	bl	8000550 <__aeabi_dmul>
 8006fe8:	a379      	add	r3, pc, #484	; (adr r3, 80071d0 <__ieee754_pow+0x6d8>)
 8006fea:	e9d3 2300 	ldrd	r2, r3, [r3]
 8006fee:	f7f9 f8f9 	bl	80001e4 <__adddf3>
 8006ff2:	4622      	mov	r2, r4
 8006ff4:	462b      	mov	r3, r5
 8006ff6:	f7f9 faab 	bl	8000550 <__aeabi_dmul>
 8006ffa:	a377      	add	r3, pc, #476	; (adr r3, 80071d8 <__ieee754_pow+0x6e0>)
 8006ffc:	e9d3 2300 	ldrd	r2, r3, [r3]
 8007000:	f7f9 f8f0 	bl	80001e4 <__adddf3>
 8007004:	4622      	mov	r2, r4
 8007006:	462b      	mov	r3, r5
 8007008:	f7f9 faa2 	bl	8000550 <__aeabi_dmul>
 800700c:	a374      	add	r3, pc, #464	; (adr r3, 80071e0 <__ieee754_pow+0x6e8>)
 800700e:	e9d3 2300 	ldrd	r2, r3, [r3]
 8007012:	f7f9 f8e7 	bl	80001e4 <__adddf3>
 8007016:	4622      	mov	r2, r4
 8007018:	462b      	mov	r3, r5
 800701a:	f7f9 fa99 	bl	8000550 <__aeabi_dmul>
 800701e:	a372      	add	r3, pc, #456	; (adr r3, 80071e8 <__ieee754_pow+0x6f0>)
 8007020:	e9d3 2300 	ldrd	r2, r3, [r3]
 8007024:	f7f9 f8de 	bl	80001e4 <__adddf3>
 8007028:	4622      	mov	r2, r4
 800702a:	462b      	mov	r3, r5
 800702c:	f7f9 fa90 	bl	8000550 <__aeabi_dmul>
 8007030:	a36f      	add	r3, pc, #444	; (adr r3, 80071f0 <__ieee754_pow+0x6f8>)
 8007032:	e9d3 2300 	ldrd	r2, r3, [r3]
 8007036:	f7f9 f8d5 	bl	80001e4 <__adddf3>
 800703a:	4622      	mov	r2, r4
 800703c:	4606      	mov	r6, r0
 800703e:	460f      	mov	r7, r1
 8007040:	462b      	mov	r3, r5
 8007042:	4620      	mov	r0, r4
 8007044:	4629      	mov	r1, r5
 8007046:	f7f9 fa83 	bl	8000550 <__aeabi_dmul>
 800704a:	4602      	mov	r2, r0
 800704c:	460b      	mov	r3, r1
 800704e:	4630      	mov	r0, r6
 8007050:	4639      	mov	r1, r7
 8007052:	f7f9 fa7d 	bl	8000550 <__aeabi_dmul>
 8007056:	4642      	mov	r2, r8
 8007058:	4604      	mov	r4, r0
 800705a:	460d      	mov	r5, r1
 800705c:	464b      	mov	r3, r9
 800705e:	e9dd 0104 	ldrd	r0, r1, [sp, #16]
 8007062:	f7f9 f8bf 	bl	80001e4 <__adddf3>
 8007066:	e9dd 2306 	ldrd	r2, r3, [sp, #24]
 800706a:	f7f9 fa71 	bl	8000550 <__aeabi_dmul>
 800706e:	4622      	mov	r2, r4
 8007070:	462b      	mov	r3, r5
 8007072:	f7f9 f8b7 	bl	80001e4 <__adddf3>
 8007076:	4642      	mov	r2, r8
 8007078:	4606      	mov	r6, r0
 800707a:	460f      	mov	r7, r1
 800707c:	464b      	mov	r3, r9
 800707e:	4640      	mov	r0, r8
 8007080:	4649      	mov	r1, r9
 8007082:	f7f9 fa65 	bl	8000550 <__aeabi_dmul>
 8007086:	2200      	movs	r2, #0
 8007088:	4b68      	ldr	r3, [pc, #416]	; (800722c <__ieee754_pow+0x734>)
 800708a:	e9cd 010a 	strd	r0, r1, [sp, #40]	; 0x28
 800708e:	f7f9 f8a9 	bl	80001e4 <__adddf3>
 8007092:	4632      	mov	r2, r6
 8007094:	463b      	mov	r3, r7
 8007096:	f7f9 f8a5 	bl	80001e4 <__adddf3>
 800709a:	9802      	ldr	r0, [sp, #8]
 800709c:	460d      	mov	r5, r1
 800709e:	4604      	mov	r4, r0
 80070a0:	4602      	mov	r2, r0
 80070a2:	460b      	mov	r3, r1
 80070a4:	4640      	mov	r0, r8
 80070a6:	4649      	mov	r1, r9
 80070a8:	f7f9 fa52 	bl	8000550 <__aeabi_dmul>
 80070ac:	2200      	movs	r2, #0
 80070ae:	4680      	mov	r8, r0
 80070b0:	4689      	mov	r9, r1
 80070b2:	4b5e      	ldr	r3, [pc, #376]	; (800722c <__ieee754_pow+0x734>)
 80070b4:	4620      	mov	r0, r4
 80070b6:	4629      	mov	r1, r5
 80070b8:	f7f9 f892 	bl	80001e0 <__aeabi_dsub>
 80070bc:	e9dd 230a 	ldrd	r2, r3, [sp, #40]	; 0x28
 80070c0:	f7f9 f88e 	bl	80001e0 <__aeabi_dsub>
 80070c4:	4602      	mov	r2, r0
 80070c6:	460b      	mov	r3, r1
 80070c8:	4630      	mov	r0, r6
 80070ca:	4639      	mov	r1, r7
 80070cc:	f7f9 f888 	bl	80001e0 <__aeabi_dsub>
 80070d0:	e9dd 2304 	ldrd	r2, r3, [sp, #16]
 80070d4:	f7f9 fa3c 	bl	8000550 <__aeabi_dmul>
 80070d8:	4622      	mov	r2, r4
 80070da:	4606      	mov	r6, r0
 80070dc:	460f      	mov	r7, r1
 80070de:	462b      	mov	r3, r5
 80070e0:	e9dd 0106 	ldrd	r0, r1, [sp, #24]
 80070e4:	f7f9 fa34 	bl	8000550 <__aeabi_dmul>
 80070e8:	4602      	mov	r2, r0
 80070ea:	460b      	mov	r3, r1
 80070ec:	4630      	mov	r0, r6
 80070ee:	4639      	mov	r1, r7
 80070f0:	f7f9 f878 	bl	80001e4 <__adddf3>
 80070f4:	4606      	mov	r6, r0
 80070f6:	460f      	mov	r7, r1
 80070f8:	4602      	mov	r2, r0
 80070fa:	460b      	mov	r3, r1
 80070fc:	4640      	mov	r0, r8
 80070fe:	4649      	mov	r1, r9
 8007100:	f7f9 f870 	bl	80001e4 <__adddf3>
 8007104:	9802      	ldr	r0, [sp, #8]
 8007106:	a33c      	add	r3, pc, #240	; (adr r3, 80071f8 <__ieee754_pow+0x700>)
 8007108:	e9d3 2300 	ldrd	r2, r3, [r3]
 800710c:	4604      	mov	r4, r0
 800710e:	460d      	mov	r5, r1
 8007110:	f7f9 fa1e 	bl	8000550 <__aeabi_dmul>
 8007114:	4642      	mov	r2, r8
 8007116:	e9cd 0106 	strd	r0, r1, [sp, #24]
 800711a:	464b      	mov	r3, r9
 800711c:	4620      	mov	r0, r4
 800711e:	4629      	mov	r1, r5
 8007120:	f7f9 f85e 	bl	80001e0 <__aeabi_dsub>
 8007124:	4602      	mov	r2, r0
 8007126:	460b      	mov	r3, r1
 8007128:	4630      	mov	r0, r6
 800712a:	4639      	mov	r1, r7
 800712c:	f7f9 f858 	bl	80001e0 <__aeabi_dsub>
 8007130:	a333      	add	r3, pc, #204	; (adr r3, 8007200 <__ieee754_pow+0x708>)
 8007132:	e9d3 2300 	ldrd	r2, r3, [r3]
 8007136:	f7f9 fa0b 	bl	8000550 <__aeabi_dmul>
 800713a:	a333      	add	r3, pc, #204	; (adr r3, 8007208 <__ieee754_pow+0x710>)
 800713c:	e9d3 2300 	ldrd	r2, r3, [r3]
 8007140:	4606      	mov	r6, r0
 8007142:	460f      	mov	r7, r1
 8007144:	4620      	mov	r0, r4
 8007146:	4629      	mov	r1, r5
 8007148:	f7f9 fa02 	bl	8000550 <__aeabi_dmul>
 800714c:	4602      	mov	r2, r0
 800714e:	460b      	mov	r3, r1
 8007150:	4630      	mov	r0, r6
 8007152:	4639      	mov	r1, r7
 8007154:	f7f9 f846 	bl	80001e4 <__adddf3>
 8007158:	9a0c      	ldr	r2, [sp, #48]	; 0x30
 800715a:	4b35      	ldr	r3, [pc, #212]	; (8007230 <__ieee754_pow+0x738>)
 800715c:	4413      	add	r3, r2
 800715e:	e9d3 2300 	ldrd	r2, r3, [r3]
 8007162:	f7f9 f83f 	bl	80001e4 <__adddf3>
 8007166:	4604      	mov	r4, r0
 8007168:	9809      	ldr	r0, [sp, #36]	; 0x24
 800716a:	460d      	mov	r5, r1
 800716c:	f7f9 f986 	bl	800047c <__aeabi_i2d>
 8007170:	9a0c      	ldr	r2, [sp, #48]	; 0x30
 8007172:	4b30      	ldr	r3, [pc, #192]	; (8007234 <__ieee754_pow+0x73c>)
 8007174:	4413      	add	r3, r2
 8007176:	e9d3 8900 	ldrd	r8, r9, [r3]
 800717a:	4606      	mov	r6, r0
 800717c:	460f      	mov	r7, r1
 800717e:	4622      	mov	r2, r4
 8007180:	462b      	mov	r3, r5
 8007182:	e9dd 0106 	ldrd	r0, r1, [sp, #24]
 8007186:	f7f9 f82d 	bl	80001e4 <__adddf3>
 800718a:	4642      	mov	r2, r8
 800718c:	464b      	mov	r3, r9
 800718e:	f7f9 f829 	bl	80001e4 <__adddf3>
 8007192:	4632      	mov	r2, r6
 8007194:	463b      	mov	r3, r7
 8007196:	f7f9 f825 	bl	80001e4 <__adddf3>
 800719a:	9802      	ldr	r0, [sp, #8]
 800719c:	4632      	mov	r2, r6
 800719e:	463b      	mov	r3, r7
 80071a0:	e9cd 0104 	strd	r0, r1, [sp, #16]
 80071a4:	f7f9 f81c 	bl	80001e0 <__aeabi_dsub>
 80071a8:	4642      	mov	r2, r8
 80071aa:	464b      	mov	r3, r9
 80071ac:	f7f9 f818 	bl	80001e0 <__aeabi_dsub>
 80071b0:	e9dd 2306 	ldrd	r2, r3, [sp, #24]
 80071b4:	e607      	b.n	8006dc6 <__ieee754_pow+0x2ce>
 80071b6:	f04f 0a01 	mov.w	sl, #1
 80071ba:	e6a5      	b.n	8006f08 <__ieee754_pow+0x410>
 80071bc:	ed9f 7b14 	vldr	d7, [pc, #80]	; 8007210 <__ieee754_pow+0x718>
 80071c0:	e613      	b.n	8006dea <__ieee754_pow+0x2f2>
 80071c2:	bf00      	nop
 80071c4:	f3af 8000 	nop.w
 80071c8:	4a454eef 	.word	0x4a454eef
 80071cc:	3fca7e28 	.word	0x3fca7e28
 80071d0:	93c9db65 	.word	0x93c9db65
 80071d4:	3fcd864a 	.word	0x3fcd864a
 80071d8:	a91d4101 	.word	0xa91d4101
 80071dc:	3fd17460 	.word	0x3fd17460
 80071e0:	518f264d 	.word	0x518f264d
 80071e4:	3fd55555 	.word	0x3fd55555
 80071e8:	db6fabff 	.word	0xdb6fabff
 80071ec:	3fdb6db6 	.word	0x3fdb6db6
 80071f0:	33333303 	.word	0x33333303
 80071f4:	3fe33333 	.word	0x3fe33333
 80071f8:	e0000000 	.word	0xe0000000
 80071fc:	3feec709 	.word	0x3feec709
 8007200:	dc3a03fd 	.word	0xdc3a03fd
 8007204:	3feec709 	.word	0x3feec709
 8007208:	145b01f5 	.word	0x145b01f5
 800720c:	be3e2fe0 	.word	0xbe3e2fe0
 8007210:	00000000 	.word	0x00000000
 8007214:	3ff00000 	.word	0x3ff00000
 8007218:	43400000 	.word	0x43400000
 800721c:	0003988e 	.word	0x0003988e
 8007220:	000bb679 	.word	0x000bb679
 8007224:	08007938 	.word	0x08007938
 8007228:	3ff00000 	.word	0x3ff00000
 800722c:	40080000 	.word	0x40080000
 8007230:	08007958 	.word	0x08007958
 8007234:	08007948 	.word	0x08007948
 8007238:	a3b4      	add	r3, pc, #720	; (adr r3, 800750c <__ieee754_pow+0xa14>)
 800723a:	e9d3 2300 	ldrd	r2, r3, [r3]
 800723e:	4640      	mov	r0, r8
 8007240:	4649      	mov	r1, r9
 8007242:	f7f8 ffcf 	bl	80001e4 <__adddf3>
 8007246:	4622      	mov	r2, r4
 8007248:	e9cd 0104 	strd	r0, r1, [sp, #16]
 800724c:	462b      	mov	r3, r5
 800724e:	4630      	mov	r0, r6
 8007250:	4639      	mov	r1, r7
 8007252:	f7f8 ffc5 	bl	80001e0 <__aeabi_dsub>
 8007256:	4602      	mov	r2, r0
 8007258:	460b      	mov	r3, r1
 800725a:	e9dd 0104 	ldrd	r0, r1, [sp, #16]
 800725e:	f7f9 fc07 	bl	8000a70 <__aeabi_dcmpgt>
 8007262:	2800      	cmp	r0, #0
 8007264:	f47f adfe 	bne.w	8006e64 <__ieee754_pow+0x36c>
 8007268:	4aa3      	ldr	r2, [pc, #652]	; (80074f8 <__ieee754_pow+0xa00>)
 800726a:	f02b 4300 	bic.w	r3, fp, #2147483648	; 0x80000000
 800726e:	4293      	cmp	r3, r2
 8007270:	f340 810a 	ble.w	8007488 <__ieee754_pow+0x990>
 8007274:	151b      	asrs	r3, r3, #20
 8007276:	f44f 1a80 	mov.w	sl, #1048576	; 0x100000
 800727a:	f2a3 33fe 	subw	r3, r3, #1022	; 0x3fe
 800727e:	fa4a f303 	asr.w	r3, sl, r3
 8007282:	445b      	add	r3, fp
 8007284:	f3c3 520a 	ubfx	r2, r3, #20, #11
 8007288:	4e9c      	ldr	r6, [pc, #624]	; (80074fc <__ieee754_pow+0xa04>)
 800728a:	f2a2 32ff 	subw	r2, r2, #1023	; 0x3ff
 800728e:	4116      	asrs	r6, r2
 8007290:	f3c3 0a13 	ubfx	sl, r3, #0, #20
 8007294:	2000      	movs	r0, #0
 8007296:	ea23 0106 	bic.w	r1, r3, r6
 800729a:	f1c2 0214 	rsb	r2, r2, #20
 800729e:	f44a 1a80 	orr.w	sl, sl, #1048576	; 0x100000
 80072a2:	fa4a fa02 	asr.w	sl, sl, r2
 80072a6:	f1bb 0f00 	cmp.w	fp, #0
 80072aa:	4602      	mov	r2, r0
 80072ac:	460b      	mov	r3, r1
 80072ae:	4620      	mov	r0, r4
 80072b0:	4629      	mov	r1, r5
 80072b2:	bfb8      	it	lt
 80072b4:	f1ca 0a00 	rsblt	sl, sl, #0
 80072b8:	f7f8 ff92 	bl	80001e0 <__aeabi_dsub>
 80072bc:	e9cd 0100 	strd	r0, r1, [sp]
 80072c0:	4642      	mov	r2, r8
 80072c2:	464b      	mov	r3, r9
 80072c4:	e9dd 0100 	ldrd	r0, r1, [sp]
 80072c8:	f7f8 ff8c 	bl	80001e4 <__adddf3>
 80072cc:	2000      	movs	r0, #0
 80072ce:	a378      	add	r3, pc, #480	; (adr r3, 80074b0 <__ieee754_pow+0x9b8>)
 80072d0:	e9d3 2300 	ldrd	r2, r3, [r3]
 80072d4:	4604      	mov	r4, r0
 80072d6:	460d      	mov	r5, r1
 80072d8:	f7f9 f93a 	bl	8000550 <__aeabi_dmul>
 80072dc:	e9dd 2300 	ldrd	r2, r3, [sp]
 80072e0:	4606      	mov	r6, r0
 80072e2:	460f      	mov	r7, r1
 80072e4:	4620      	mov	r0, r4
 80072e6:	4629      	mov	r1, r5
 80072e8:	f7f8 ff7a 	bl	80001e0 <__aeabi_dsub>
 80072ec:	4602      	mov	r2, r0
 80072ee:	460b      	mov	r3, r1
 80072f0:	4640      	mov	r0, r8
 80072f2:	4649      	mov	r1, r9
 80072f4:	f7f8 ff74 	bl	80001e0 <__aeabi_dsub>
 80072f8:	a36f      	add	r3, pc, #444	; (adr r3, 80074b8 <__ieee754_pow+0x9c0>)
 80072fa:	e9d3 2300 	ldrd	r2, r3, [r3]
 80072fe:	f7f9 f927 	bl	8000550 <__aeabi_dmul>
 8007302:	a36f      	add	r3, pc, #444	; (adr r3, 80074c0 <__ieee754_pow+0x9c8>)
 8007304:	e9d3 2300 	ldrd	r2, r3, [r3]
 8007308:	4680      	mov	r8, r0
 800730a:	4689      	mov	r9, r1
 800730c:	4620      	mov	r0, r4
 800730e:	4629      	mov	r1, r5
 8007310:	f7f9 f91e 	bl	8000550 <__aeabi_dmul>
 8007314:	4602      	mov	r2, r0
 8007316:	460b      	mov	r3, r1
 8007318:	4640      	mov	r0, r8
 800731a:	4649      	mov	r1, r9
 800731c:	f7f8 ff62 	bl	80001e4 <__adddf3>
 8007320:	4604      	mov	r4, r0
 8007322:	460d      	mov	r5, r1
 8007324:	4602      	mov	r2, r0
 8007326:	460b      	mov	r3, r1
 8007328:	4630      	mov	r0, r6
 800732a:	4639      	mov	r1, r7
 800732c:	f7f8 ff5a 	bl	80001e4 <__adddf3>
 8007330:	4632      	mov	r2, r6
 8007332:	463b      	mov	r3, r7
 8007334:	4680      	mov	r8, r0
 8007336:	4689      	mov	r9, r1
 8007338:	f7f8 ff52 	bl	80001e0 <__aeabi_dsub>
 800733c:	4602      	mov	r2, r0
 800733e:	460b      	mov	r3, r1
 8007340:	4620      	mov	r0, r4
 8007342:	4629      	mov	r1, r5
 8007344:	f7f8 ff4c 	bl	80001e0 <__aeabi_dsub>
 8007348:	4642      	mov	r2, r8
 800734a:	4606      	mov	r6, r0
 800734c:	460f      	mov	r7, r1
 800734e:	464b      	mov	r3, r9
 8007350:	4640      	mov	r0, r8
 8007352:	4649      	mov	r1, r9
 8007354:	f7f9 f8fc 	bl	8000550 <__aeabi_dmul>
 8007358:	a35b      	add	r3, pc, #364	; (adr r3, 80074c8 <__ieee754_pow+0x9d0>)
 800735a:	e9d3 2300 	ldrd	r2, r3, [r3]
 800735e:	4604      	mov	r4, r0
 8007360:	460d      	mov	r5, r1
 8007362:	f7f9 f8f5 	bl	8000550 <__aeabi_dmul>
 8007366:	a35a      	add	r3, pc, #360	; (adr r3, 80074d0 <__ieee754_pow+0x9d8>)
 8007368:	e9d3 2300 	ldrd	r2, r3, [r3]
 800736c:	f7f8 ff38 	bl	80001e0 <__aeabi_dsub>
 8007370:	4622      	mov	r2, r4
 8007372:	462b      	mov	r3, r5
 8007374:	f7f9 f8ec 	bl	8000550 <__aeabi_dmul>
 8007378:	a357      	add	r3, pc, #348	; (adr r3, 80074d8 <__ieee754_pow+0x9e0>)
 800737a:	e9d3 2300 	ldrd	r2, r3, [r3]
 800737e:	f7f8 ff31 	bl	80001e4 <__adddf3>
 8007382:	4622      	mov	r2, r4
 8007384:	462b      	mov	r3, r5
 8007386:	f7f9 f8e3 	bl	8000550 <__aeabi_dmul>
 800738a:	a355      	add	r3, pc, #340	; (adr r3, 80074e0 <__ieee754_pow+0x9e8>)
 800738c:	e9d3 2300 	ldrd	r2, r3, [r3]
 8007390:	f7f8 ff26 	bl	80001e0 <__aeabi_dsub>
 8007394:	4622      	mov	r2, r4
 8007396:	462b      	mov	r3, r5
 8007398:	f7f9 f8da 	bl	8000550 <__aeabi_dmul>
 800739c:	a352      	add	r3, pc, #328	; (adr r3, 80074e8 <__ieee754_pow+0x9f0>)
 800739e:	e9d3 2300 	ldrd	r2, r3, [r3]
 80073a2:	f7f8 ff1f 	bl	80001e4 <__adddf3>
 80073a6:	4622      	mov	r2, r4
 80073a8:	462b      	mov	r3, r5
 80073aa:	f7f9 f8d1 	bl	8000550 <__aeabi_dmul>
 80073ae:	4602      	mov	r2, r0
 80073b0:	460b      	mov	r3, r1
 80073b2:	4640      	mov	r0, r8
 80073b4:	4649      	mov	r1, r9
 80073b6:	f7f8 ff13 	bl	80001e0 <__aeabi_dsub>
 80073ba:	4604      	mov	r4, r0
 80073bc:	460d      	mov	r5, r1
 80073be:	4602      	mov	r2, r0
 80073c0:	460b      	mov	r3, r1
 80073c2:	4640      	mov	r0, r8
 80073c4:	4649      	mov	r1, r9
 80073c6:	f7f9 f8c3 	bl	8000550 <__aeabi_dmul>
 80073ca:	2200      	movs	r2, #0
 80073cc:	e9cd 0100 	strd	r0, r1, [sp]
 80073d0:	f04f 4380 	mov.w	r3, #1073741824	; 0x40000000
 80073d4:	4620      	mov	r0, r4
 80073d6:	4629      	mov	r1, r5
 80073d8:	f7f8 ff02 	bl	80001e0 <__aeabi_dsub>
 80073dc:	4602      	mov	r2, r0
 80073de:	460b      	mov	r3, r1
 80073e0:	e9dd 0100 	ldrd	r0, r1, [sp]
 80073e4:	f7f9 f9de 	bl	80007a4 <__aeabi_ddiv>
 80073e8:	4632      	mov	r2, r6
 80073ea:	4604      	mov	r4, r0
 80073ec:	460d      	mov	r5, r1
 80073ee:	463b      	mov	r3, r7
 80073f0:	4640      	mov	r0, r8
 80073f2:	4649      	mov	r1, r9
 80073f4:	f7f9 f8ac 	bl	8000550 <__aeabi_dmul>
 80073f8:	4632      	mov	r2, r6
 80073fa:	463b      	mov	r3, r7
 80073fc:	f7f8 fef2 	bl	80001e4 <__adddf3>
 8007400:	4602      	mov	r2, r0
 8007402:	460b      	mov	r3, r1
 8007404:	4620      	mov	r0, r4
 8007406:	4629      	mov	r1, r5
 8007408:	f7f8 feea 	bl	80001e0 <__aeabi_dsub>
 800740c:	4642      	mov	r2, r8
 800740e:	464b      	mov	r3, r9
 8007410:	f7f8 fee6 	bl	80001e0 <__aeabi_dsub>
 8007414:	4602      	mov	r2, r0
 8007416:	460b      	mov	r3, r1
 8007418:	2000      	movs	r0, #0
 800741a:	4939      	ldr	r1, [pc, #228]	; (8007500 <__ieee754_pow+0xa08>)
 800741c:	f7f8 fee0 	bl	80001e0 <__aeabi_dsub>
 8007420:	eb01 540a 	add.w	r4, r1, sl, lsl #20
 8007424:	f5b4 1f80 	cmp.w	r4, #1048576	; 0x100000
 8007428:	4602      	mov	r2, r0
 800742a:	460b      	mov	r3, r1
 800742c:	da2f      	bge.n	800748e <__ieee754_pow+0x996>
 800742e:	4650      	mov	r0, sl
 8007430:	ec43 2b10 	vmov	d0, r2, r3
 8007434:	f000 f9b4 	bl	80077a0 <scalbn>
 8007438:	ec51 0b10 	vmov	r0, r1, d0
 800743c:	e9dd 2302 	ldrd	r2, r3, [sp, #8]
 8007440:	f7ff bbf1 	b.w	8006c26 <__ieee754_pow+0x12e>
 8007444:	4b2f      	ldr	r3, [pc, #188]	; (8007504 <__ieee754_pow+0xa0c>)
 8007446:	f021 4600 	bic.w	r6, r1, #2147483648	; 0x80000000
 800744a:	429e      	cmp	r6, r3
 800744c:	f77f af0c 	ble.w	8007268 <__ieee754_pow+0x770>
 8007450:	4b2d      	ldr	r3, [pc, #180]	; (8007508 <__ieee754_pow+0xa10>)
 8007452:	440b      	add	r3, r1
 8007454:	4303      	orrs	r3, r0
 8007456:	d00b      	beq.n	8007470 <__ieee754_pow+0x978>
 8007458:	a325      	add	r3, pc, #148	; (adr r3, 80074f0 <__ieee754_pow+0x9f8>)
 800745a:	e9d3 2300 	ldrd	r2, r3, [r3]
 800745e:	e9dd 0102 	ldrd	r0, r1, [sp, #8]
 8007462:	f7f9 f875 	bl	8000550 <__aeabi_dmul>
 8007466:	a322      	add	r3, pc, #136	; (adr r3, 80074f0 <__ieee754_pow+0x9f8>)
 8007468:	e9d3 2300 	ldrd	r2, r3, [r3]
 800746c:	f7ff bbdb 	b.w	8006c26 <__ieee754_pow+0x12e>
 8007470:	4622      	mov	r2, r4
 8007472:	462b      	mov	r3, r5
 8007474:	f7f8 feb4 	bl	80001e0 <__aeabi_dsub>
 8007478:	4642      	mov	r2, r8
 800747a:	464b      	mov	r3, r9
 800747c:	f7f9 faee 	bl	8000a5c <__aeabi_dcmpge>
 8007480:	2800      	cmp	r0, #0
 8007482:	f43f aef1 	beq.w	8007268 <__ieee754_pow+0x770>
 8007486:	e7e7      	b.n	8007458 <__ieee754_pow+0x960>
 8007488:	f04f 0a00 	mov.w	sl, #0
 800748c:	e718      	b.n	80072c0 <__ieee754_pow+0x7c8>
 800748e:	4621      	mov	r1, r4
 8007490:	e7d4      	b.n	800743c <__ieee754_pow+0x944>
 8007492:	2000      	movs	r0, #0
 8007494:	491a      	ldr	r1, [pc, #104]	; (8007500 <__ieee754_pow+0xa08>)
 8007496:	f7ff bb8f 	b.w	8006bb8 <__ieee754_pow+0xc0>
 800749a:	e9dd 0100 	ldrd	r0, r1, [sp]
 800749e:	f7ff bb8b 	b.w	8006bb8 <__ieee754_pow+0xc0>
 80074a2:	4630      	mov	r0, r6
 80074a4:	4639      	mov	r1, r7
 80074a6:	f7ff bb87 	b.w	8006bb8 <__ieee754_pow+0xc0>
 80074aa:	4693      	mov	fp, r2
 80074ac:	f7ff bb98 	b.w	8006be0 <__ieee754_pow+0xe8>
 80074b0:	00000000 	.word	0x00000000
 80074b4:	3fe62e43 	.word	0x3fe62e43
 80074b8:	fefa39ef 	.word	0xfefa39ef
 80074bc:	3fe62e42 	.word	0x3fe62e42
 80074c0:	0ca86c39 	.word	0x0ca86c39
 80074c4:	be205c61 	.word	0xbe205c61
 80074c8:	72bea4d0 	.word	0x72bea4d0
 80074cc:	3e663769 	.word	0x3e663769
 80074d0:	c5d26bf1 	.word	0xc5d26bf1
 80074d4:	3ebbbd41 	.word	0x3ebbbd41
 80074d8:	af25de2c 	.word	0xaf25de2c
 80074dc:	3f11566a 	.word	0x3f11566a
 80074e0:	16bebd93 	.word	0x16bebd93
 80074e4:	3f66c16c 	.word	0x3f66c16c
 80074e8:	5555553e 	.word	0x5555553e
 80074ec:	3fc55555 	.word	0x3fc55555
 80074f0:	c2f8f359 	.word	0xc2f8f359
 80074f4:	01a56e1f 	.word	0x01a56e1f
 80074f8:	3fe00000 	.word	0x3fe00000
 80074fc:	000fffff 	.word	0x000fffff
 8007500:	3ff00000 	.word	0x3ff00000
 8007504:	4090cbff 	.word	0x4090cbff
 8007508:	3f6f3400 	.word	0x3f6f3400
 800750c:	652b82fe 	.word	0x652b82fe
 8007510:	3c971547 	.word	0x3c971547

08007514 <__ieee754_sqrt>:
 8007514:	e92d 41f0 	stmdb	sp!, {r4, r5, r6, r7, r8, lr}
 8007518:	4955      	ldr	r1, [pc, #340]	; (8007670 <__ieee754_sqrt+0x15c>)
 800751a:	ec55 4b10 	vmov	r4, r5, d0
 800751e:	43a9      	bics	r1, r5
 8007520:	462b      	mov	r3, r5
 8007522:	462a      	mov	r2, r5
 8007524:	d112      	bne.n	800754c <__ieee754_sqrt+0x38>
 8007526:	ee10 2a10 	vmov	r2, s0
 800752a:	ee10 0a10 	vmov	r0, s0
 800752e:	4629      	mov	r1, r5
 8007530:	f7f9 f80e 	bl	8000550 <__aeabi_dmul>
 8007534:	4602      	mov	r2, r0
 8007536:	460b      	mov	r3, r1
 8007538:	4620      	mov	r0, r4
 800753a:	4629      	mov	r1, r5
 800753c:	f7f8 fe52 	bl	80001e4 <__adddf3>
 8007540:	4604      	mov	r4, r0
 8007542:	460d      	mov	r5, r1
 8007544:	ec45 4b10 	vmov	d0, r4, r5
 8007548:	e8bd 81f0 	ldmia.w	sp!, {r4, r5, r6, r7, r8, pc}
 800754c:	2d00      	cmp	r5, #0
 800754e:	ee10 0a10 	vmov	r0, s0
 8007552:	4621      	mov	r1, r4
 8007554:	dc0f      	bgt.n	8007576 <__ieee754_sqrt+0x62>
 8007556:	f025 4600 	bic.w	r6, r5, #2147483648	; 0x80000000
 800755a:	4330      	orrs	r0, r6
 800755c:	d0f2      	beq.n	8007544 <__ieee754_sqrt+0x30>
 800755e:	b155      	cbz	r5, 8007576 <__ieee754_sqrt+0x62>
 8007560:	ee10 2a10 	vmov	r2, s0
 8007564:	4620      	mov	r0, r4
 8007566:	4629      	mov	r1, r5
 8007568:	f7f8 fe3a 	bl	80001e0 <__aeabi_dsub>
 800756c:	4602      	mov	r2, r0
 800756e:	460b      	mov	r3, r1
 8007570:	f7f9 f918 	bl	80007a4 <__aeabi_ddiv>
 8007574:	e7e4      	b.n	8007540 <__ieee754_sqrt+0x2c>
 8007576:	151b      	asrs	r3, r3, #20
 8007578:	d073      	beq.n	8007662 <__ieee754_sqrt+0x14e>
 800757a:	f2a3 33ff 	subw	r3, r3, #1023	; 0x3ff
 800757e:	07dd      	lsls	r5, r3, #31
 8007580:	f3c2 0213 	ubfx	r2, r2, #0, #20
 8007584:	bf48      	it	mi
 8007586:	0fc8      	lsrmi	r0, r1, #31
 8007588:	f442 1280 	orr.w	r2, r2, #1048576	; 0x100000
 800758c:	bf44      	itt	mi
 800758e:	0049      	lslmi	r1, r1, #1
 8007590:	eb00 0242 	addmi.w	r2, r0, r2, lsl #1
 8007594:	2500      	movs	r5, #0
 8007596:	1058      	asrs	r0, r3, #1
 8007598:	0fcb      	lsrs	r3, r1, #31
 800759a:	eb03 0242 	add.w	r2, r3, r2, lsl #1
 800759e:	0049      	lsls	r1, r1, #1
 80075a0:	2316      	movs	r3, #22
 80075a2:	462c      	mov	r4, r5
 80075a4:	f44f 1600 	mov.w	r6, #2097152	; 0x200000
 80075a8:	19a7      	adds	r7, r4, r6
 80075aa:	4297      	cmp	r7, r2
 80075ac:	bfde      	ittt	le
 80075ae:	19bc      	addle	r4, r7, r6
 80075b0:	1bd2      	suble	r2, r2, r7
 80075b2:	19ad      	addle	r5, r5, r6
 80075b4:	0fcf      	lsrs	r7, r1, #31
 80075b6:	3b01      	subs	r3, #1
 80075b8:	eb07 0242 	add.w	r2, r7, r2, lsl #1
 80075bc:	ea4f 0141 	mov.w	r1, r1, lsl #1
 80075c0:	ea4f 0656 	mov.w	r6, r6, lsr #1
 80075c4:	d1f0      	bne.n	80075a8 <__ieee754_sqrt+0x94>
 80075c6:	f04f 0c20 	mov.w	ip, #32
 80075ca:	469e      	mov	lr, r3
 80075cc:	f04f 4600 	mov.w	r6, #2147483648	; 0x80000000
 80075d0:	42a2      	cmp	r2, r4
 80075d2:	eb06 070e 	add.w	r7, r6, lr
 80075d6:	dc02      	bgt.n	80075de <__ieee754_sqrt+0xca>
 80075d8:	d112      	bne.n	8007600 <__ieee754_sqrt+0xec>
 80075da:	428f      	cmp	r7, r1
 80075dc:	d810      	bhi.n	8007600 <__ieee754_sqrt+0xec>
 80075de:	2f00      	cmp	r7, #0
 80075e0:	eb07 0e06 	add.w	lr, r7, r6
 80075e4:	da42      	bge.n	800766c <__ieee754_sqrt+0x158>
 80075e6:	f1be 0f00 	cmp.w	lr, #0
 80075ea:	db3f      	blt.n	800766c <__ieee754_sqrt+0x158>
 80075ec:	f104 0801 	add.w	r8, r4, #1
 80075f0:	1b12      	subs	r2, r2, r4
 80075f2:	428f      	cmp	r7, r1
 80075f4:	bf88      	it	hi
 80075f6:	f102 32ff 	addhi.w	r2, r2, #4294967295
 80075fa:	1bc9      	subs	r1, r1, r7
 80075fc:	4433      	add	r3, r6
 80075fe:	4644      	mov	r4, r8
 8007600:	0052      	lsls	r2, r2, #1
 8007602:	f1bc 0c01 	subs.w	ip, ip, #1
 8007606:	eb02 72d1 	add.w	r2, r2, r1, lsr #31
 800760a:	ea4f 0656 	mov.w	r6, r6, lsr #1
 800760e:	ea4f 0141 	mov.w	r1, r1, lsl #1
 8007612:	d1dd      	bne.n	80075d0 <__ieee754_sqrt+0xbc>
 8007614:	430a      	orrs	r2, r1
 8007616:	d006      	beq.n	8007626 <__ieee754_sqrt+0x112>
 8007618:	1c5c      	adds	r4, r3, #1
 800761a:	bf13      	iteet	ne
 800761c:	3301      	addne	r3, #1
 800761e:	3501      	addeq	r5, #1
 8007620:	4663      	moveq	r3, ip
 8007622:	f023 0301 	bicne.w	r3, r3, #1
 8007626:	106a      	asrs	r2, r5, #1
 8007628:	085b      	lsrs	r3, r3, #1
 800762a:	07e9      	lsls	r1, r5, #31
 800762c:	f102 527f 	add.w	r2, r2, #1069547520	; 0x3fc00000
 8007630:	f502 1200 	add.w	r2, r2, #2097152	; 0x200000
 8007634:	bf48      	it	mi
 8007636:	f043 4300 	orrmi.w	r3, r3, #2147483648	; 0x80000000
 800763a:	eb02 5500 	add.w	r5, r2, r0, lsl #20
 800763e:	461c      	mov	r4, r3
 8007640:	e780      	b.n	8007544 <__ieee754_sqrt+0x30>
 8007642:	0aca      	lsrs	r2, r1, #11
 8007644:	3815      	subs	r0, #21
 8007646:	0549      	lsls	r1, r1, #21
 8007648:	2a00      	cmp	r2, #0
 800764a:	d0fa      	beq.n	8007642 <__ieee754_sqrt+0x12e>
 800764c:	02d6      	lsls	r6, r2, #11
 800764e:	d50a      	bpl.n	8007666 <__ieee754_sqrt+0x152>
 8007650:	f1c3 0420 	rsb	r4, r3, #32
 8007654:	fa21 f404 	lsr.w	r4, r1, r4
 8007658:	1e5d      	subs	r5, r3, #1
 800765a:	4099      	lsls	r1, r3
 800765c:	4322      	orrs	r2, r4
 800765e:	1b43      	subs	r3, r0, r5
 8007660:	e78b      	b.n	800757a <__ieee754_sqrt+0x66>
 8007662:	4618      	mov	r0, r3
 8007664:	e7f0      	b.n	8007648 <__ieee754_sqrt+0x134>
 8007666:	0052      	lsls	r2, r2, #1
 8007668:	3301      	adds	r3, #1
 800766a:	e7ef      	b.n	800764c <__ieee754_sqrt+0x138>
 800766c:	46a0      	mov	r8, r4
 800766e:	e7bf      	b.n	80075f0 <__ieee754_sqrt+0xdc>
 8007670:	7ff00000 	.word	0x7ff00000

08007674 <finite>:
 8007674:	ee10 3a90 	vmov	r3, s1
 8007678:	f043 4000 	orr.w	r0, r3, #2147483648	; 0x80000000
 800767c:	f500 1080 	add.w	r0, r0, #1048576	; 0x100000
 8007680:	0fc0      	lsrs	r0, r0, #31
 8007682:	4770      	bx	lr

08007684 <matherr>:
 8007684:	2000      	movs	r0, #0
 8007686:	4770      	bx	lr

08007688 <nan>:
 8007688:	ed9f 0b01 	vldr	d0, [pc, #4]	; 8007690 <nan+0x8>
 800768c:	4770      	bx	lr
 800768e:	bf00      	nop
 8007690:	00000000 	.word	0x00000000
 8007694:	7ff80000 	.word	0x7ff80000

08007698 <rint>:
 8007698:	b5f7      	push	{r0, r1, r2, r4, r5, r6, r7, lr}
 800769a:	ec51 0b10 	vmov	r0, r1, d0
 800769e:	f3c1 520a 	ubfx	r2, r1, #20, #11
 80076a2:	f2a2 36ff 	subw	r6, r2, #1023	; 0x3ff
 80076a6:	2e13      	cmp	r6, #19
 80076a8:	460b      	mov	r3, r1
 80076aa:	ee10 4a10 	vmov	r4, s0
 80076ae:	ea4f 75d1 	mov.w	r5, r1, lsr #31
 80076b2:	dc56      	bgt.n	8007762 <rint+0xca>
 80076b4:	2e00      	cmp	r6, #0
 80076b6:	da2b      	bge.n	8007710 <rint+0x78>
 80076b8:	f021 4200 	bic.w	r2, r1, #2147483648	; 0x80000000
 80076bc:	4302      	orrs	r2, r0
 80076be:	d023      	beq.n	8007708 <rint+0x70>
 80076c0:	f3c1 0213 	ubfx	r2, r1, #0, #20
 80076c4:	4302      	orrs	r2, r0
 80076c6:	4254      	negs	r4, r2
 80076c8:	4314      	orrs	r4, r2
 80076ca:	0c4b      	lsrs	r3, r1, #17
 80076cc:	0b24      	lsrs	r4, r4, #12
 80076ce:	045b      	lsls	r3, r3, #17
 80076d0:	f404 2400 	and.w	r4, r4, #524288	; 0x80000
 80076d4:	ea44 0103 	orr.w	r1, r4, r3
 80076d8:	460b      	mov	r3, r1
 80076da:	492f      	ldr	r1, [pc, #188]	; (8007798 <rint+0x100>)
 80076dc:	eb01 01c5 	add.w	r1, r1, r5, lsl #3
 80076e0:	e9d1 6700 	ldrd	r6, r7, [r1]
 80076e4:	4602      	mov	r2, r0
 80076e6:	4639      	mov	r1, r7
 80076e8:	4630      	mov	r0, r6
 80076ea:	f7f8 fd7b 	bl	80001e4 <__adddf3>
 80076ee:	e9cd 0100 	strd	r0, r1, [sp]
 80076f2:	463b      	mov	r3, r7
 80076f4:	4632      	mov	r2, r6
 80076f6:	e9dd 0100 	ldrd	r0, r1, [sp]
 80076fa:	f7f8 fd71 	bl	80001e0 <__aeabi_dsub>
 80076fe:	f021 4300 	bic.w	r3, r1, #2147483648	; 0x80000000
 8007702:	ea43 77c5 	orr.w	r7, r3, r5, lsl #31
 8007706:	4639      	mov	r1, r7
 8007708:	ec41 0b10 	vmov	d0, r0, r1
 800770c:	b003      	add	sp, #12
 800770e:	bdf0      	pop	{r4, r5, r6, r7, pc}
 8007710:	4a22      	ldr	r2, [pc, #136]	; (800779c <rint+0x104>)
 8007712:	4132      	asrs	r2, r6
 8007714:	ea01 0702 	and.w	r7, r1, r2
 8007718:	4307      	orrs	r7, r0
 800771a:	d0f5      	beq.n	8007708 <rint+0x70>
 800771c:	0852      	lsrs	r2, r2, #1
 800771e:	4011      	ands	r1, r2
 8007720:	430c      	orrs	r4, r1
 8007722:	d00b      	beq.n	800773c <rint+0xa4>
 8007724:	ea23 0202 	bic.w	r2, r3, r2
 8007728:	f44f 2380 	mov.w	r3, #262144	; 0x40000
 800772c:	2e13      	cmp	r6, #19
 800772e:	fa43 f306 	asr.w	r3, r3, r6
 8007732:	bf0c      	ite	eq
 8007734:	f04f 4400 	moveq.w	r4, #2147483648	; 0x80000000
 8007738:	2400      	movne	r4, #0
 800773a:	4313      	orrs	r3, r2
 800773c:	4916      	ldr	r1, [pc, #88]	; (8007798 <rint+0x100>)
 800773e:	eb01 05c5 	add.w	r5, r1, r5, lsl #3
 8007742:	4622      	mov	r2, r4
 8007744:	e9d5 4500 	ldrd	r4, r5, [r5]
 8007748:	4620      	mov	r0, r4
 800774a:	4629      	mov	r1, r5
 800774c:	f7f8 fd4a 	bl	80001e4 <__adddf3>
 8007750:	e9cd 0100 	strd	r0, r1, [sp]
 8007754:	4622      	mov	r2, r4
 8007756:	462b      	mov	r3, r5
 8007758:	e9dd 0100 	ldrd	r0, r1, [sp]
 800775c:	f7f8 fd40 	bl	80001e0 <__aeabi_dsub>
 8007760:	e7d2      	b.n	8007708 <rint+0x70>
 8007762:	2e33      	cmp	r6, #51	; 0x33
 8007764:	dd07      	ble.n	8007776 <rint+0xde>
 8007766:	f5b6 6f80 	cmp.w	r6, #1024	; 0x400
 800776a:	d1cd      	bne.n	8007708 <rint+0x70>
 800776c:	ee10 2a10 	vmov	r2, s0
 8007770:	f7f8 fd38 	bl	80001e4 <__adddf3>
 8007774:	e7c8      	b.n	8007708 <rint+0x70>
 8007776:	f2a2 4613 	subw	r6, r2, #1043	; 0x413
 800777a:	f04f 32ff 	mov.w	r2, #4294967295
 800777e:	40f2      	lsrs	r2, r6
 8007780:	4210      	tst	r0, r2
 8007782:	d0c1      	beq.n	8007708 <rint+0x70>
 8007784:	0852      	lsrs	r2, r2, #1
 8007786:	4210      	tst	r0, r2
 8007788:	bf1f      	itttt	ne
 800778a:	f04f 4480 	movne.w	r4, #1073741824	; 0x40000000
 800778e:	ea20 0202 	bicne.w	r2, r0, r2
 8007792:	4134      	asrne	r4, r6
 8007794:	4314      	orrne	r4, r2
 8007796:	e7d1      	b.n	800773c <rint+0xa4>
 8007798:	08007968 	.word	0x08007968
 800779c:	000fffff 	.word	0x000fffff

080077a0 <scalbn>:
 80077a0:	b570      	push	{r4, r5, r6, lr}
 80077a2:	ec55 4b10 	vmov	r4, r5, d0
 80077a6:	f3c5 520a 	ubfx	r2, r5, #20, #11
 80077aa:	4606      	mov	r6, r0
 80077ac:	462b      	mov	r3, r5
 80077ae:	b9aa      	cbnz	r2, 80077dc <scalbn+0x3c>
 80077b0:	f025 4300 	bic.w	r3, r5, #2147483648	; 0x80000000
 80077b4:	4323      	orrs	r3, r4
 80077b6:	d03b      	beq.n	8007830 <scalbn+0x90>
 80077b8:	4b31      	ldr	r3, [pc, #196]	; (8007880 <scalbn+0xe0>)
 80077ba:	4629      	mov	r1, r5
 80077bc:	2200      	movs	r2, #0
 80077be:	ee10 0a10 	vmov	r0, s0
 80077c2:	f7f8 fec5 	bl	8000550 <__aeabi_dmul>
 80077c6:	4b2f      	ldr	r3, [pc, #188]	; (8007884 <scalbn+0xe4>)
 80077c8:	429e      	cmp	r6, r3
 80077ca:	4604      	mov	r4, r0
 80077cc:	460d      	mov	r5, r1
 80077ce:	da12      	bge.n	80077f6 <scalbn+0x56>
 80077d0:	a327      	add	r3, pc, #156	; (adr r3, 8007870 <scalbn+0xd0>)
 80077d2:	e9d3 2300 	ldrd	r2, r3, [r3]
 80077d6:	f7f8 febb 	bl	8000550 <__aeabi_dmul>
 80077da:	e009      	b.n	80077f0 <scalbn+0x50>
 80077dc:	f240 71ff 	movw	r1, #2047	; 0x7ff
 80077e0:	428a      	cmp	r2, r1
 80077e2:	d10c      	bne.n	80077fe <scalbn+0x5e>
 80077e4:	ee10 2a10 	vmov	r2, s0
 80077e8:	4620      	mov	r0, r4
 80077ea:	4629      	mov	r1, r5
 80077ec:	f7f8 fcfa 	bl	80001e4 <__adddf3>
 80077f0:	4604      	mov	r4, r0
 80077f2:	460d      	mov	r5, r1
 80077f4:	e01c      	b.n	8007830 <scalbn+0x90>
 80077f6:	f3c1 520a 	ubfx	r2, r1, #20, #11
 80077fa:	460b      	mov	r3, r1
 80077fc:	3a36      	subs	r2, #54	; 0x36
 80077fe:	4432      	add	r2, r6
 8007800:	f240 71fe 	movw	r1, #2046	; 0x7fe
 8007804:	428a      	cmp	r2, r1
 8007806:	dd0b      	ble.n	8007820 <scalbn+0x80>
 8007808:	ec45 4b11 	vmov	d1, r4, r5
 800780c:	ed9f 0b1a 	vldr	d0, [pc, #104]	; 8007878 <scalbn+0xd8>
 8007810:	f000 f83c 	bl	800788c <copysign>
 8007814:	a318      	add	r3, pc, #96	; (adr r3, 8007878 <scalbn+0xd8>)
 8007816:	e9d3 2300 	ldrd	r2, r3, [r3]
 800781a:	ec51 0b10 	vmov	r0, r1, d0
 800781e:	e7da      	b.n	80077d6 <scalbn+0x36>
 8007820:	2a00      	cmp	r2, #0
 8007822:	dd08      	ble.n	8007836 <scalbn+0x96>
 8007824:	f023 43ff 	bic.w	r3, r3, #2139095040	; 0x7f800000
 8007828:	f423 03e0 	bic.w	r3, r3, #7340032	; 0x700000
 800782c:	ea43 5502 	orr.w	r5, r3, r2, lsl #20
 8007830:	ec45 4b10 	vmov	d0, r4, r5
 8007834:	bd70      	pop	{r4, r5, r6, pc}
 8007836:	f112 0f35 	cmn.w	r2, #53	; 0x35
 800783a:	da0d      	bge.n	8007858 <scalbn+0xb8>
 800783c:	f24c 3350 	movw	r3, #50000	; 0xc350
 8007840:	429e      	cmp	r6, r3
 8007842:	ec45 4b11 	vmov	d1, r4, r5
 8007846:	dce1      	bgt.n	800780c <scalbn+0x6c>
 8007848:	ed9f 0b09 	vldr	d0, [pc, #36]	; 8007870 <scalbn+0xd0>
 800784c:	f000 f81e 	bl	800788c <copysign>
 8007850:	a307      	add	r3, pc, #28	; (adr r3, 8007870 <scalbn+0xd0>)
 8007852:	e9d3 2300 	ldrd	r2, r3, [r3]
 8007856:	e7e0      	b.n	800781a <scalbn+0x7a>
 8007858:	f023 43ff 	bic.w	r3, r3, #2139095040	; 0x7f800000
 800785c:	3236      	adds	r2, #54	; 0x36
 800785e:	f423 03e0 	bic.w	r3, r3, #7340032	; 0x700000
 8007862:	ea43 5502 	orr.w	r5, r3, r2, lsl #20
 8007866:	4620      	mov	r0, r4
 8007868:	4629      	mov	r1, r5
 800786a:	2200      	movs	r2, #0
 800786c:	4b06      	ldr	r3, [pc, #24]	; (8007888 <scalbn+0xe8>)
 800786e:	e7b2      	b.n	80077d6 <scalbn+0x36>
 8007870:	c2f8f359 	.word	0xc2f8f359
 8007874:	01a56e1f 	.word	0x01a56e1f
 8007878:	8800759c 	.word	0x8800759c
 800787c:	7e37e43c 	.word	0x7e37e43c
 8007880:	43500000 	.word	0x43500000
 8007884:	ffff3cb0 	.word	0xffff3cb0
 8007888:	3c900000 	.word	0x3c900000

0800788c <copysign>:
 800788c:	ec51 0b10 	vmov	r0, r1, d0
 8007890:	ee11 0a90 	vmov	r0, s3
 8007894:	ee10 2a10 	vmov	r2, s0
 8007898:	f021 4100 	bic.w	r1, r1, #2147483648	; 0x80000000
 800789c:	f000 4000 	and.w	r0, r0, #2147483648	; 0x80000000
 80078a0:	ea41 0300 	orr.w	r3, r1, r0
 80078a4:	ec43 2b10 	vmov	d0, r2, r3
 80078a8:	4770      	bx	lr
	...

080078ac <_init>:
 80078ac:	b5f8      	push	{r3, r4, r5, r6, r7, lr}
 80078ae:	bf00      	nop
 80078b0:	bcf8      	pop	{r3, r4, r5, r6, r7}
 80078b2:	bc08      	pop	{r3}
 80078b4:	469e      	mov	lr, r3
 80078b6:	4770      	bx	lr

080078b8 <_fini>:
 80078b8:	b5f8      	push	{r3, r4, r5, r6, r7, lr}
 80078ba:	bf00      	nop
 80078bc:	bcf8      	pop	{r3, r4, r5, r6, r7}
 80078be:	bc08      	pop	{r3}
 80078c0:	469e      	mov	lr, r3
 80078c2:	4770      	bx	lr
